CCS PCH C Compiler, Version 5.015, 5967               10-Aug-20 15:43

               Filename:   C:\Users\tsqua\OneDrive - student.mtsac.edu\Desktop\BAI_TAP_VXL_NEW_3\BAI_705_ADC_2LM35.lst

               ROM used:   1340 bytes (4%)
                           Largest free fragment is 31428
               RAM used:   44 (2%) at main() level
                           51 (2%) worst case
               Stack used: 2 locations
               Stack size: 31

*
0000:  GOTO   03FE
.................... #include <tv_pickit2_shift_1.c>  
.................... #INCLUDE    <18F4550.H> 
.................... //////////// Standard Header file for the PIC18F4550 device //////////////// 
.................... /////////////////////////////////////////////////////////////////////////// 
.................... ////        (C) Copyright 1996, 2013 Custom Computer Services          //// 
.................... //// This source code may only be used by licensed users of the CCS C  //// 
.................... //// compiler.  This source code may only be distributed to other      //// 
.................... //// licensed users of the CCS C compiler.  No other use, reproduction //// 
.................... //// or distribution is permitted without written permission.          //// 
.................... //// Derivative programs created using this software in object code    //// 
.................... //// form are not restricted in any way.                               //// 
.................... /////////////////////////////////////////////////////////////////////////// 
.................... #device PIC18F4550 
0004:  CLRF   FF7
0006:  ADDLW  14
0008:  MOVWF  FF6
000A:  MOVLW  00
000C:  ADDWFC FF7,F
000E:  TBLRD*+
0010:  MOVF   FF5,W
0012:  RETURN 0
0014:  DATA C0,F9
0016:  DATA A4,B0
0018:  DATA 99,92
001A:  DATA 82,F8
001C:  DATA 80,90
001E:  DATA 88,83
0020:  DATA C6,A1
0022:  DATA 86,8E
*
0042:  MOVLW  8E
0044:  MOVWF  00
0046:  MOVFF  21,01
004A:  MOVFF  20,02
004E:  CLRF   03
0050:  MOVF   01,F
0052:  BNZ   0066
0054:  MOVFF  02,01
0058:  CLRF   02
005A:  MOVLW  08
005C:  SUBWF  00,F
005E:  MOVF   01,F
0060:  BNZ   0066
0062:  CLRF   00
0064:  BRA    0076
0066:  BCF    FD8.0
0068:  BTFSC  01.7
006A:  BRA    0074
006C:  RLCF   02,F
006E:  RLCF   01,F
0070:  DECF   00,F
0072:  BRA    0066
0074:  BCF    01.7
0076:  RETURN 0
0078:  MOVF   20,W
007A:  BTFSC  FD8.2
007C:  BRA    01C8
007E:  MOVWF  2C
0080:  MOVF   24,W
0082:  BTFSC  FD8.2
0084:  BRA    01C8
0086:  SUBWF  2C,F
0088:  BNC   0094
008A:  MOVLW  7F
008C:  ADDWF  2C,F
008E:  BTFSC  FD8.0
0090:  BRA    01C8
0092:  BRA    00A0
0094:  MOVLW  81
0096:  SUBWF  2C,F
0098:  BTFSS  FD8.0
009A:  BRA    01C8
009C:  BTFSC  FD8.2
009E:  BRA    01C8
00A0:  MOVFF  2C,00
00A4:  CLRF   01
00A6:  CLRF   02
00A8:  CLRF   03
00AA:  CLRF   2B
00AC:  MOVFF  21,2A
00B0:  BSF    2A.7
00B2:  MOVFF  22,29
00B6:  MOVFF  23,28
00BA:  MOVLW  19
00BC:  MOVWF  2C
00BE:  MOVF   27,W
00C0:  SUBWF  28,F
00C2:  BC    00DE
00C4:  MOVLW  01
00C6:  SUBWF  29,F
00C8:  BC    00DE
00CA:  SUBWF  2A,F
00CC:  BC    00DE
00CE:  SUBWF  2B,F
00D0:  BC    00DE
00D2:  INCF   2B,F
00D4:  INCF   2A,F
00D6:  INCF   29,F
00D8:  MOVF   27,W
00DA:  ADDWF  28,F
00DC:  BRA    012E
00DE:  MOVF   26,W
00E0:  SUBWF  29,F
00E2:  BC    0108
00E4:  MOVLW  01
00E6:  SUBWF  2A,F
00E8:  BC    0108
00EA:  SUBWF  2B,F
00EC:  BC    0108
00EE:  INCF   2B,F
00F0:  INCF   2A,F
00F2:  MOVF   26,W
00F4:  ADDWF  29,F
00F6:  MOVF   27,W
00F8:  ADDWF  28,F
00FA:  BNC   012E
00FC:  INCF   29,F
00FE:  BNZ   012E
0100:  INCF   2A,F
0102:  BNZ   012E
0104:  INCF   2B,F
0106:  BRA    012E
0108:  MOVF   25,W
010A:  IORLW  80
010C:  SUBWF  2A,F
010E:  BC    012C
0110:  MOVLW  01
0112:  SUBWF  2B,F
0114:  BC    012C
0116:  INCF   2B,F
0118:  MOVF   25,W
011A:  IORLW  80
011C:  ADDWF  2A,F
011E:  MOVF   26,W
0120:  ADDWF  29,F
0122:  BNC   00F6
0124:  INCF   2A,F
0126:  BNZ   00F6
0128:  INCF   2B,F
012A:  BRA    00F6
012C:  BSF    03.0
012E:  DECFSZ 2C,F
0130:  BRA    0134
0132:  BRA    014A
0134:  BCF    FD8.0
0136:  RLCF   28,F
0138:  RLCF   29,F
013A:  RLCF   2A,F
013C:  RLCF   2B,F
013E:  BCF    FD8.0
0140:  RLCF   03,F
0142:  RLCF   02,F
0144:  RLCF   01,F
0146:  RLCF   2D,F
0148:  BRA    00BE
014A:  BTFSS  2D.0
014C:  BRA    015A
014E:  BCF    FD8.0
0150:  RRCF   01,F
0152:  RRCF   02,F
0154:  RRCF   03,F
0156:  RRCF   2D,F
0158:  BRA    015E
015A:  DECF   00,F
015C:  BZ    01C8
015E:  BTFSC  2D.7
0160:  BRA    019E
0162:  BCF    FD8.0
0164:  RLCF   28,F
0166:  RLCF   29,F
0168:  RLCF   2A,F
016A:  RLCF   2B,F
016C:  MOVF   27,W
016E:  SUBWF  28,F
0170:  BC    0180
0172:  MOVLW  01
0174:  SUBWF  29,F
0176:  BC    0180
0178:  SUBWF  2A,F
017A:  BC    0180
017C:  SUBWF  2B,F
017E:  BNC   01B4
0180:  MOVF   26,W
0182:  SUBWF  29,F
0184:  BC    0190
0186:  MOVLW  01
0188:  SUBWF  2A,F
018A:  BC    0190
018C:  SUBWF  2B,F
018E:  BNC   01B4
0190:  MOVF   25,W
0192:  IORLW  80
0194:  SUBWF  2A,F
0196:  BC    019E
0198:  MOVLW  01
019A:  SUBWF  2B,F
019C:  BNC   01B4
019E:  INCF   03,F
01A0:  BNZ   01B4
01A2:  INCF   02,F
01A4:  BNZ   01B4
01A6:  INCF   01,F
01A8:  BNZ   01B4
01AA:  INCF   00,F
01AC:  BZ    01C8
01AE:  RRCF   01,F
01B0:  RRCF   02,F
01B2:  RRCF   03,F
01B4:  MOVFF  21,2C
01B8:  MOVF   25,W
01BA:  XORWF  2C,F
01BC:  BTFSS  2C.7
01BE:  BRA    01C4
01C0:  BSF    01.7
01C2:  BRA    01D0
01C4:  BCF    01.7
01C6:  BRA    01D0
01C8:  CLRF   00
01CA:  CLRF   01
01CC:  CLRF   02
01CE:  CLRF   03
01D0:  RETURN 0
01D2:  MOVLW  8E
01D4:  MOVWF  00
01D6:  MOVF   20,W
01D8:  SUBWF  00,F
01DA:  MOVFF  21,02
01DE:  MOVFF  22,01
01E2:  BSF    02.7
01E4:  MOVF   00,F
01E6:  BZ    01FA
01E8:  BCF    FD8.0
01EA:  MOVF   02,F
01EC:  BNZ   01F2
01EE:  MOVF   01,F
01F0:  BZ    01FA
01F2:  RRCF   02,F
01F4:  RRCF   01,F
01F6:  DECFSZ 00,F
01F8:  BRA    01E8
01FA:  BTFSS  21.7
01FC:  BRA    0208
01FE:  COMF   01,F
0200:  COMF   02,F
0202:  INCF   01,F
0204:  BTFSC  FD8.2
0206:  INCF   02,F
0208:  RETURN 0
020A:  CLRF   01
020C:  CLRF   02
020E:  CLRF   00
0210:  CLRF   03
0212:  MOVF   2C,W
0214:  BNZ   021A
0216:  MOVF   2B,W
0218:  BZ    024A
021A:  MOVLW  10
021C:  MOVWF  2D
021E:  BCF    FD8.0
0220:  RLCF   29,F
0222:  RLCF   2A,F
0224:  RLCF   00,F
0226:  RLCF   03,F
0228:  MOVF   2C,W
022A:  SUBWF  03,W
022C:  BNZ   0232
022E:  MOVF   2B,W
0230:  SUBWF  00,W
0232:  BNC   0242
0234:  MOVF   2B,W
0236:  SUBWF  00,F
0238:  BTFSS  FD8.0
023A:  DECF   03,F
023C:  MOVF   2C,W
023E:  SUBWF  03,F
0240:  BSF    FD8.0
0242:  RLCF   01,F
0244:  RLCF   02,F
0246:  DECFSZ 2D,F
0248:  BRA    021E
024A:  RETURN 0
....................  
.................... #list 
....................  
.................... #DEVICE     ADC=10 
.................... #FUSES      NOWDT,PUT,HS,NOPROTECT,NOLVP,CPUDIV1 
.................... #USE        I2C(MASTER,SLOW,SDA=PIN_B0,SCL=PIN_B1) 
.................... #USE        DELAY(CLOCK=20000000) 
.................... //#USE        rs232(baud=9600, xmit=PIN_C6,rcv=PIN_C7) 
.................... //NUT NHAN: 
.................... #DEFINE  BT0     PIN_B5 
.................... #DEFINE  BT1     PIN_B4 
.................... #DEFINE  BT2     PIN_B3 
.................... #DEFINE  BT3     PIN_B2 
....................  
.................... #DEFINE  ON      BT0       //DK LED DON, MOTOR 
.................... #DEFINE  OFF     BT1 
.................... #DEFINE  INV     BT2 
....................  
.................... #DEFINE  UP      BT0    //DK LED DON 
.................... #DEFINE  DW      BT1 
.................... #DEFINE  CLR     BT2 
.................... #DEFINE  MOD     BT3 
....................  
.................... #DEFINE  STOP    BT3 
....................  
.................... #DEFINE  ON1     BT0      
.................... #DEFINE  OFF1    BT1 
.................... #DEFINE  ON2     BT2        
.................... #DEFINE  OFF2    BT3 
....................  
....................  
.................... #DEFINE     TRIGGER      PIN_E2 
.................... #DEFINE     ECHO         PIN_E1 
.................... //   IC74138_A    PIN_B6   //OUTPUT GIAI MA 2 SANG 4 TICH CUC MUC 0 
.................... //   IC74138_B    PIN_B7   //OUTPUT GIAI MA 2 SANG 4 TICH CUC MUC 0 
....................  
.................... //          ENCODER  PIN_C0   //RC0/T13CKI 
....................  
.................... //          CB_KC    PIN_A2   //RA2/AN2 
.................... //          PIR      PIN_A3   //RA3/AN3 
.................... //          CBXUNG   PIN_A4   //RA4/T0CKI 
.................... //          LEDTHU   PIN_A4   //RA4/T0CKI//SW802 
....................  
.................... //          CB_KCSA_TRIGGER  PIN_E2   //RE2/SDO  DUNG CHUNG 
.................... //          CB_KCSA_RCHO     PIN_E1   //RE1 
....................  
.................... //          CB_TCS3200_OUT    PIN_E1   //RE1 //CAM BIEN MAU TCS3200 
.................... //          CB_TCS3200_S0     B12      //LAY TU MBI5026 
.................... //          CB_TCS3200_S1     B13      //LAY TU MBI5026 
.................... //          CB_TCS3200_S2     B14      //LAY TU MBI5026 
.................... //          CB_TCS3200_S3     B15      //LAY TU MBI5026 
....................  
.................... //          CB_POWER  SW803 
.................... //          CB_GAS      AIN3_PCF8591T   //RE1 
.................... //          CB_QUANG    AIN2_PCF8591T    
.................... //          CB_LM35B    AIN1_PCF8591T   //RA1/AN1 
.................... //          CB_LM35A    AIN0_PCF8591T   //RE1/AN0 
....................  
.................... //XXXXXXXXXXXXXXXXXXXXXXXXXXXXXXXXXXXXXXXXXXXXXXXXX 
.................... #DEFINE      ENABLE_573A      PIN_D1         //CS0 CUA A 
.................... #DEFINE      ENABLE_573B      PIN_D0         //CS1 CUA B 
.................... //XXXXXXXXXXXXXXXXXXXXXXXXXXXXXXXXXXXXXXXXXXXXXXXXX 
.................... #DEFINE      SSDO             PIN_E2         //CHUNG TAT CA 
.................... #DEFINE      SSCK             PIN_E0         //CHUNG TAT CA 
.................... //XXXXXXXXXXXXXXXXXXXXXXXXXXXXXXXXXXXXXXXXXXXXXXXXX 
.................... #DEFINE      RCK_4LED7DOAN    PIN_D7         //A - 4 BYTE 
.................... #DEFINE      G_4LED7DOAN      PIN_D6         //A - 4 BYTE 
.................... //XXXXXXXXXXXXXXXXXXXXXXXXXXXXXXXXXXXXXXXXXXXX     
.................... #DEFINE      RCK_MATRANLED    PIN_D7         //B - 3 BYTE DAO 
.................... #DEFINE      G_MATRANLED      PIN_D6         //B - 3 BYTE DAO 
.................... //XXXXXXXXXXXXXXXXXXXXXXXXXXXXXXXXXXXXXXXXXXXXXXXXX 
.................... #DEFINE      RCK_32LED        PIN_D5         //A - 4 BYTE 
.................... #DEFINE      G_32LED          PIN_D4         //A - 4 BYTE 
.................... //XXXXXXXXXXXXXXXXXXXXXXXXXXXXXXXXXXXXXXXXXXXX  
.................... #DEFINE      RCK_8LEDQUET     PIN_D5         //B - 2 BYTE DAO 
.................... #DEFINE      G_8LEDQUET       PIN_D4         //B - 2 BYTE DAO 
.................... //XXXXXXXXXXXXXXXXXXXXXXXXXXXXXXXXXXXXXXXXXXXXXXXXX 
.................... #DEFINE      RCK_LCD20X4      PIN_D3         //A - 2 BYTE DAO 
.................... #DEFINE      G_LCD20X4         PIN_D2         //A - 2 BYTE DAO 
.................... //XXXXXXXXXXXXXXXXXXXXXXXXXXXXXXXXXXXXXXXXXXXX  
.................... #DEFINE      RCK_BUZERELAY    PIN_D3     //B - 1 BYTE  
.................... #DEFINE      G_BUZERELAY      PIN_D2         //B - 1 BYTE  
....................  
.................... VOID XUAT_LCD20X4(UNSIGNED INT8 LCD_SIGNAL,LCD_INS_HTHI); 
....................  
.................... VOID XUAT_BUZZER_RELAY(); 
.................... //XXXXXXXXXXXXXXXXXXXXXXXXXXXXXXXXXXXXXXXXXXXX    
.................... #DEFINE     CHOT_2_IC_74573_A_B  OUTPUT_D(0XFC) 
....................  
.................... UNSIGNED INT8 TIN_HIEU_DK_74573_A; 
.................... #BIT G_4A         = TIN_HIEU_DK_74573_A.6 
.................... #BIT G_32A        = TIN_HIEU_DK_74573_A.4 
.................... #BIT G_LCDA       = TIN_HIEU_DK_74573_A.2 
.................... //XXXXXXXXXXXXXXXXXXXXXXXXXXXXXXXXXXXXXXXXXXXX          
.................... #DEFINE     MO_32_LED_DON        G_32A=0; //OUTPUT_LOW(G_32LED)  
.................... #DEFINE     TAT_32_LED_DON       G_32A=1; //OUTPUT_HIGH(G_32LED)  
.................... //XXXXXXXXXXXXXXXXXXXXXXXXXXXXXXXXXXXXXXXXXXXX          
.................... #DEFINE     MO_4_LED_7DOAN       G_4A=0;  //OUTPUT_LOW(G_4LED7DOAN) 
.................... #DEFINE     TAT_4_LED_7DOAN      G_4A=1;  //OUTPUT_HIGH(G_4LED7DOAN) 
.................... //XXXXXXXXXXXXXXXXXXXXXXXXXXXXXXXXXXXXXXXXXXXX  
.................... #DEFINE     MO_GLCD_LCD           G_LCDA=0;   //OUTPUT_LOW(G_LCD20X4) 
.................... #DEFINE     TAT_GLCD_LCD          G_LCDA=1;   // OUTPUT_LOW(G_LCD20X4) 
....................  
.................... UNSIGNED INT8 TIN_HIEU_DK_74573_B;   
.................... #BIT G_MTB        = TIN_HIEU_DK_74573_B.6 
.................... #BIT G_8B         = TIN_HIEU_DK_74573_B.4 
.................... #BIT G_RBDCB      = TIN_HIEU_DK_74573_B.2 
.................... //XXXXXXXXXXXXXXXXXXXXXXXXXXXXXXXXXXXXXXXXXXXX  
.................... #DEFINE     MO_LED_MATRAN        G_MTB=0; //OUTPUT_LOW(G_MATRANLED) 
.................... #DEFINE     TAT_LED_MATRAN       G_MTB=1; //OUTPUT_LOW(G_MATRANLED) 
.................... //XXXXXXXXXXXXXXXXXXXXXXXXXXXXXXXXXXXXXXXXXXXX        
.................... #DEFINE     MO_8_LED_QUET        G_8B=0;  //OUTPUT_LOW(G_8LEDQUET) 
.................... #DEFINE     TAT_8_LED_QUET       G_8B=1;  //OUTPUT_LOW(G_8LEDQUET) 
.................... //XXXXXXXXXXXXXXXXXXXXXXXXXXXXXXXXXXXXXXXXXXXX          
.................... #DEFINE     MO_RELAY_BUZZER_DC   G_RBDCB=0;  //OUTPUT_LOW(G_BUZERELAY) 
.................... #DEFINE     TAT_RELAY_BUZZER_DC  G_RBDCB=1;  //OUTPUT_LOW(G_BUZERELAY) 
....................  
.................... //XXXXXXXXXXXXXXXXXXXXXXXXXXXXXXXXXXXXXXXXXXXX 
.................... //CHUONG TRINH KIEM TRA PHIM BT1 
.................... //XXXXXXXXXXXXXXXXXXXXXXXXXXXXXXXXXXXXXXXXXXXX 
.................... UNSIGNED INT8 DL_BTN=0; 
.................... INT1 PHIM_BT0(UNSIGNED INT16 DL) 
.................... {   
....................     IF (!INPUT(BT0)) 
....................     {   
....................       DL_BTN++; 
....................        
....................       IF (DL_BTN>= DL) 
....................          { 
....................             DL_BTN =0; 
....................             RETURN(1); 
....................          } 
....................       ELSE RETURN(0); 
....................     } 
....................     ELSE    RETURN(0); 
.................... }  
.................... //XXXXXXXXXXXXXXXXXXXXXXXXXXXXXXXXXXXXXXXXXXXX 
.................... //CHUONG TRINH KIEM TRA PHIM BT1 
.................... //XXXXXXXXXXXXXXXXXXXXXXXXXXXXXXXXXXXXXXXXXXXX 
.................... INT1 PHIM_BT1(UNSIGNED INT16 DL ) 
.................... {   
....................     IF (!INPUT(BT1)) 
....................     {   
....................       DL_BTN++; 
....................        
....................       IF (DL_BTN>= DL) 
....................          { 
....................             DL_BTN =0; 
....................             RETURN(1); 
....................          } 
....................       ELSE RETURN(0); 
....................     } 
....................     ELSE    RETURN(0); 
.................... }  
.................... //XXXXXXXXXXXXXXXXXXXXXXXXXXXXXXXXXXXXXXXXXXXX 
.................... //CHUONG TRINH KIEM TRA PHIM BT2       
.................... //XXXXXXXXXXXXXXXXXXXXXXXXXXXXXXXXXXXXXXXXXXXX                                     
.................... INT1 PHIM_BT2(UNSIGNED INT16 DL ) 
.................... {                                         
....................     IF (!INPUT(BT2)) 
....................     {   
....................       DL_BTN++; 
....................        
....................       IF (DL_BTN>= DL) 
....................          { 
....................             DL_BTN =0; 
....................             RETURN(1); 
....................          } 
....................       ELSE RETURN(0); 
....................     } 
....................     ELSE    RETURN(0); 
....................                                           
.................... }       
....................  
.................... //XXXXXXXXXXXXXXXXXXXXXXXXXXXXXXXXXXXXXXXXXXXX 
.................... //CHUONG TRINH KIEM TRA PHIM BT3 
.................... //XXXXXXXXXXXXXXXXXXXXXXXXXXXXXXXXXXXXXXXXXXXX 
.................... INT1 PHIM_BT3(UNSIGNED INT16 DL,  UNSIGNED INT8 SOLAN  ) 
.................... {   
....................     IF (!INPUT(BT3)) 
....................     {   
....................       DL_BTN++; 
....................       IF(DL_BTN==1) RETURN(1); 
....................       ELSE 
....................       { 
....................          IF (DL_BTN>= DL) 
....................          DL_BTN =SOLAN; 
....................       } 
....................     } 
....................     ELSE    
....................     { 
....................       //DL_BTN =0; 
....................       RETURN(0); 
....................     } 
.................... }  
.................... //XXXXXXXXXXXXXXXXXXXXXXXXXXXXXXXXXXXXXXXXXXXX 
.................... //KHAI BAO DU LIEU 16 BIT CHO MODULE RELAY, TRIAC, BUZZER, DONG CO 
.................... //XXXXXXXXXXXXXXXXXXXXXXXXXXXXXXXXXXXXXXXXXXXX 
.................... UNSIGNED INT16 RBDC; 
.................... #BIT STEP_MOTOR_ENABLE  = RBDC.0    //1=ENA,0=DIS 
.................... #BIT STEP_MOTOR_IN1     = RBDC.1     
.................... #BIT STEP_MOTOR_IN2     = RBDC.2 
.................... #BIT STEP_MOTOR_IN3     = RBDC.3 
.................... #BIT STEP_MOTOR_IN4     = RBDC.4 
.................... #BIT DC_ENABLE          = RBDC.5    //1=ENA,0=DIS 
.................... #BIT PWRKEY             = RBDC.6    //KHOI TAO SIM900 
....................  
.................... #BIT BUZZER             = RBDC.8    //1=ON,0=OFF 
.................... #BIT TRIAC_1            = RBDC.9    //1=ON,0=OFF 
.................... #BIT TRIAC_2            = RBDC.10   //1=ON,0=OFF 
.................... #BIT RELAY_1            = RBDC.11   //0=ON,1=OFF 
.................... #BIT RELAY_2            = RBDC.12   //0=ON,1=OFF 
....................  
.................... //HAM 103 
.................... //XXXXXXXXXXXXXXXXXXXXXXXXXXXXXXXXXXXXXXXXXXXX 
.................... //CHUONG TRINH CON KHOI TAO IC CHOT 
.................... //XXXXXXXXXXXXXXXXXXXXXXXXXXXXXXXXXXXXXXXXXXXX          
.................... #DEFINE     CHO_IC_74573_A_GOI_DU_LIEU     OUTPUT_HIGH(ENABLE_573A) 
.................... #DEFINE     CHOT_IC_74573_A_GOI_DU_LIEU    OUTPUT_LOW(ENABLE_573A) 
....................  
.................... #DEFINE     CHO_IC_74573_B_GOI_DU_LIEU     OUTPUT_HIGH(ENABLE_573B) 
.................... #DEFINE     CHOT_IC_74573_B_GOI_DU_LIEU    OUTPUT_LOW(ENABLE_573B) 
.................... VOID MO_IC_74573_A_THONG_DL(); 
....................  
.................... //XXXXXXXXXXXXXXXXXXXXXXXXXXXXXXXXXXXXXXXXXXXX    
.................... CONST UNSIGNED CHAR MA7DOAN[16]= {0XC0,0XF9,0xA4,0XB0,0X99,0X92,0X82,0XF8, 
.................... 0X80,0X90,0x88, 0x83, 0xC6, 0xA1, 0x86, 0x8E}; 
.................... #DEFINE     MASO0    0XC0 
.................... #DEFINE     MASO1    0XF9 
.................... #DEFINE     MASO2    0XA4 
.................... #DEFINE     MASO3    0XB0 
.................... #DEFINE     MASO4    0X99 
.................... #DEFINE     MASO5    0X92 
.................... #DEFINE     MASO6    0X82 
.................... #DEFINE     MASO7    0XF8 
....................  
.................... //XXXXXXXXXXXXXXXXXXXXXXXXXXXXXXXXXXXXXXXXXXXX  
.................... //HAM 102 
.................... //XXXXXXXXXXXXXXXXXXXXXXXXXXXXXXXXXXXXXXXXXXXX     
.................... //XUAT 1 BYTE RA THANH GHI DICH 
.................... //XXXXXXXXXXXXXXXXXXXXXXXXXXXXXXXXXXXXXXXXXXXX     
.................... VOID XUAT_1BYTE(UNSIGNED INT8 BYTEXUAT) 
.................... { 
....................    UNSIGNED INT8   SB,X;    
....................    #BIT BSERI  = X.7 
....................    X = BYTEXUAT; 
*
0378:  MOVFF  30,32
....................    FOR (SB=0;SB<8;SB++) 
037C:  CLRF   31
037E:  MOVF   31,W
0380:  SUBLW  07
0382:  BNC   03A0
....................       {                                                  
....................          OUTPUT_BIT(SSDO,BSERI);     
0384:  BTFSC  32.7
0386:  BRA    038C
0388:  BCF    F8D.2
038A:  BRA    038E
038C:  BSF    F8D.2
038E:  BCF    F96.2
....................          OUTPUT_LOW(SSCK); OUTPUT_HIGH(SSCK); 
0390:  BCF    F96.0
0392:  BCF    F8D.0
0394:  BCF    F96.0
0396:  BSF    F8D.0
....................          X= X<<1;          
0398:  BCF    FD8.0
039A:  RLCF   32,F
039C:  INCF   31,F
039E:  BRA    037E
....................      } 
03A0:  RETURN 0
.................... } 
.................... //XXXXXXXXXXXXXXXXXXXXXXXXXXXXXXXXXXXXXXXXXXXX  
.................... //HAM 301 
.................... //XXXXXXXXXXXXXXXXXXXXXXXXXXXXXXXXXXXXXXXXXXXX 
.................... //CHUONG TRINH CON XUAT 4 BYTE RA 32 LED DON 
.................... //XXXXXXXXXXXXXXXXXXXXXXXXXXXXXXXXXXXXXXXXXXXX 
.................... VOID XUAT_32LED_DON_4BYTE(UNSIGNED INT8 BLD3,BLD2,BLD1,BLD0) 
.................... {      
....................       XUAT_1BYTE(BLD3);           
....................       XUAT_1BYTE(BLD2); 
....................       XUAT_1BYTE(BLD1);           
....................       XUAT_1BYTE(BLD0);             
....................       MO_32_LED_DON;       
....................       MO_IC_74573_A_THONG_DL();             
....................       OUTPUT_HIGH(RCK_32LED);    OUTPUT_LOW(RCK_32LED); 
....................       CHOT_IC_74573_A_GOI_DU_LIEU;       
.................... } 
.................... //HAM 302 
.................... //XXXXXXXXXXXXXXXXXXXXXXXXXXXXXXXXXXXXXXXXXXXX 
.................... //CHUONG TRINH CON XUAT 2 WORD 16 BITRA 32 LED DON 
.................... //XXXXXXXXXXXXXXXXXXXXXXXXXXXXXXXXXXXXXXXXXXXX 
.................... VOID XUAT_32LED_DON_2WORD(UNSIGNED INT16 WLD1, UNSIGNED INT16 WLD0) 
.................... {      
....................      UNSIGNED INT8  B3,B2,B1,B0; 
....................      B3 = WLD1>>8;  B2 = WLD1;  
....................      B1 = WLD0>>8;  B0 = WLD0; 
....................      XUAT_32LED_DON_4BYTE(B3,B2,B1,B0); 
.................... } 
.................... //HAM 303 
.................... //XXXXXXXXXXXXXXXXXXXXXXXXXXXXXXXXXXXXXXXXXXXX 
.................... //CHUONG TRINH CON XUAT 1 DOUBLE WORD RA 32 LED DON 
.................... //XXXXXXXXXXXXXXXXXXXXXXXXXXXXXXXXXXXXXXXXXXXX 
.................... VOID XUAT_32LED_DON_1DW(UNSIGNED LONG LONG DWLD) 
.................... {      
....................      UNSIGNED INT16  WD1,WD0; 
....................      WD1 = DWLD>>16;  WD0 = DWLD; 
....................      XUAT_32LED_DON_2WORD(WD1,WD0); 
.................... } 
....................  
.................... //HAM 304 
.................... //XXXXXXXXXXXXXXXXXXXXXXXXXXXXXXXXXXXXXXXXXXXX 
.................... //CHUONG TRINH CON MO 32 LED DON SANG 
.................... //XXXXXXXXXXXXXXXXXXXXXXXXXXXXXXXXXXXXXXXXXXXX 
.................... VOID MO_32LED_DON() 
.................... {         
....................      XUAT_32LED_DON_1DW(0XFFFFFFFF); 
.................... } 
.................... //HAM 305 
.................... //XXXXXXXXXXXXXXXXXXXXXXXXXXXXXXXXXXXXXXXXXXXX 
.................... //CHUONG TRINH CON TAT 32 LED DON  
.................... //XXXXXXXXXXXXXXXXXXXXXXXXXXXXXXXXXXXXXXXXXXXX 
.................... VOID TAT_32LED_DON() 
.................... {         
....................      XUAT_32LED_DON_1DW(0); 
.................... } 
.................... //XXXXXXXXXXXXXXXXXXXXXXXXXXXXXXXXXXXXXXXXXXXX     
.................... //XUAT 1 BIT ROI TRA LAI KET QUA SAU KHI DICH DI 1 BIT 
.................... //XXXXXXXXXXXXXXXXXXXXXXXXXXXXXXXXXXXXXXXXXXXX     
.................... UNSIGNED  INT8 XUAT_1BIT(UNSIGNED INT8 BYTEXUAT) 
.................... { 
....................       UNSIGNED INT8   XBITX;    
....................       #BIT BSERIX  = XBITX.0 
....................       XBITX = BYTEXUAT; 
....................                                              
....................       OUTPUT_BIT(SSDO,BSERIX);     
....................       OUTPUT_LOW(SSCK); OUTPUT_HIGH(SSCK); 
....................       XBITX= XBITX>>1;    
....................       RETURN(XBITX);   
.................... } 
.................... //XXXXXXXXXXXXXXXXXXXXXXXXXXXXXXXXXXXXXXXXXXXX  
.................... //HAM 101 
.................... //XXXXXXXXXXXXXXXXXXXXXXXXXXXXXXXXXXXXXXXXXXXX     
.................... //HAM KHOI TAO CAC PORT VA IC CHOT 
.................... //XXXXXXXXXXXXXXXXXXXXXXXXXXXXXXXXXXXXXXXXXXXX     
.................... VOID SET_UP_PORT_IC_CHOT() 
.................... {      
....................       SET_TRIS_D(0x00);     
*
0024:  MOVLW  00
0026:  MOVWF  F95
....................       SET_TRIS_E(0X00); 
0028:  MOVWF  F96
....................       OUTPUT_D(0XFF); 
002A:  CLRF   F95
002C:  SETF   F8C
....................       TIN_HIEU_DK_74573_A=0XFF;   
002E:  SETF   04
....................       TIN_HIEU_DK_74573_B=0XFF;       
0030:  SETF   05
....................       CHOT_IC_74573_A_GOI_DU_LIEU; 
0032:  BCF    F95.1
0034:  BCF    F8C.1
....................       CHOT_IC_74573_B_GOI_DU_LIEU;   
0036:  BCF    F95.0
0038:  BCF    F8C.0
....................       RBDC=0; 
003A:  CLRF   08
003C:  CLRF   07
003E:  GOTO   0430 (RETURN)
.................... } 
.................... //HAM 104 
.................... //XXXXXXXXXXXXXXXXXXXXXXXXXXXXXXXXXXXXXXXXXXXX     
.................... //XUAT CÁC THIEU DIEU KHIEN  
.................... //GIU NGUYEN CAC TRANG THAI CUA 2 MODULE KHAC 
.................... //XXXXXXXXXXXXXXXXXXXXXXXXXXXXXXXXXXXXXXXXXXXX     
.................... VOID MO_IC_74573_A_THONG_DL() 
.................... {      
....................       OUTPUT_D(0X00); 
*
03A2:  CLRF   F95
03A4:  CLRF   F8C
....................       OUTPUT_BIT(G_32LED,G_32A); 
03A6:  BTFSC  04.4
03A8:  BRA    03AE
03AA:  BCF    F8C.4
03AC:  BRA    03B0
03AE:  BSF    F8C.4
03B0:  BCF    F95.4
....................       OUTPUT_BIT(G_4LED7DOAN,G_4A); 
03B2:  BTFSC  04.6
03B4:  BRA    03BA
03B6:  BCF    F8C.6
03B8:  BRA    03BC
03BA:  BSF    F8C.6
03BC:  BCF    F95.6
....................       OUTPUT_BIT(G_LCD20X4,G_LCDA);   
03BE:  BTFSC  04.2
03C0:  BRA    03C6
03C2:  BCF    F8C.2
03C4:  BRA    03C8
03C6:  BSF    F8C.2
03C8:  BCF    F95.2
....................       CHO_IC_74573_A_GOI_DU_LIEU; 
03CA:  BCF    F95.1
03CC:  BSF    F8C.1
03CE:  GOTO   03EE (RETURN)
.................... } 
.................... VOID MO_IC_74573_B_THONG_DL() 
.................... {      
....................       OUTPUT_D(0X00); 
....................       OUTPUT_BIT(G_MATRANLED,G_MTB); 
....................       OUTPUT_BIT(G_8LEDQUET,G_8B); 
....................       OUTPUT_BIT(G_BUZERELAY,G_RBDCB);  
....................       CHO_IC_74573_B_GOI_DU_LIEU; 
.................... } 
.................... //ham 401 
.................... //XXXXXXXXXXXXXXXXXXXXXXXXXXXXXXXXXXXXXXXXXXXX 
.................... //CHUONG TRINH CON XUAT 4 BYTE RA 4 LED 7 DOAN 
.................... //XXXXXXXXXXXXXXXXXXXXXXXXXXXXXXXXXXXXXXXXXXXX 
.................... VOID XUAT_4LED_7DOAN_4SO(UNSIGNED INT BL743,BL742,BL741,BL740) 
.................... {      
....................       XUAT_1BYTE(BL740);   XUAT_1BYTE(BL741); 
03D2:  MOVFF  2F,30
03D6:  RCALL  0378
03D8:  MOVFF  2E,30
03DC:  RCALL  0378
....................       XUAT_1BYTE(BL742);   XUAT_1BYTE(BL743); 
03DE:  MOVFF  2D,30
03E2:  RCALL  0378
03E4:  MOVFF  2C,30
03E8:  RCALL  0378
....................        
....................       MO_4_LED_7DOAN; 
03EA:  BCF    04.6
....................       MO_IC_74573_A_THONG_DL(); 
03EC:  BRA    03A2
....................         
....................       OUTPUT_LOW(RCK_4LED7DOAN);   OUTPUT_HIGH(RCK_4LED7DOAN);  
03EE:  BCF    F95.7
03F0:  BCF    F8C.7
03F2:  BCF    F95.7
03F4:  BSF    F8C.7
....................       CHOT_IC_74573_A_GOI_DU_LIEU; 
03F6:  BCF    F95.1
03F8:  BCF    F8C.1
03FA:  GOTO   0538 (RETURN)
.................... } 
.................... //ham 404 
.................... VOID XUAT_4LED_7DOAN_3SO(UNSIGNED INT BL742,BL741,BL740) 
.................... {      
....................      XUAT_4LED_7DOAN_4SO(0XFF,BL742,BL741,BL740); 
.................... } 
.................... //ham 403 
.................... VOID XUAT_4LED_7DOAN_2SO(UNSIGNED INT BL741,BL740) 
.................... {      
....................      XUAT_4LED_7DOAN_4SO(0XFF,0XFF,BL741,BL740); 
.................... } 
.................... //ham 402 
.................... VOID XUAT_4LED_7DOAN_1SO(UNSIGNED INT BL740) 
.................... {      
....................      XUAT_4LED_7DOAN_4SO(0XFF,0XFF,0XFF,BL740); 
.................... } 
....................  
.................... //ham 405 
.................... //XXXXXXXXXXXXXXXXXXXXXXXXXXXXXXXXXXXXXXXXXXXXXXXXXXXXXXXXXXXXX 
.................... //CHUONG TRINH CON HIEN THI DU LIEU 16 BIT TREN 4 LED 7 DOAN 
.................... //XXXXXXXXXXXXXXXXXXXXXXXXXXXXXXXXXXXXXXXXXXXXXXXXXXXXXXXXXXXXX 
.................... UNSIGNED CHAR DONVI4,CHUC4,TRAM4,NGAN4; 
.................... VOID  XUAT_4LED_7DOAN_GIAIMA_XOA_SO0 (UNSIGNED INT16 TAM) 
.................... {          
....................       DONVI4 = MA7DOAN[TAM %10];          
....................       CHUC4  = MA7DOAN[TAM/10%10]; 
....................       TRAM4  = MA7DOAN[TAM/100%10];  
....................       NGAN4  = MA7DOAN[TAM/1000%10];        
....................       IF (NGAN4==0XC0) 
....................       { 
....................          NGAN4=0XFF; 
....................          IF (TRAM4==0XC0) 
....................          { 
....................             TRAM4=0XFF; 
....................             IF (CHUC4==0XC0)   CHUC4=0XFF; 
....................          } 
....................       } 
....................       XUAT_4LED_7DOAN_4SO(NGAN4,TRAM4,CHUC4,DONVI4);    
.................... } 
.................... UNSIGNED INT8 LCDDATA=0;  
.................... UNSIGNED INT8 LCDCONTROL=0; 
.................... UNSIGNED INT8 GLCDDATA=0; 
.................... UNSIGNED INT8 GLCDCONTROL=0;  
.................... //HAM 701 
.................... //XXXXXXXXXXXXXXXXXXXXXXXXXXXXXXXXXXXXXXXXXXXXXXXXXXXXXXXXXXXXX 
.................... //CHUONG TRINH CON XUAT DU LIEU 4 BYTE RA GLCD VA LCD 
.................... //XXXXXXXXXXXXXXXXXXXXXXXXXXXXXXXXXXXXXXXXXXXXXXXXXXXXXXXXXXXXX 
.................... VOID XUAT_GLCD_LCD() 
.................... {       
....................     XUAT_1BYTE(GLCDCONTROL);              
....................     XUAT_1BYTE(GLCDDATA); 
....................     XUAT_1BYTE(LCDCONTROL);        
....................     XUAT_1BYTE(LCDDATA);       
....................        
....................     MO_GLCD_LCD; 
....................     MO_IC_74573_A_THONG_DL();             
....................     OUTPUT_HIGH(RCK_LCD20X4);      
....................     OUTPUT_LOW(RCK_LCD20X4); 
....................     CHOT_IC_74573_A_GOI_DU_LIEU; 
.................... } 
.................... //HAM 702 
.................... VOID XUAT_LCD20X4(UNSIGNED INT8 LCD_SIGNAL,LCD_INS_HTHI) 
.................... {      
....................     LCDCONTROL = ~LCD_SIGNAL; 
....................     LCDDATA    = ~LCD_INS_HTHI;       
....................     XUAT_GLCD_LCD(); 
.................... } 
.................... //HAM 703 
.................... VOID XUAT_GLCD128X64(UNSIGNED INT8 GLCD_SIGNAL,GLCD_INS_HTHI) 
.................... {      
....................     GLCDCONTROL = ~GLCD_SIGNAL; 
....................     GLCDDATA    = ~GLCD_INS_HTHI;      
....................     XUAT_GLCD_LCD(); 
.................... } 
.................... //HAM 501 
.................... //XXXXXXXXXXXXXXXXXXXXXXXXXXXXXXXXXXXXXXXXXXXX 
.................... //CHUONG TRINH CON XUAT 2 BYTE RA DK 1 LED QUET SANG 
.................... //XXXXXXXXXXXXXXXXXXXXXXXXXXXXXXXXXXXXXXXXXXXX 
.................... VOID XUAT_8LED_7DOAN_QUET_1(UNSIGNED INT MA,SO_HTHI) 
.................... {      
....................       XUAT_1BYTE(~MA);   XUAT_1BYTE(~SO_HTHI); 
....................        
....................       MO_8_LED_QUET; 
....................       MO_IC_74573_B_THONG_DL(); 
....................        
....................       OUTPUT_HIGH(RCK_8LEDQUET); OUTPUT_LOW(RCK_8LEDQUET); 
....................       CHOT_IC_74573_B_GOI_DU_LIEU; 
.................... } 
.................... //HAM 502 
.................... //XXXXXXXXXXXXXXXXXXXXXXXXXXXXXXXXXXXXXXXXXXXX 
.................... //CHUONG TRINH CON XUAT 2 BYTE RA TAT 8 LED QUET 
.................... //XXXXXXXXXXXXXXXXXXXXXXXXXXXXXXXXXXXXXXXXXXXX 
.................... VOID XUAT_8LED_7DOAN_QUET_TAT_LED() 
.................... { 
....................    XUAT_8LED_7DOAN_QUET_1(0XFF,0XFF); 
.................... } 
.................... //HAM 503 
.................... //XXXXXXXXXXXXXXXXXXXXXXXXXXXXXXXXXXXXXXXXXXXX 
.................... //CHUONG TRINH CON HIEN THI LED THEO THU TU 
.................... //XXXXXXXXXXXXXXXXXXXXXXXXXXXXXXXXXXXXXXXXXXXX 
.................... CONST UNSIGNED CHAR TTLEDQUET[8]= {0x7F,0xBF,0xDF,0xEF,0xF7,0xFB,0xFD,0xFE}; 
.................... VOID XUAT_8LED_7DOAN_QUET_2(UNSIGNED INT THUTULED,SO_HTHI) 
.................... {          
....................       XUAT_1BYTE(~ (TTLEDQUET[THUTULED]));   XUAT_1BYTE(~SO_HTHI);      
....................       MO_8_LED_QUET; 
....................       MO_IC_74573_B_THONG_DL(); 
....................       OUTPUT_HIGH(RCK_8LEDQUET); OUTPUT_LOW(RCK_8LEDQUET); 
....................       CHOT_IC_74573_B_GOI_DU_LIEU; 
.................... } 
.................... //HAM 504 
.................... //XXXXXXXXXXXXXXXXXXXXXXXXXXXXXXXXXXXXXXXXXXXX 
.................... //CHUONG TRINH CON HIEN THI 8 SO TREN 8 LED QUET - CO KIEM TRA 
.................... //XXXXXXXXXXXXXXXXXXXXXXXXXXXXXXXXXXXXXXXXXXXX 
.................... UNSIGNED INT8 LED_7DQ[8]={0XFF,0XFF,0XFF,0XFF,0XFF,0XFF,0XFF,0XFF}; 
.................... UNSIGNED INT8 TT8LED=0; 
.................... VOID HIEN_THI_8LED_7DOAN_QUET() 
.................... {      
....................       FOR(TT8LED=0;TT8LED<8;TT8LED++) 
....................          IF (LED_7DQ[TT8LED]!=0XFF) 
....................          {            
....................             XUAT_8LED_7DOAN_QUET_2(TT8LED, LED_7DQ[TT8LED]); 
....................             DELAY_US(100); 
....................             XUAT_8LED_7DOAN_QUET_TAT_LED();            
....................             } 
.................... } 
.................... //HAM 505 
.................... //XXXXXXXXXXXXXXXXXXXXXXXXXXXXXXXXXXXXXXXXXXXX 
.................... //CHUONG TRINH CON HIEN THI 8 SO TREN 8 LED QUET - KHONG KIEM TRA 
.................... //XXXXXXXXXXXXXXXXXXXXXXXXXXXXXXXXXXXXXXXXXXXX 
.................... VOID HIEN_THI_8LED_7DOAN_QUET_ALL() 
.................... {      
....................       FOR(TT8LED=0;TT8LED<8;TT8LED++)          
....................          {            
....................             XUAT_8LED_7DOAN_QUET_2(TT8LED, LED_7DQ[TT8LED]); 
....................             DELAY_US(100); 
....................             XUAT_8LED_7DOAN_QUET_TAT_LED();            
....................             } 
.................... } 
....................  
.................... VOID DELAY_QUET_8LED(UNSIGNED INT16 DL) 
.................... {  
....................       UNSIGNED INT8 I; 
....................       FOR (I=0; I<DL;I++) 
....................       HIEN_THI_8LED_7DOAN_QUET_ALL(); 
.................... }  
....................  
.................... VOID GIAI_MA_GAN_CHO_8LED_QUET_16_XOA(UNSIGNED INT16 X) 
.................... {      
....................       LED_7DQ[0]= MA7DOAN [X %10];     
....................       LED_7DQ[1]= MA7DOAN [X/10%10]; 
....................       LED_7DQ[2]= MA7DOAN [X/100%10];     
....................       LED_7DQ[3]= MA7DOAN [X/1000%10]; 
....................       LED_7DQ[4]= MA7DOAN [X/10000%10]; 
....................       IF (LED_7DQ[4]==MASO0)  
....................       { 
....................             LED_7DQ[4]=0XFF; 
....................             IF (LED_7DQ[3]==MASO0)  
....................             { 
....................                LED_7DQ[3]=0XFF; 
....................                IF (LED_7DQ[2]==MASO0)  
....................                { 
....................                   LED_7DQ[2]=0XFF; 
....................                   IF (LED_7DQ[1]==MASO0)  
....................                   { 
....................                      LED_7DQ[1]=0XFF; 
....................                   } 
....................                } 
....................             } 
....................       } 
....................              
.................... } 
.................... //XXXXXXXXXXXXXXXXXXXXXXXXXXXXXXXXXXXXXXXXXXXX          
.................... VOID XUAT_2BYTE(UNSIGNED INT16 BYTE2XUAT) 
.................... { 
....................    INT8 SBB; 
....................    UNSIGNED INT16   XX;   //SHORT  BSERI; 
....................    #BIT BSERIX  = XX.15 
....................    XX = BYTE2XUAT; 
....................    FOR (SBB=0;SBB<16;SBB++) 
....................       {                                                  
....................          OUTPUT_BIT(SSDO,BSERIX);     
....................          OUTPUT_LOW(SSCK);          
....................          OUTPUT_HIGH(SSCK); 
....................          XX= XX<<1;          
....................      } 
.................... } 
.................... //XXXXXXXXXXXXXXXXXXXXXXXXXXXXXXXXXXXXXXXXXXXX 
.................... //CHUONG TRINH CON XUAT RA LED MA TRAN 
.................... //XXXXXXXXXXXXXXXXXXXXXXXXXXXXXXXXXXXXXXXXXXXX 
.................... VOID XUAT_MATRANLED(UNSIGNED INT16 MAHANG,UNSIGNED INT16 MACOT1, 
.................... UNSIGNED INT16 MACOT2,UNSIGNED INT16 MACOT3) 
.................... {       
....................       XUAT_2BYTE(MACOT3); 
....................       XUAT_2BYTE(MACOT2); 
....................       XUAT_2BYTE(MACOT1); 
....................       XUAT_2BYTE(MAHANG); 
....................        
....................       MO_LED_MATRAN; 
....................       MO_IC_74573_B_THONG_DL(); 
....................        
....................       OUTPUT_HIGH(RCK_MATRANLED); OUTPUT_LOW(RCK_MATRANLED);  
....................       CHOT_IC_74573_B_GOI_DU_LIEU; 
.................... } 
.................... //XXXXXXXXXXXXXXXXXXXXXXXXXXXXXXXXXXXXXXXXXXXX 
.................... //CHUONG TRINH CON XUAT RA LED MA TRAN 
.................... //XXXXXXXXXXXXXXXXXXXXXXXXXXXXXXXXXXXXXXXXXXXX 
.................... VOID TAT_MATRANLED() 
.................... {       
....................       XUAT_2BYTE(0); 
....................       XUAT_2BYTE(0); 
....................       XUAT_2BYTE(0); 
....................       XUAT_2BYTE(0);            
....................       OUTPUT_HIGH(RCK_MATRANLED);  
....................       OUTPUT_LOW(RCK_MATRANLED); 
.................... } 
.................... UNSIGNED  INT8 HIEU_CHINH_4BIT_CAO(UNSIGNED INT8 XZY) 
.................... { 
....................       INT1  BTG; 
....................       UNSIGNED INT8   BX;    
....................       #BIT BIT4  = BX.4 
....................       #BIT BIT5  = BX.5 
....................       #BIT BIT6  = BX.6 
....................       #BIT BIT7  = BX.7 
....................       BX=XZY; 
....................       BTG=BIT4;   BIT4=BIT7;  BIT7=BTG; 
....................       BTG=BIT5;   BIT5=BIT6;  BIT6=BTG;       
....................       RETURN(BX);   
.................... } 
.................... //HAM 601 
.................... //XXXXXXXXXXXXXXXXXXXXXXXXXXXXXXXXXXXXXXXXXXXXXXXXXXXX 
.................... //MODULE DIEU KHIEN RELAY,TRIAC, BUZZER, DONG CO, SIM 
.................... //XXXXXXXXXXXXXXXXXXXXXXXXXXXXXXXXXXXXXXXXXXXXXXXXXXXX 
.................... VOID XUAT_BUZZER_RELAY() 
.................... {      
....................    UNSIGNED INT8 RBDC1,RBDC2; 
....................       RBDC1=RBDC; RBDC2=RBDC>>8;       
....................       XUAT_1BYTE(RBDC2);       
....................       XUAT_1BYTE(RBDC1); 
....................       MO_RELAY_BUZZER_DC; 
....................       MO_IC_74573_B_THONG_DL(); 
....................        
....................       OUTPUT_HIGH(RCK_BUZERELAY);   OUTPUT_LOW(RCK_BUZERELAY); 
....................       CHOT_IC_74573_B_GOI_DU_LIEU; 
.................... } 
.................... //HAM 602 
.................... //XXXXXXXXXXXXXXXXXXXXXXXXXXXXXXXXXXXXXXXXXXXXXXXXXXXX 
.................... VOID BUZZER_ON() 
.................... {     
....................       BUZZER=1; 
....................       XUAT_BUZZER_RELAY();          
.................... } 
.................... //HAM 603 
.................... //XXXXXXXXXXXXXXXXXXXXXXXXXXXXXXXXXXXXXXXXXXXXXXXXXXXX 
.................... VOID BUZZER_OFF() 
.................... {      
....................       BUZZER=0; 
....................       XUAT_BUZZER_RELAY(); 
.................... } 
.................... //HAM 604 
.................... //XXXXXXXXXXXXXXXXXXXXXXXXXXXXXXXXXXXXXXXXXXXXXXXXXXXX 
.................... VOID RELAY_1_ON() 
.................... {     
....................       RELAY_1=1; 
....................       XUAT_BUZZER_RELAY();          
.................... } 
.................... //HAM 603 
.................... //XXXXXXXXXXXXXXXXXXXXXXXXXXXXXXXXXXXXXXXXXXXXXXXXXXXX 
.................... VOID RELAY_1_OFF() 
.................... {     
....................       RELAY_1=0; 
....................       XUAT_BUZZER_RELAY();          
.................... } 
.................... //HAM 604 
.................... //XXXXXXXXXXXXXXXXXXXXXXXXXXXXXXXXXXXXXXXXXXXXXXXXXXXX 
.................... VOID RELAY_2_ON() 
.................... {     
....................       RELAY_2=1; 
....................       XUAT_BUZZER_RELAY();          
.................... } 
.................... //HAM 607 
.................... //XXXXXXXXXXXXXXXXXXXXXXXXXXXXXXXXXXXXXXXXXXXXXXXXXXXX 
.................... VOID RELAY_2_OFF() 
.................... {     
....................       RELAY_2=0; 
....................       XUAT_BUZZER_RELAY();          
.................... } 
.................... //HAM 608 
.................... //XXXXXXXXXXXXXXXXXXXXXXXXXXXXXXXXXXXXXXXXXXXXXXXXXXXX 
.................... VOID RELAY_1_RELAY_2_ON() 
.................... {     
....................       RELAY_1=1;  RELAY_2=1; 
....................       XUAT_BUZZER_RELAY();          
.................... } 
.................... //HAM 609 
.................... //XXXXXXXXXXXXXXXXXXXXXXXXXXXXXXXXXXXXXXXXXXXXXXXXXXXX 
.................... VOID RELAY_1_RELAY_2_OFF() 
.................... {     
....................       RELAY_1=0;  RELAY_2=0; 
....................       XUAT_BUZZER_RELAY();          
.................... } 
.................... //HAM 610 
.................... //XXXXXXXXXXXXXXXXXXXXXXXXXXXXXXXXXXXXXXXXXXXXXXXXXXXX 
.................... VOID TRIAC_1_ON() 
.................... {     
....................       TRIAC_1=1; 
....................       XUAT_BUZZER_RELAY();          
.................... } 
.................... //HAM 611 
.................... //XXXXXXXXXXXXXXXXXXXXXXXXXXXXXXXXXXXXXXXXXXXXXXXXXXXX 
.................... VOID TRIAC_1_OFF() 
.................... {     
....................       TRIAC_1=0; 
....................       XUAT_BUZZER_RELAY();          
.................... } 
.................... //HAM 612 
.................... //XXXXXXXXXXXXXXXXXXXXXXXXXXXXXXXXXXXXXXXXXXXXXXXXXXXX 
.................... VOID TRIAC_2_ON() 
.................... {     
....................       TRIAC_2=1; 
....................       XUAT_BUZZER_RELAY();          
.................... } 
.................... //HAM 613 
.................... //XXXXXXXXXXXXXXXXXXXXXXXXXXXXXXXXXXXXXXXXXXXXXXXXXXXX 
.................... VOID TRIAC_2_OFF() 
.................... {     
....................       TRIAC_2=0; 
....................       XUAT_BUZZER_RELAY();          
.................... } 
.................... //XXXXXXXXXXXXXXXXXXXXXXXXXXXXXXXXXXXXXXXXXXXX 
....................  
....................  
....................  
....................  
.................... UNSIGNED INT8     j, solan=100;  
.................... unsigned INT16   lm35a, lm35b; 
....................  
.................... void doc_nd_lm35a() 
.................... { 
....................    set_adc_channel (0); lm35a = 0; 
*
024C:  MOVLW  00
024E:  MOVWF  01
0250:  MOVF   FC2,W
0252:  ANDLW  C3
0254:  IORWF  01,W
0256:  MOVWF  FC2
0258:  CLRF   1D
025A:  CLRF   1C
....................    FOR (j = 0; j<solan; j++) 
025C:  CLRF   1A
025E:  MOVF   1B,W
0260:  SUBWF  1A,W
0262:  BC    0280
....................    { 
....................       lm35a = lm35a + read_adc (); 
0264:  BSF    FC2.1
0266:  BTFSC  FC2.1
0268:  BRA    0266
026A:  MOVF   FC3,W
026C:  ADDWF  1C,F
026E:  MOVF   FC4,W
0270:  ADDWFC 1D,F
....................       delay_us (100) ; 
0272:  MOVLW  A6
0274:  MOVWF  00
0276:  DECFSZ 00,F
0278:  BRA    0276
027A:  NOP   
027C:  INCF   1A,F
027E:  BRA    025E
....................    } 
....................  
....................    lm35a = lm35a / 2.046; 
0280:  MOVFF  1D,21
0284:  MOVFF  1C,20
0288:  RCALL  0042
028A:  MOVFF  03,23
028E:  MOVFF  02,22
0292:  MOVFF  01,21
0296:  MOVFF  00,20
029A:  MOVLW  AA
029C:  MOVWF  27
029E:  MOVLW  F1
02A0:  MOVWF  26
02A2:  MOVLW  02
02A4:  MOVWF  25
02A6:  MOVLW  80
02A8:  MOVWF  24
02AA:  RCALL  0078
02AC:  MOVFF  03,23
02B0:  MOVFF  02,22
02B4:  MOVFF  01,21
02B8:  MOVFF  00,20
02BC:  RCALL  01D2
02BE:  MOVFF  02,1D
02C2:  MOVFF  01,1C
....................    lm35a = lm35a / solan; 
02C6:  MOVFF  1D,2A
02CA:  MOVFF  1C,29
02CE:  CLRF   2C
02D0:  MOVFF  1B,2B
02D4:  RCALL  020A
02D6:  MOVFF  02,1D
02DA:  MOVFF  01,1C
02DE:  GOTO   0446 (RETURN)
.................... } 
....................  
.................... void doc_nd_lm35b() 
.................... { 
....................    set_adc_channel (1) ; 
02E2:  MOVLW  04
02E4:  MOVWF  01
02E6:  MOVF   FC2,W
02E8:  ANDLW  C3
02EA:  IORWF  01,W
02EC:  MOVWF  FC2
....................    lm35b = 0; 
02EE:  CLRF   1F
02F0:  CLRF   1E
....................    FOR (j = 0; j<solan; j++) 
02F2:  CLRF   1A
02F4:  MOVF   1B,W
02F6:  SUBWF  1A,W
02F8:  BC    0316
....................    { 
....................       lm35b = lm35b + read_adc (); 
02FA:  BSF    FC2.1
02FC:  BTFSC  FC2.1
02FE:  BRA    02FC
0300:  MOVF   FC3,W
0302:  ADDWF  1E,F
0304:  MOVF   FC4,W
0306:  ADDWFC 1F,F
....................       delay_us (100) ; 
0308:  MOVLW  A6
030A:  MOVWF  00
030C:  DECFSZ 00,F
030E:  BRA    030C
0310:  NOP   
0312:  INCF   1A,F
0314:  BRA    02F4
....................    } 
....................  
....................    lm35b = lm35b / 2.046; 
0316:  MOVFF  1F,21
031A:  MOVFF  1E,20
031E:  RCALL  0042
0320:  MOVFF  03,23
0324:  MOVFF  02,22
0328:  MOVFF  01,21
032C:  MOVFF  00,20
0330:  MOVLW  AA
0332:  MOVWF  27
0334:  MOVLW  F1
0336:  MOVWF  26
0338:  MOVLW  02
033A:  MOVWF  25
033C:  MOVLW  80
033E:  MOVWF  24
0340:  RCALL  0078
0342:  MOVFF  03,23
0346:  MOVFF  02,22
034A:  MOVFF  01,21
034E:  MOVFF  00,20
0352:  RCALL  01D2
0354:  MOVFF  02,1F
0358:  MOVFF  01,1E
....................    lm35b = lm35b / solan; 
035C:  MOVFF  1F,2A
0360:  MOVFF  1E,29
0364:  CLRF   2C
0366:  MOVFF  1B,2B
036A:  RCALL  020A
036C:  MOVFF  02,1F
0370:  MOVFF  01,1E
0374:  GOTO   0448 (RETURN)
.................... } 
....................  
.................... void main() 
*
03FE:  CLRF   FF8
0400:  BCF    FD0.7
0402:  CLRF   06
0404:  CLRF   0D
0406:  CLRF   0E
0408:  CLRF   0F
040A:  CLRF   10
040C:  CLRF   19
040E:  MOVLW  64
0410:  MOVWF  1B
0412:  MOVF   FC1,W
0414:  ANDLW  C0
0416:  IORLW  0F
0418:  MOVWF  FC1
041A:  MOVLW  07
041C:  MOVWF  FB4
041E:  SETF   11
0420:  SETF   12
0422:  SETF   13
0424:  SETF   14
0426:  SETF   15
0428:  SETF   16
042A:  SETF   17
042C:  SETF   18
.................... { 
....................    set_up_port_ic_chot () ; 
042E:  BRA    0024
....................    setup_adc (adc_clock_div_32) ; 
0430:  MOVF   FC0,W
0432:  ANDLW  C0
0434:  IORLW  02
0436:  MOVWF  FC0
0438:  BSF    FC0.7
043A:  BSF    FC2.0
....................    setup_adc_ports (an0_to_an1|vss_vdd) ; 
043C:  MOVF   FC1,W
043E:  ANDLW  C0
0440:  IORLW  0D
0442:  MOVWF  FC1
....................  
....................    WHILE (true) 
....................    { 
....................       doc_nd_lm35a (); 
0444:  BRA    024C
....................       doc_nd_lm35b () ; 
0446:  BRA    02E2
....................       xuat_4led_7doan_4so (ma7doan[lm35b/10%10],ma7doan[lm35b%10],ma7doan[lm35a/10%10], ma7doan[lm35a%10]); 
0448:  MOVFF  1F,2A
044C:  MOVFF  1E,29
0450:  CLRF   2C
0452:  MOVLW  0A
0454:  MOVWF  2B
0456:  RCALL  020A
0458:  MOVFF  02,21
045C:  MOVFF  01,20
0460:  MOVFF  02,2A
0464:  MOVFF  01,29
0468:  CLRF   2C
046A:  MOVLW  0A
046C:  MOVWF  2B
046E:  RCALL  020A
0470:  MOVFF  00,20
0474:  MOVFF  03,21
0478:  MOVFF  03,03
047C:  MOVF   00,W
047E:  MOVFF  FF2,22
0482:  BCF    FF2.7
0484:  RCALL  0004
0486:  BTFSC  22.7
0488:  BSF    FF2.7
048A:  MOVWF  22
048C:  MOVFF  1F,2A
0490:  MOVFF  1E,29
0494:  CLRF   2C
0496:  MOVLW  0A
0498:  MOVWF  2B
049A:  RCALL  020A
049C:  MOVFF  00,23
04A0:  MOVFF  03,24
04A4:  MOVFF  03,03
04A8:  MOVF   00,W
04AA:  MOVFF  FF2,25
04AE:  BCF    FF2.7
04B0:  RCALL  0004
04B2:  BTFSC  25.7
04B4:  BSF    FF2.7
04B6:  MOVWF  25
04B8:  MOVFF  1D,2A
04BC:  MOVFF  1C,29
04C0:  CLRF   2C
04C2:  MOVLW  0A
04C4:  MOVWF  2B
04C6:  RCALL  020A
04C8:  MOVFF  02,27
04CC:  MOVFF  01,26
04D0:  MOVFF  02,2A
04D4:  MOVFF  01,29
04D8:  CLRF   2C
04DA:  MOVLW  0A
04DC:  MOVWF  2B
04DE:  RCALL  020A
04E0:  MOVFF  00,26
04E4:  MOVFF  03,27
04E8:  MOVFF  03,03
04EC:  MOVF   00,W
04EE:  MOVFF  FF2,28
04F2:  BCF    FF2.7
04F4:  RCALL  0004
04F6:  BTFSC  28.7
04F8:  BSF    FF2.7
04FA:  MOVWF  28
04FC:  MOVFF  1D,2A
0500:  MOVFF  1C,29
0504:  CLRF   2C
0506:  MOVLW  0A
0508:  MOVWF  2B
050A:  RCALL  020A
050C:  MOVFF  00,29
0510:  MOVFF  03,2A
0514:  MOVFF  03,03
0518:  MOVF   00,W
051A:  MOVFF  FF2,2B
051E:  BCF    FF2.7
0520:  RCALL  0004
0522:  BTFSC  2B.7
0524:  BSF    FF2.7
0526:  MOVWF  2B
0528:  MOVFF  22,2C
052C:  MOVFF  25,2D
0530:  MOVFF  28,2E
0534:  MOVWF  2F
0536:  BRA    03D2
0538:  BRA    0444
....................    } 
.................... } 
....................  
053A:  SLEEP 

Configuration Fuses:
   Word  1: CC27   PLL12 CPUDIV1 USBDIV HS FCMEN IESO
   Word  2: 1E3E   PUT BROWNOUT BORV21 VREGEN NOWDT WDT32768
   Word  3: 8700   CCP2C1 PBADEN LPT1OSC MCLR
   Word  4: 00A1   STVREN NOLVP ICSP2 NOXINST NODEBUG
   Word  5: C00F   NOPROTECT NOCPB NOCPD
   Word  6: E00F   NOWRT NOWRTC NOWRTB NOWRTD
   Word  7: 400F   NOEBTR NOEBTRB
