CCS PCH C Compiler, Version 5.015, 5967               15-Aug-20 13:06

               Filename:   C:\Users\tsqua\OneDrive - student.mtsac.edu\Desktop\BAI_TAP_VXL_NEW_3\BAI_731_DS18B20A - Do phan thap phan.lst

               ROM used:   3566 bytes (11%)
                           Largest free fragment is 29202
               RAM used:   43 (2%) at main() level
                           69 (3%) worst case
               Stack used: 6 locations
               Stack size: 31

*
0000:  GOTO   0C64
.................... #INCLUDE <TV_PICKIT2_SHIFT_1.c> 
.................... #INCLUDE    <18F4550.H> 
.................... //////////// Standard Header file for the PIC18F4550 device //////////////// 
.................... /////////////////////////////////////////////////////////////////////////// 
.................... ////        (C) Copyright 1996, 2013 Custom Computer Services          //// 
.................... //// This source code may only be used by licensed users of the CCS C  //// 
.................... //// compiler.  This source code may only be distributed to other      //// 
.................... //// licensed users of the CCS C compiler.  No other use, reproduction //// 
.................... //// or distribution is permitted without written permission.          //// 
.................... //// Derivative programs created using this software in object code    //// 
.................... //// form are not restricted in any way.                               //// 
.................... /////////////////////////////////////////////////////////////////////////// 
.................... #device PIC18F4550 
0004:  CLRF   FF7
0006:  ADDLW  14
0008:  MOVWF  FF6
000A:  MOVLW  00
000C:  ADDWFC FF7,F
000E:  TBLRD*+
0010:  MOVF   FF5,W
0012:  RETURN 0
0014:  DATA C0,F9
0016:  DATA A4,B0
0018:  DATA 99,92
001A:  DATA 82,F8
001C:  DATA 80,90
001E:  DATA 88,83
0020:  DATA C6,A1
0022:  DATA 86,8E
0024:  CLRF   FF7
0026:  ADDLW  34
0028:  MOVWF  FF6
002A:  MOVLW  00
002C:  ADDWFC FF7,F
002E:  TBLRD*+
0030:  MOVF   FF5,W
0032:  RETURN 0
0034:  DATA 80,C0
0036:  DATA 94,D4
0038:  DATA 4E,44
003A:  DATA 20,3D
003C:  DATA 20,25
003E:  DATA 2E,32
0040:  DATA 66,20
0042:  DATA 25,33
0044:  DATA 4C,75
0046:  DATA 00,00
*
02CC:  CLRF   01
02CE:  CLRF   02
02D0:  CLRF   00
02D2:  CLRF   03
02D4:  MOVF   2E,W
02D6:  BNZ   02DC
02D8:  MOVF   2D,W
02DA:  BZ    030C
02DC:  MOVLW  10
02DE:  MOVWF  2F
02E0:  BCF    FD8.0
02E2:  RLCF   2B,F
02E4:  RLCF   2C,F
02E6:  RLCF   00,F
02E8:  RLCF   03,F
02EA:  MOVF   2E,W
02EC:  SUBWF  03,W
02EE:  BNZ   02F4
02F0:  MOVF   2D,W
02F2:  SUBWF  00,W
02F4:  BNC   0304
02F6:  MOVF   2D,W
02F8:  SUBWF  00,F
02FA:  BTFSS  FD8.0
02FC:  DECF   03,F
02FE:  MOVF   2E,W
0300:  SUBWF  03,F
0302:  BSF    FD8.0
0304:  RLCF   01,F
0306:  RLCF   02,F
0308:  DECFSZ 2F,F
030A:  BRA    02E0
030C:  RETURN 0
*
04BE:  MOVF   27,W
04C0:  MULWF  29
04C2:  MOVFF  FF3,01
04C6:  MOVFF  FF4,00
04CA:  MULWF  2A
04CC:  MOVF   FF3,W
04CE:  ADDWF  00,F
04D0:  MOVF   28,W
04D2:  MULWF  29
04D4:  MOVF   FF3,W
04D6:  ADDWFC 00,W
04D8:  MOVWF  02
04DA:  GOTO   0570 (RETURN)
04DE:  MOVLW  8E
04E0:  MOVWF  00
04E2:  MOVFF  2A,01
04E6:  MOVFF  29,02
04EA:  CLRF   03
04EC:  MOVF   01,F
04EE:  BNZ   0502
04F0:  MOVFF  02,01
04F4:  CLRF   02
04F6:  MOVLW  08
04F8:  SUBWF  00,F
04FA:  MOVF   01,F
04FC:  BNZ   0502
04FE:  CLRF   00
0500:  BRA    0512
0502:  BCF    FD8.0
0504:  BTFSC  01.7
0506:  BRA    0510
0508:  RLCF   02,F
050A:  RLCF   01,F
050C:  DECF   00,F
050E:  BRA    0502
0510:  BCF    01.7
0512:  RETURN 0
*
05CA:  MOVF   38,W
05CC:  BTFSC  FD8.2
05CE:  BRA    06B2
05D0:  MOVWF  00
05D2:  MOVF   3C,W
05D4:  BTFSC  FD8.2
05D6:  BRA    06B2
05D8:  ADDWF  00,F
05DA:  BNC   05E4
05DC:  MOVLW  81
05DE:  ADDWF  00,F
05E0:  BC    06B2
05E2:  BRA    05EC
05E4:  MOVLW  7F
05E6:  SUBWF  00,F
05E8:  BNC   06B2
05EA:  BZ    06B2
05EC:  MOVFF  39,40
05F0:  MOVF   3D,W
05F2:  XORWF  40,F
05F4:  BSF    39.7
05F6:  BSF    3D.7
05F8:  MOVF   3B,W
05FA:  MULWF  3F
05FC:  MOVFF  FF4,42
0600:  MOVF   3A,W
0602:  MULWF  3E
0604:  MOVFF  FF4,03
0608:  MOVFF  FF3,41
060C:  MULWF  3F
060E:  MOVF   FF3,W
0610:  ADDWF  42,F
0612:  MOVF   FF4,W
0614:  ADDWFC 41,F
0616:  MOVLW  00
0618:  ADDWFC 03,F
061A:  MOVF   3B,W
061C:  MULWF  3E
061E:  MOVF   FF3,W
0620:  ADDWF  42,F
0622:  MOVF   FF4,W
0624:  ADDWFC 41,F
0626:  MOVLW  00
0628:  CLRF   02
062A:  ADDWFC 03,F
062C:  ADDWFC 02,F
062E:  MOVF   39,W
0630:  MULWF  3F
0632:  MOVF   FF3,W
0634:  ADDWF  41,F
0636:  MOVF   FF4,W
0638:  ADDWFC 03,F
063A:  MOVLW  00
063C:  ADDWFC 02,F
063E:  MOVF   39,W
0640:  MULWF  3E
0642:  MOVF   FF3,W
0644:  ADDWF  03,F
0646:  MOVF   FF4,W
0648:  ADDWFC 02,F
064A:  MOVLW  00
064C:  CLRF   01
064E:  ADDWFC 01,F
0650:  MOVF   3B,W
0652:  MULWF  3D
0654:  MOVF   FF3,W
0656:  ADDWF  41,F
0658:  MOVF   FF4,W
065A:  ADDWFC 03,F
065C:  MOVLW  00
065E:  ADDWFC 02,F
0660:  ADDWFC 01,F
0662:  MOVF   3A,W
0664:  MULWF  3D
0666:  MOVF   FF3,W
0668:  ADDWF  03,F
066A:  MOVF   FF4,W
066C:  ADDWFC 02,F
066E:  MOVLW  00
0670:  ADDWFC 01,F
0672:  MOVF   39,W
0674:  MULWF  3D
0676:  MOVF   FF3,W
0678:  ADDWF  02,F
067A:  MOVF   FF4,W
067C:  ADDWFC 01,F
067E:  INCF   00,F
0680:  BTFSC  01.7
0682:  BRA    068E
0684:  RLCF   41,F
0686:  RLCF   03,F
0688:  RLCF   02,F
068A:  RLCF   01,F
068C:  DECF   00,F
068E:  MOVLW  00
0690:  BTFSS  41.7
0692:  BRA    06A8
0694:  INCF   03,F
0696:  ADDWFC 02,F
0698:  ADDWFC 01,F
069A:  MOVF   01,W
069C:  BNZ   06A8
069E:  MOVF   02,W
06A0:  BNZ   06A8
06A2:  MOVF   03,W
06A4:  BNZ   06A8
06A6:  INCF   00,F
06A8:  BTFSC  40.7
06AA:  BSF    01.7
06AC:  BTFSS  40.7
06AE:  BCF    01.7
06B0:  BRA    06BA
06B2:  CLRF   00
06B4:  CLRF   01
06B6:  CLRF   02
06B8:  CLRF   03
06BA:  RETURN 0
06BC:  MOVLW  80
06BE:  BTFSC  FD8.1
06C0:  XORWF  2E,F
06C2:  CLRF   33
06C4:  CLRF   34
06C6:  MOVFF  2A,32
06CA:  MOVF   2E,W
06CC:  XORWF  32,F
06CE:  MOVF   29,W
06D0:  BTFSC  FD8.2
06D2:  BRA    088C
06D4:  MOVWF  31
06D6:  MOVWF  00
06D8:  MOVF   2D,W
06DA:  BTFSC  FD8.2
06DC:  BRA    089E
06DE:  SUBWF  31,F
06E0:  BTFSC  FD8.2
06E2:  BRA    07E6
06E4:  BNC   0760
06E6:  MOVFF  2E,37
06EA:  BSF    37.7
06EC:  MOVFF  2F,36
06F0:  MOVFF  30,35
06F4:  CLRF   34
06F6:  BCF    FD8.0
06F8:  RRCF   37,F
06FA:  RRCF   36,F
06FC:  RRCF   35,F
06FE:  RRCF   34,F
0700:  DECFSZ 31,F
0702:  BRA    06F4
0704:  BTFSS  32.7
0706:  BRA    070E
0708:  BSF    33.0
070A:  BRA    08C6
070C:  BCF    33.0
070E:  BCF    31.0
0710:  BSF    33.4
0712:  CLRF   FEA
0714:  MOVLW  2C
0716:  MOVWF  FE9
0718:  BRA    08EC
071A:  BCF    33.4
071C:  BTFSC  32.7
071E:  BRA    0734
0720:  BTFSS  31.0
0722:  BRA    074A
0724:  RRCF   37,F
0726:  RRCF   36,F
0728:  RRCF   35,F
072A:  RRCF   34,F
072C:  INCF   00,F
072E:  BTFSC  FD8.2
0730:  BRA    08BC
0732:  BRA    074A
0734:  BTFSC  37.7
0736:  BRA    0750
0738:  BCF    FD8.0
073A:  RLCF   34,F
073C:  RLCF   35,F
073E:  RLCF   36,F
0740:  RLCF   37,F
0742:  DECF   00,F
0744:  BTFSC  FD8.2
0746:  BRA    08BC
0748:  BRA    0734
074A:  BSF    33.6
074C:  BRA    0824
074E:  BCF    33.6
0750:  MOVFF  2A,32
0754:  BTFSS  2A.7
0756:  BRA    075C
0758:  BSF    37.7
075A:  BRA    08AE
075C:  BCF    37.7
075E:  BRA    08AE
0760:  MOVFF  2D,31
0764:  MOVFF  2D,00
0768:  MOVF   29,W
076A:  SUBWF  31,F
076C:  MOVFF  2A,37
0770:  BSF    37.7
0772:  MOVFF  2B,36
0776:  MOVFF  2C,35
077A:  CLRF   34
077C:  BCF    FD8.0
077E:  RRCF   37,F
0780:  RRCF   36,F
0782:  RRCF   35,F
0784:  RRCF   34,F
0786:  DECFSZ 31,F
0788:  BRA    077A
078A:  BTFSS  32.7
078C:  BRA    0794
078E:  BSF    33.1
0790:  BRA    08C6
0792:  BCF    33.1
0794:  BCF    31.0
0796:  BSF    33.5
0798:  CLRF   FEA
079A:  MOVLW  30
079C:  MOVWF  FE9
079E:  BRA    08EC
07A0:  BCF    33.5
07A2:  BTFSC  32.7
07A4:  BRA    07BA
07A6:  BTFSS  31.0
07A8:  BRA    07D0
07AA:  RRCF   37,F
07AC:  RRCF   36,F
07AE:  RRCF   35,F
07B0:  RRCF   34,F
07B2:  INCF   00,F
07B4:  BTFSC  FD8.2
07B6:  BRA    08BC
07B8:  BRA    07D0
07BA:  BTFSC  37.7
07BC:  BRA    07D6
07BE:  BCF    FD8.0
07C0:  RLCF   34,F
07C2:  RLCF   35,F
07C4:  RLCF   36,F
07C6:  RLCF   37,F
07C8:  DECF   00,F
07CA:  BTFSC  FD8.2
07CC:  BRA    08BC
07CE:  BRA    07BA
07D0:  BSF    33.7
07D2:  BRA    0824
07D4:  BCF    33.7
07D6:  MOVFF  2E,32
07DA:  BTFSS  2E.7
07DC:  BRA    07E2
07DE:  BSF    37.7
07E0:  BRA    08AE
07E2:  BCF    37.7
07E4:  BRA    08AE
07E6:  MOVFF  2E,37
07EA:  BSF    37.7
07EC:  MOVFF  2F,36
07F0:  MOVFF  30,35
07F4:  BTFSS  32.7
07F6:  BRA    0800
07F8:  BCF    37.7
07FA:  BSF    33.2
07FC:  BRA    08C6
07FE:  BCF    33.2
0800:  CLRF   34
0802:  BCF    31.0
0804:  CLRF   FEA
0806:  MOVLW  2C
0808:  MOVWF  FE9
080A:  BRA    08EC
080C:  BTFSC  32.7
080E:  BRA    0848
0810:  MOVFF  2A,32
0814:  BTFSS  31.0
0816:  BRA    0824
0818:  RRCF   37,F
081A:  RRCF   36,F
081C:  RRCF   35,F
081E:  RRCF   34,F
0820:  INCF   00,F
0822:  BZ    08BC
0824:  BTFSS  34.7
0826:  BRA    083E
0828:  INCF   35,F
082A:  BNZ   083E
082C:  INCF   36,F
082E:  BNZ   083E
0830:  INCF   37,F
0832:  BNZ   083E
0834:  RRCF   37,F
0836:  RRCF   36,F
0838:  RRCF   35,F
083A:  INCF   00,F
083C:  BZ    08BC
083E:  BTFSC  33.6
0840:  BRA    074E
0842:  BTFSC  33.7
0844:  BRA    07D4
0846:  BRA    0880
0848:  MOVLW  80
084A:  XORWF  37,F
084C:  BTFSS  37.7
084E:  BRA    0858
0850:  BRA    08C6
0852:  MOVFF  2E,32
0856:  BRA    086C
0858:  MOVFF  2A,32
085C:  MOVF   37,F
085E:  BNZ   086C
0860:  MOVF   36,F
0862:  BNZ   086C
0864:  MOVF   35,F
0866:  BNZ   086C
0868:  CLRF   00
086A:  BRA    08AE
086C:  BTFSC  37.7
086E:  BRA    0880
0870:  BCF    FD8.0
0872:  RLCF   34,F
0874:  RLCF   35,F
0876:  RLCF   36,F
0878:  RLCF   37,F
087A:  DECFSZ 00,F
087C:  BRA    086C
087E:  BRA    08BC
0880:  BTFSS  32.7
0882:  BRA    0888
0884:  BSF    37.7
0886:  BRA    08AE
0888:  BCF    37.7
088A:  BRA    08AE
088C:  MOVFF  2D,00
0890:  MOVFF  2E,37
0894:  MOVFF  2F,36
0898:  MOVFF  30,35
089C:  BRA    08AE
089E:  MOVFF  29,00
08A2:  MOVFF  2A,37
08A6:  MOVFF  2B,36
08AA:  MOVFF  2C,35
08AE:  MOVFF  37,01
08B2:  MOVFF  36,02
08B6:  MOVFF  35,03
08BA:  BRA    0924
08BC:  CLRF   00
08BE:  CLRF   01
08C0:  CLRF   02
08C2:  CLRF   03
08C4:  BRA    0924
08C6:  CLRF   34
08C8:  COMF   35,F
08CA:  COMF   36,F
08CC:  COMF   37,F
08CE:  COMF   34,F
08D0:  INCF   34,F
08D2:  BNZ   08DE
08D4:  INCF   35,F
08D6:  BNZ   08DE
08D8:  INCF   36,F
08DA:  BNZ   08DE
08DC:  INCF   37,F
08DE:  BTFSC  33.0
08E0:  BRA    070C
08E2:  BTFSC  33.1
08E4:  BRA    0792
08E6:  BTFSC  33.2
08E8:  BRA    07FE
08EA:  BRA    0852
08EC:  MOVF   FEF,W
08EE:  ADDWF  35,F
08F0:  BNC   08FC
08F2:  INCF   36,F
08F4:  BNZ   08FC
08F6:  INCF   37,F
08F8:  BTFSC  FD8.2
08FA:  BSF    31.0
08FC:  MOVF   FED,F
08FE:  MOVF   FEF,W
0900:  ADDWF  36,F
0902:  BNC   090A
0904:  INCF   37,F
0906:  BTFSC  FD8.2
0908:  BSF    31.0
090A:  MOVF   FED,F
090C:  MOVF   FEF,W
090E:  BTFSC  FEF.7
0910:  BRA    0914
0912:  XORLW  80
0914:  ADDWF  37,F
0916:  BTFSC  FD8.0
0918:  BSF    31.0
091A:  BTFSC  33.4
091C:  BRA    071A
091E:  BTFSC  33.5
0920:  BRA    07A0
0922:  BRA    080C
0924:  GOTO   0D74 (RETURN)
*
0940:  TBLRD*+
0942:  MOVFF  FF6,2C
0946:  MOVFF  FF7,2D
094A:  MOVFF  FF5,38
094E:  RCALL  0928
0950:  MOVFF  2C,FF6
0954:  MOVFF  2D,FF7
0958:  DECFSZ 2B,F
095A:  BRA    0940
095C:  GOTO   0DAC (RETURN)
0960:  MOVF   38,W
0962:  SUBLW  B6
0964:  MOVWF  38
0966:  CLRF   03
0968:  MOVFF  39,3C
096C:  BSF    39.7
096E:  BCF    FD8.0
0970:  RRCF   39,F
0972:  RRCF   3A,F
0974:  RRCF   3B,F
0976:  RRCF   03,F
0978:  RRCF   02,F
097A:  RRCF   01,F
097C:  RRCF   00,F
097E:  DECFSZ 38,F
0980:  BRA    096E
0982:  BTFSS  3C.7
0984:  BRA    099C
0986:  COMF   00,F
0988:  COMF   01,F
098A:  COMF   02,F
098C:  COMF   03,F
098E:  INCF   00,F
0990:  BTFSC  FD8.2
0992:  INCF   01,F
0994:  BTFSC  FD8.2
0996:  INCF   02,F
0998:  BTFSC  FD8.2
099A:  INCF   03,F
099C:  GOTO   0A7C (RETURN)
09A0:  BTFSC  FD8.1
09A2:  BRA    09AA
09A4:  CLRF   FEA
09A6:  MOVLW  40
09A8:  MOVWF  FE9
09AA:  CLRF   00
09AC:  CLRF   01
09AE:  CLRF   02
09B0:  CLRF   03
09B2:  CLRF   40
09B4:  CLRF   41
09B6:  CLRF   42
09B8:  CLRF   43
09BA:  MOVF   3F,W
09BC:  IORWF  3E,W
09BE:  IORWF  3D,W
09C0:  IORWF  3C,W
09C2:  BZ    0A1C
09C4:  MOVLW  20
09C6:  MOVWF  44
09C8:  BCF    FD8.0
09CA:  RLCF   38,F
09CC:  RLCF   39,F
09CE:  RLCF   3A,F
09D0:  RLCF   3B,F
09D2:  RLCF   40,F
09D4:  RLCF   41,F
09D6:  RLCF   42,F
09D8:  RLCF   43,F
09DA:  MOVF   3F,W
09DC:  SUBWF  43,W
09DE:  BNZ   09F0
09E0:  MOVF   3E,W
09E2:  SUBWF  42,W
09E4:  BNZ   09F0
09E6:  MOVF   3D,W
09E8:  SUBWF  41,W
09EA:  BNZ   09F0
09EC:  MOVF   3C,W
09EE:  SUBWF  40,W
09F0:  BNC   0A10
09F2:  MOVF   3C,W
09F4:  SUBWF  40,F
09F6:  MOVF   3D,W
09F8:  BTFSS  FD8.0
09FA:  INCFSZ 3D,W
09FC:  SUBWF  41,F
09FE:  MOVF   3E,W
0A00:  BTFSS  FD8.0
0A02:  INCFSZ 3E,W
0A04:  SUBWF  42,F
0A06:  MOVF   3F,W
0A08:  BTFSS  FD8.0
0A0A:  INCFSZ 3F,W
0A0C:  SUBWF  43,F
0A0E:  BSF    FD8.0
0A10:  RLCF   00,F
0A12:  RLCF   01,F
0A14:  RLCF   02,F
0A16:  RLCF   03,F
0A18:  DECFSZ 44,F
0A1A:  BRA    09C8
0A1C:  MOVFF  40,FEF
0A20:  MOVFF  41,FEC
0A24:  MOVFF  42,FEC
0A28:  MOVFF  43,FEC
0A2C:  RETURN 0
0A2E:  MOVF   FE9,W
0A30:  MOVWF  30
0A32:  MOVF   2F,W
0A34:  MOVWF  32
0A36:  BZ    0A6A
0A38:  MOVFF  2E,3B
0A3C:  MOVFF  2D,3A
0A40:  MOVFF  2C,39
0A44:  MOVFF  2B,38
0A48:  CLRF   3F
0A4A:  CLRF   3E
0A4C:  MOVLW  20
0A4E:  MOVWF  3D
0A50:  MOVLW  82
0A52:  MOVWF  3C
0A54:  RCALL  05CA
0A56:  MOVFF  03,2E
0A5A:  MOVFF  02,2D
0A5E:  MOVFF  01,2C
0A62:  MOVFF  00,2B
0A66:  DECFSZ 32,F
0A68:  BRA    0A38
0A6A:  MOVFF  2E,3B
0A6E:  MOVFF  2D,3A
0A72:  MOVFF  2C,39
0A76:  MOVFF  2B,38
0A7A:  BRA    0960
0A7C:  MOVFF  03,2E
0A80:  MOVFF  02,2D
0A84:  MOVFF  01,2C
0A88:  MOVFF  00,2B
0A8C:  BTFSS  2E.7
0A8E:  BRA    0AAA
0A90:  DECF   30,F
0A92:  BSF    30.5
0A94:  COMF   2B,F
0A96:  COMF   2C,F
0A98:  COMF   2D,F
0A9A:  COMF   2E,F
0A9C:  INCF   2B,F
0A9E:  BTFSC  FD8.2
0AA0:  INCF   2C,F
0AA2:  BTFSC  FD8.2
0AA4:  INCF   2D,F
0AA6:  BTFSC  FD8.2
0AA8:  INCF   2E,F
0AAA:  MOVLW  3B
0AAC:  MOVWF  37
0AAE:  MOVLW  9A
0AB0:  MOVWF  36
0AB2:  MOVLW  CA
0AB4:  MOVWF  35
0AB6:  CLRF   34
0AB8:  MOVLW  0A
0ABA:  MOVWF  32
0ABC:  MOVF   2F,W
0ABE:  BTFSC  FD8.2
0AC0:  INCF   30,F
0AC2:  BSF    FD8.1
0AC4:  CLRF   FEA
0AC6:  MOVLW  2B
0AC8:  MOVWF  FE9
0ACA:  MOVFF  2E,3B
0ACE:  MOVFF  2D,3A
0AD2:  MOVFF  2C,39
0AD6:  MOVFF  2B,38
0ADA:  MOVFF  37,3F
0ADE:  MOVFF  36,3E
0AE2:  MOVFF  35,3D
0AE6:  MOVFF  34,3C
0AEA:  RCALL  09A0
0AEC:  MOVF   01,W
0AEE:  MOVF   00,F
0AF0:  BNZ   0B10
0AF2:  INCF   2F,W
0AF4:  SUBWF  32,W
0AF6:  BZ    0B10
0AF8:  MOVF   30,W
0AFA:  BZ    0B14
0AFC:  ANDLW  0F
0AFE:  SUBWF  32,W
0B00:  BZ    0B04
0B02:  BC    0B72
0B04:  BTFSC  30.7
0B06:  BRA    0B72
0B08:  BTFSC  30.6
0B0A:  BRA    0B14
0B0C:  MOVLW  20
0B0E:  BRA    0B6A
0B10:  MOVLW  20
0B12:  ANDWF  30,F
0B14:  BTFSS  30.5
0B16:  BRA    0B30
0B18:  BCF    30.5
0B1A:  MOVF   2F,W
0B1C:  BTFSS  FD8.2
0B1E:  DECF   30,F
0B20:  MOVF   00,W
0B22:  MOVWF  30
0B24:  MOVLW  2D
0B26:  MOVWF  38
0B28:  RCALL  0928
0B2A:  MOVF   30,W
0B2C:  MOVWF  00
0B2E:  CLRF   30
0B30:  MOVF   2F,W
0B32:  SUBWF  32,W
0B34:  BNZ   0B4A
0B36:  MOVF   00,W
0B38:  MOVWF  30
0B3A:  MOVLW  2E
0B3C:  MOVWF  38
0B3E:  RCALL  0928
0B40:  MOVF   30,W
0B42:  MOVWF  00
0B44:  MOVLW  20
0B46:  ANDWF  30,F
0B48:  MOVLW  00
0B4A:  MOVLW  30
0B4C:  BTFSS  30.5
0B4E:  BRA    0B6A
0B50:  BCF    30.5
0B52:  MOVF   2F,W
0B54:  BTFSS  FD8.2
0B56:  DECF   30,F
0B58:  MOVF   00,W
0B5A:  MOVWF  30
0B5C:  MOVLW  2D
0B5E:  MOVWF  38
0B60:  RCALL  0928
0B62:  MOVF   30,W
0B64:  MOVWF  00
0B66:  CLRF   30
0B68:  MOVLW  30
0B6A:  ADDWF  00,F
0B6C:  MOVFF  00,38
0B70:  RCALL  0928
0B72:  BCF    FD8.1
0B74:  MOVFF  37,3B
0B78:  MOVFF  36,3A
0B7C:  MOVFF  35,39
0B80:  MOVFF  34,38
0B84:  CLRF   3F
0B86:  CLRF   3E
0B88:  CLRF   3D
0B8A:  MOVLW  0A
0B8C:  MOVWF  3C
0B8E:  RCALL  09A0
0B90:  MOVFF  03,37
0B94:  MOVFF  02,36
0B98:  MOVFF  01,35
0B9C:  MOVFF  00,34
0BA0:  DECFSZ 32,F
0BA2:  BRA    0AC2
0BA4:  GOTO   0DC6 (RETURN)
0BA8:  MOVFF  FEA,33
0BAC:  MOVFF  FE9,32
0BB0:  SWAPF  2C,W
0BB2:  IORLW  F0
0BB4:  MOVWF  2E
0BB6:  ADDWF  2E,F
0BB8:  ADDLW  E2
0BBA:  MOVWF  2F
0BBC:  ADDLW  32
0BBE:  MOVWF  31
0BC0:  MOVF   2C,W
0BC2:  ANDLW  0F
0BC4:  ADDWF  2F,F
0BC6:  ADDWF  2F,F
0BC8:  ADDWF  31,F
0BCA:  ADDLW  E9
0BCC:  MOVWF  30
0BCE:  ADDWF  30,F
0BD0:  ADDWF  30,F
0BD2:  SWAPF  2B,W
0BD4:  ANDLW  0F
0BD6:  ADDWF  30,F
0BD8:  ADDWF  31,F
0BDA:  RLCF   30,F
0BDC:  RLCF   31,F
0BDE:  COMF   31,F
0BE0:  RLCF   31,F
0BE2:  MOVF   2B,W
0BE4:  ANDLW  0F
0BE6:  ADDWF  31,F
0BE8:  RLCF   2E,F
0BEA:  MOVLW  07
0BEC:  MOVWF  2D
0BEE:  MOVLW  0A
0BF0:  DECF   30,F
0BF2:  ADDWF  31,F
0BF4:  BNC   0BF0
0BF6:  DECF   2F,F
0BF8:  ADDWF  30,F
0BFA:  BNC   0BF6
0BFC:  DECF   2E,F
0BFE:  ADDWF  2F,F
0C00:  BNC   0BFC
0C02:  DECF   2D,F
0C04:  ADDWF  2E,F
0C06:  BNC   0C02
0C08:  CLRF   FEA
0C0A:  MOVLW  2D
0C0C:  MOVWF  FE9
0C0E:  MOVLW  07
0C10:  ANDWF  32,W
0C12:  BCF    32.6
0C14:  ADDWF  FE9,F
0C16:  MOVLW  00
0C18:  ADDWFC FEA,F
0C1A:  MOVF   FE9,W
0C1C:  SUBLW  31
0C1E:  BNZ   0C26
0C20:  MOVF   FEA,F
0C22:  BNZ   0C26
0C24:  BSF    32.6
0C26:  MOVF   FEF,W
0C28:  MOVWF  00
0C2A:  BNZ   0C3C
0C2C:  BTFSC  32.6
0C2E:  BRA    0C3C
0C30:  BTFSC  32.4
0C32:  BRA    0C5A
0C34:  BTFSC  32.3
0C36:  BRA    0C3C
0C38:  MOVLW  20
0C3A:  BRA    0C42
0C3C:  BSF    32.3
0C3E:  BCF    32.4
0C40:  MOVLW  30
0C42:  ADDWF  00,F
0C44:  MOVFF  FEA,2C
0C48:  MOVFF  FE9,2B
0C4C:  MOVFF  00,38
0C50:  RCALL  0928
0C52:  MOVFF  2C,FEA
0C56:  MOVFF  2B,FE9
0C5A:  MOVF   FEE,W
0C5C:  BTFSS  32.6
0C5E:  BRA    0C1A
0C60:  GOTO   0DDA (RETURN)
....................  
.................... #list 
....................  
.................... #DEVICE     ADC=10 
.................... #FUSES      NOWDT,PUT,HS,NOPROTECT,NOLVP,CPUDIV1 
.................... #USE        I2C(MASTER,SLOW,SDA=PIN_B0,SCL=PIN_B1) 
.................... #USE        DELAY(CLOCK=20000000) 
*
012A:  CLRF   FEA
012C:  MOVLW  26
012E:  MOVWF  FE9
0130:  MOVF   FEF,W
0132:  BZ    014E
0134:  MOVLW  06
0136:  MOVWF  01
0138:  CLRF   00
013A:  DECFSZ 00,F
013C:  BRA    013A
013E:  DECFSZ 01,F
0140:  BRA    0138
0142:  MOVLW  7B
0144:  MOVWF  00
0146:  DECFSZ 00,F
0148:  BRA    0146
014A:  DECFSZ FEF,F
014C:  BRA    0134
014E:  RETURN 0
*
0198:  MOVLW  03
019A:  SUBWF  27,F
019C:  BNC   01B0
019E:  CLRF   FEA
01A0:  MOVLW  27
01A2:  MOVWF  FE9
01A4:  MOVF   FEF,W
01A6:  BZ    01B0
01A8:  BRA    01AC
01AA:  BRA    01AC
01AC:  DECFSZ FEF,F
01AE:  BRA    01AA
01B0:  RETURN 0
.................... //#USE        rs232(baud=9600, xmit=PIN_C6,rcv=PIN_C7) 
.................... //NUT NHAN: 
.................... #DEFINE  BT0     PIN_B5 
.................... #DEFINE  BT1     PIN_B4 
.................... #DEFINE  BT2     PIN_B3 
.................... #DEFINE  BT3     PIN_B2 
....................  
.................... #DEFINE  ON      BT0       //DK LED DON, MOTOR 
.................... #DEFINE  OFF     BT1 
.................... #DEFINE  INV     BT2 
....................  
.................... #DEFINE  UP      BT0    //DK LED DON 
.................... #DEFINE  DW      BT1 
.................... #DEFINE  CLR     BT2 
.................... #DEFINE  MOD     BT3 
....................  
.................... #DEFINE  STOP    BT3 
....................  
.................... #DEFINE  ON1     BT0      
.................... #DEFINE  OFF1    BT1 
.................... #DEFINE  ON2     BT2        
.................... #DEFINE  OFF2    BT3 
....................  
....................  
.................... #DEFINE     TRIGGER      PIN_E2 
.................... #DEFINE     ECHO         PIN_E1 
.................... //   IC74138_A    PIN_B6   //OUTPUT GIAI MA 2 SANG 4 TICH CUC MUC 0 
.................... //   IC74138_B    PIN_B7   //OUTPUT GIAI MA 2 SANG 4 TICH CUC MUC 0 
....................  
.................... //          ENCODER  PIN_C0   //RC0/T13CKI 
....................  
.................... //          CB_KC    PIN_A2   //RA2/AN2 
.................... //          PIR      PIN_A3   //RA3/AN3 
.................... //          CBXUNG   PIN_A4   //RA4/T0CKI 
.................... //          LEDTHU   PIN_A4   //RA4/T0CKI//SW802 
....................  
.................... //          CB_KCSA_TRIGGER  PIN_E2   //RE2/SDO  DUNG CHUNG 
.................... //          CB_KCSA_RCHO     PIN_E1   //RE1 
....................  
.................... //          CB_TCS3200_OUT    PIN_E1   //RE1 //CAM BIEN MAU TCS3200 
.................... //          CB_TCS3200_S0     B12      //LAY TU MBI5026 
.................... //          CB_TCS3200_S1     B13      //LAY TU MBI5026 
.................... //          CB_TCS3200_S2     B14      //LAY TU MBI5026 
.................... //          CB_TCS3200_S3     B15      //LAY TU MBI5026 
....................  
.................... //          CB_POWER  SW803 
.................... //          CB_GAS      AIN3_PCF8591T   //RE1 
.................... //          CB_QUANG    AIN2_PCF8591T    
.................... //          CB_LM35B    AIN1_PCF8591T   //RA1/AN1 
.................... //          CB_LM35A    AIN0_PCF8591T   //RE1/AN0 
....................  
.................... //XXXXXXXXXXXXXXXXXXXXXXXXXXXXXXXXXXXXXXXXXXXXXXXXX 
.................... #DEFINE      ENABLE_573A      PIN_D1         //CS0 CUA A 
.................... #DEFINE      ENABLE_573B      PIN_D0         //CS1 CUA B 
.................... //XXXXXXXXXXXXXXXXXXXXXXXXXXXXXXXXXXXXXXXXXXXXXXXXX 
.................... #DEFINE      SSDO             PIN_E2         //CHUNG TAT CA 
.................... #DEFINE      SSCK             PIN_E0         //CHUNG TAT CA 
.................... //XXXXXXXXXXXXXXXXXXXXXXXXXXXXXXXXXXXXXXXXXXXXXXXXX 
.................... #DEFINE      RCK_4LED7DOAN    PIN_D7         //A - 4 BYTE 
.................... #DEFINE      G_4LED7DOAN      PIN_D6         //A - 4 BYTE 
.................... //XXXXXXXXXXXXXXXXXXXXXXXXXXXXXXXXXXXXXXXXXXXX     
.................... #DEFINE      RCK_MATRANLED    PIN_D7         //B - 3 BYTE DAO 
.................... #DEFINE      G_MATRANLED      PIN_D6         //B - 3 BYTE DAO 
.................... //XXXXXXXXXXXXXXXXXXXXXXXXXXXXXXXXXXXXXXXXXXXXXXXXX 
.................... #DEFINE      RCK_32LED        PIN_D5         //A - 4 BYTE 
.................... #DEFINE      G_32LED          PIN_D4         //A - 4 BYTE 
.................... //XXXXXXXXXXXXXXXXXXXXXXXXXXXXXXXXXXXXXXXXXXXX  
.................... #DEFINE      RCK_8LEDQUET     PIN_D5         //B - 2 BYTE DAO 
.................... #DEFINE      G_8LEDQUET       PIN_D4         //B - 2 BYTE DAO 
.................... //XXXXXXXXXXXXXXXXXXXXXXXXXXXXXXXXXXXXXXXXXXXXXXXXX 
.................... #DEFINE      RCK_LCD20X4      PIN_D3         //A - 2 BYTE DAO 
.................... #DEFINE      G_LCD20X4         PIN_D2         //A - 2 BYTE DAO 
.................... //XXXXXXXXXXXXXXXXXXXXXXXXXXXXXXXXXXXXXXXXXXXX  
.................... #DEFINE      RCK_BUZERELAY    PIN_D3     //B - 1 BYTE  
.................... #DEFINE      G_BUZERELAY      PIN_D2         //B - 1 BYTE  
....................  
.................... VOID XUAT_LCD20X4(UNSIGNED INT8 LCD_SIGNAL,LCD_INS_HTHI); 
....................  
.................... VOID XUAT_BUZZER_RELAY(); 
.................... //XXXXXXXXXXXXXXXXXXXXXXXXXXXXXXXXXXXXXXXXXXXX    
.................... #DEFINE     CHOT_2_IC_74573_A_B  OUTPUT_D(0XFC) 
....................  
.................... UNSIGNED INT8 TIN_HIEU_DK_74573_A; 
.................... #BIT G_4A         = TIN_HIEU_DK_74573_A.6 
.................... #BIT G_32A        = TIN_HIEU_DK_74573_A.4 
.................... #BIT G_LCDA       = TIN_HIEU_DK_74573_A.2 
.................... //XXXXXXXXXXXXXXXXXXXXXXXXXXXXXXXXXXXXXXXXXXXX          
.................... #DEFINE     MO_32_LED_DON        G_32A=0; //OUTPUT_LOW(G_32LED)  
.................... #DEFINE     TAT_32_LED_DON       G_32A=1; //OUTPUT_HIGH(G_32LED)  
.................... //XXXXXXXXXXXXXXXXXXXXXXXXXXXXXXXXXXXXXXXXXXXX          
.................... #DEFINE     MO_4_LED_7DOAN       G_4A=0;  //OUTPUT_LOW(G_4LED7DOAN) 
.................... #DEFINE     TAT_4_LED_7DOAN      G_4A=1;  //OUTPUT_HIGH(G_4LED7DOAN) 
.................... //XXXXXXXXXXXXXXXXXXXXXXXXXXXXXXXXXXXXXXXXXXXX  
.................... #DEFINE     MO_GLCD_LCD           G_LCDA=0;   //OUTPUT_LOW(G_LCD20X4) 
.................... #DEFINE     TAT_GLCD_LCD          G_LCDA=1;   // OUTPUT_LOW(G_LCD20X4) 
....................  
.................... UNSIGNED INT8 TIN_HIEU_DK_74573_B;   
.................... #BIT G_MTB        = TIN_HIEU_DK_74573_B.6 
.................... #BIT G_8B         = TIN_HIEU_DK_74573_B.4 
.................... #BIT G_RBDCB      = TIN_HIEU_DK_74573_B.2 
.................... //XXXXXXXXXXXXXXXXXXXXXXXXXXXXXXXXXXXXXXXXXXXX  
.................... #DEFINE     MO_LED_MATRAN        G_MTB=0; //OUTPUT_LOW(G_MATRANLED) 
.................... #DEFINE     TAT_LED_MATRAN       G_MTB=1; //OUTPUT_LOW(G_MATRANLED) 
.................... //XXXXXXXXXXXXXXXXXXXXXXXXXXXXXXXXXXXXXXXXXXXX        
.................... #DEFINE     MO_8_LED_QUET        G_8B=0;  //OUTPUT_LOW(G_8LEDQUET) 
.................... #DEFINE     TAT_8_LED_QUET       G_8B=1;  //OUTPUT_LOW(G_8LEDQUET) 
.................... //XXXXXXXXXXXXXXXXXXXXXXXXXXXXXXXXXXXXXXXXXXXX          
.................... #DEFINE     MO_RELAY_BUZZER_DC   G_RBDCB=0;  //OUTPUT_LOW(G_BUZERELAY) 
.................... #DEFINE     TAT_RELAY_BUZZER_DC  G_RBDCB=1;  //OUTPUT_LOW(G_BUZERELAY) 
....................  
.................... //XXXXXXXXXXXXXXXXXXXXXXXXXXXXXXXXXXXXXXXXXXXX 
.................... //CHUONG TRINH KIEM TRA PHIM BT1 
.................... //XXXXXXXXXXXXXXXXXXXXXXXXXXXXXXXXXXXXXXXXXXXX 
.................... UNSIGNED INT8 DL_BTN=0; 
.................... INT1 PHIM_BT0(UNSIGNED INT16 DL) 
.................... {   
....................     IF (!INPUT(BT0)) 
....................     {   
....................       DL_BTN++; 
....................        
....................       IF (DL_BTN>= DL) 
....................          { 
....................             DL_BTN =0; 
....................             RETURN(1); 
....................          } 
....................       ELSE RETURN(0); 
....................     } 
....................     ELSE    RETURN(0); 
.................... }  
.................... //XXXXXXXXXXXXXXXXXXXXXXXXXXXXXXXXXXXXXXXXXXXX 
.................... //CHUONG TRINH KIEM TRA PHIM BT1 
.................... //XXXXXXXXXXXXXXXXXXXXXXXXXXXXXXXXXXXXXXXXXXXX 
.................... INT1 PHIM_BT1(UNSIGNED INT16 DL ) 
.................... {   
....................     IF (!INPUT(BT1)) 
....................     {   
....................       DL_BTN++; 
....................        
....................       IF (DL_BTN>= DL) 
....................          { 
....................             DL_BTN =0; 
....................             RETURN(1); 
....................          } 
....................       ELSE RETURN(0); 
....................     } 
....................     ELSE    RETURN(0); 
.................... }  
.................... //XXXXXXXXXXXXXXXXXXXXXXXXXXXXXXXXXXXXXXXXXXXX 
.................... //CHUONG TRINH KIEM TRA PHIM BT2       
.................... //XXXXXXXXXXXXXXXXXXXXXXXXXXXXXXXXXXXXXXXXXXXX                                     
.................... INT1 PHIM_BT2(UNSIGNED INT16 DL ) 
.................... {                                         
....................     IF (!INPUT(BT2)) 
....................     {   
....................       DL_BTN++; 
....................        
....................       IF (DL_BTN>= DL) 
....................          { 
....................             DL_BTN =0; 
....................             RETURN(1); 
....................          } 
....................       ELSE RETURN(0); 
....................     } 
....................     ELSE    RETURN(0); 
....................                                           
.................... }       
....................  
.................... //XXXXXXXXXXXXXXXXXXXXXXXXXXXXXXXXXXXXXXXXXXXX 
.................... //CHUONG TRINH KIEM TRA PHIM BT3 
.................... //XXXXXXXXXXXXXXXXXXXXXXXXXXXXXXXXXXXXXXXXXXXX 
.................... INT1 PHIM_BT3(UNSIGNED INT16 DL,  UNSIGNED INT8 SOLAN  ) 
.................... {   
....................     IF (!INPUT(BT3)) 
....................     {   
....................       DL_BTN++; 
....................       IF(DL_BTN==1) RETURN(1); 
....................       ELSE 
....................       { 
....................          IF (DL_BTN>= DL) 
....................          DL_BTN =SOLAN; 
....................       } 
....................     } 
....................     ELSE    
....................     { 
....................       //DL_BTN =0; 
....................       RETURN(0); 
....................     } 
.................... }  
.................... //XXXXXXXXXXXXXXXXXXXXXXXXXXXXXXXXXXXXXXXXXXXX 
.................... //KHAI BAO DU LIEU 16 BIT CHO MODULE RELAY, TRIAC, BUZZER, DONG CO 
.................... //XXXXXXXXXXXXXXXXXXXXXXXXXXXXXXXXXXXXXXXXXXXX 
.................... UNSIGNED INT16 RBDC; 
.................... #BIT STEP_MOTOR_ENABLE  = RBDC.0    //1=ENA,0=DIS 
.................... #BIT STEP_MOTOR_IN1     = RBDC.1     
.................... #BIT STEP_MOTOR_IN2     = RBDC.2 
.................... #BIT STEP_MOTOR_IN3     = RBDC.3 
.................... #BIT STEP_MOTOR_IN4     = RBDC.4 
.................... #BIT DC_ENABLE          = RBDC.5    //1=ENA,0=DIS 
.................... #BIT PWRKEY             = RBDC.6    //KHOI TAO SIM900 
....................  
.................... #BIT BUZZER             = RBDC.8    //1=ON,0=OFF 
.................... #BIT TRIAC_1            = RBDC.9    //1=ON,0=OFF 
.................... #BIT TRIAC_2            = RBDC.10   //1=ON,0=OFF 
.................... #BIT RELAY_1            = RBDC.11   //0=ON,1=OFF 
.................... #BIT RELAY_2            = RBDC.12   //0=ON,1=OFF 
....................  
.................... //HAM 103 
.................... //XXXXXXXXXXXXXXXXXXXXXXXXXXXXXXXXXXXXXXXXXXXX 
.................... //CHUONG TRINH CON KHOI TAO IC CHOT 
.................... //XXXXXXXXXXXXXXXXXXXXXXXXXXXXXXXXXXXXXXXXXXXX          
.................... #DEFINE     CHO_IC_74573_A_GOI_DU_LIEU     OUTPUT_HIGH(ENABLE_573A) 
.................... #DEFINE     CHOT_IC_74573_A_GOI_DU_LIEU    OUTPUT_LOW(ENABLE_573A) 
....................  
.................... #DEFINE     CHO_IC_74573_B_GOI_DU_LIEU     OUTPUT_HIGH(ENABLE_573B) 
.................... #DEFINE     CHOT_IC_74573_B_GOI_DU_LIEU    OUTPUT_LOW(ENABLE_573B) 
.................... VOID MO_IC_74573_A_THONG_DL(); 
....................  
.................... //XXXXXXXXXXXXXXXXXXXXXXXXXXXXXXXXXXXXXXXXXXXX    
.................... CONST UNSIGNED CHAR MA7DOAN[16]= {0XC0,0XF9,0xA4,0XB0,0X99,0X92,0X82,0XF8, 
.................... 0X80,0X90,0x88, 0x83, 0xC6, 0xA1, 0x86, 0x8E}; 
.................... #DEFINE     MASO0    0XC0 
.................... #DEFINE     MASO1    0XF9 
.................... #DEFINE     MASO2    0XA4 
.................... #DEFINE     MASO3    0XB0 
.................... #DEFINE     MASO4    0X99 
.................... #DEFINE     MASO5    0X92 
.................... #DEFINE     MASO6    0X82 
.................... #DEFINE     MASO7    0XF8 
....................  
.................... //XXXXXXXXXXXXXXXXXXXXXXXXXXXXXXXXXXXXXXXXXXXX  
.................... //HAM 102 
.................... //XXXXXXXXXXXXXXXXXXXXXXXXXXXXXXXXXXXXXXXXXXXX     
.................... //XUAT 1 BYTE RA THANH GHI DICH 
.................... //XXXXXXXXXXXXXXXXXXXXXXXXXXXXXXXXXXXXXXXXXXXX     
.................... VOID XUAT_1BYTE(UNSIGNED INT8 BYTEXUAT) 
.................... { 
....................    UNSIGNED INT8   SB,X;    
....................    #BIT BSERI  = X.7 
....................    X = BYTEXUAT; 
*
0066:  MOVFF  3C,3E
....................    FOR (SB=0;SB<8;SB++) 
006A:  CLRF   3D
006C:  MOVF   3D,W
006E:  SUBLW  07
0070:  BNC   008E
....................       {                                                  
....................          OUTPUT_BIT(SSDO,BSERI);     
0072:  BTFSC  3E.7
0074:  BRA    007A
0076:  BCF    F8D.2
0078:  BRA    007C
007A:  BSF    F8D.2
007C:  BCF    F96.2
....................          OUTPUT_LOW(SSCK); OUTPUT_HIGH(SSCK); 
007E:  BCF    F96.0
0080:  BCF    F8D.0
0082:  BCF    F96.0
0084:  BSF    F8D.0
....................          X= X<<1;          
0086:  BCF    FD8.0
0088:  RLCF   3E,F
008A:  INCF   3D,F
008C:  BRA    006C
....................      } 
008E:  RETURN 0
.................... } 
.................... //XXXXXXXXXXXXXXXXXXXXXXXXXXXXXXXXXXXXXXXXXXXX  
.................... //HAM 301 
.................... //XXXXXXXXXXXXXXXXXXXXXXXXXXXXXXXXXXXXXXXXXXXX 
.................... //CHUONG TRINH CON XUAT 4 BYTE RA 32 LED DON 
.................... //XXXXXXXXXXXXXXXXXXXXXXXXXXXXXXXXXXXXXXXXXXXX 
.................... VOID XUAT_32LED_DON_4BYTE(UNSIGNED INT8 BLD3,BLD2,BLD1,BLD0) 
.................... {      
....................       XUAT_1BYTE(BLD3);           
....................       XUAT_1BYTE(BLD2); 
....................       XUAT_1BYTE(BLD1);           
....................       XUAT_1BYTE(BLD0);             
....................       MO_32_LED_DON;       
....................       MO_IC_74573_A_THONG_DL();             
....................       OUTPUT_HIGH(RCK_32LED);    OUTPUT_LOW(RCK_32LED); 
....................       CHOT_IC_74573_A_GOI_DU_LIEU;       
.................... } 
.................... //HAM 302 
.................... //XXXXXXXXXXXXXXXXXXXXXXXXXXXXXXXXXXXXXXXXXXXX 
.................... //CHUONG TRINH CON XUAT 2 WORD 16 BITRA 32 LED DON 
.................... //XXXXXXXXXXXXXXXXXXXXXXXXXXXXXXXXXXXXXXXXXXXX 
.................... VOID XUAT_32LED_DON_2WORD(UNSIGNED INT16 WLD1, UNSIGNED INT16 WLD0) 
.................... {      
....................      UNSIGNED INT8  B3,B2,B1,B0; 
....................      B3 = WLD1>>8;  B2 = WLD1;  
....................      B1 = WLD0>>8;  B0 = WLD0; 
....................      XUAT_32LED_DON_4BYTE(B3,B2,B1,B0); 
.................... } 
.................... //HAM 303 
.................... //XXXXXXXXXXXXXXXXXXXXXXXXXXXXXXXXXXXXXXXXXXXX 
.................... //CHUONG TRINH CON XUAT 1 DOUBLE WORD RA 32 LED DON 
.................... //XXXXXXXXXXXXXXXXXXXXXXXXXXXXXXXXXXXXXXXXXXXX 
.................... VOID XUAT_32LED_DON_1DW(UNSIGNED LONG LONG DWLD) 
.................... {      
....................      UNSIGNED INT16  WD1,WD0; 
....................      WD1 = DWLD>>16;  WD0 = DWLD; 
....................      XUAT_32LED_DON_2WORD(WD1,WD0); 
.................... } 
....................  
.................... //HAM 304 
.................... //XXXXXXXXXXXXXXXXXXXXXXXXXXXXXXXXXXXXXXXXXXXX 
.................... //CHUONG TRINH CON MO 32 LED DON SANG 
.................... //XXXXXXXXXXXXXXXXXXXXXXXXXXXXXXXXXXXXXXXXXXXX 
.................... VOID MO_32LED_DON() 
.................... {         
....................      XUAT_32LED_DON_1DW(0XFFFFFFFF); 
.................... } 
.................... //HAM 305 
.................... //XXXXXXXXXXXXXXXXXXXXXXXXXXXXXXXXXXXXXXXXXXXX 
.................... //CHUONG TRINH CON TAT 32 LED DON  
.................... //XXXXXXXXXXXXXXXXXXXXXXXXXXXXXXXXXXXXXXXXXXXX 
.................... VOID TAT_32LED_DON() 
.................... {         
....................      XUAT_32LED_DON_1DW(0); 
.................... } 
.................... //XXXXXXXXXXXXXXXXXXXXXXXXXXXXXXXXXXXXXXXXXXXX     
.................... //XUAT 1 BIT ROI TRA LAI KET QUA SAU KHI DICH DI 1 BIT 
.................... //XXXXXXXXXXXXXXXXXXXXXXXXXXXXXXXXXXXXXXXXXXXX     
.................... UNSIGNED  INT8 XUAT_1BIT(UNSIGNED INT8 BYTEXUAT) 
.................... { 
....................       UNSIGNED INT8   XBITX;    
....................       #BIT BSERIX  = XBITX.0 
....................       XBITX = BYTEXUAT; 
....................                                              
....................       OUTPUT_BIT(SSDO,BSERIX);     
....................       OUTPUT_LOW(SSCK); OUTPUT_HIGH(SSCK); 
....................       XBITX= XBITX>>1;    
....................       RETURN(XBITX);   
.................... } 
.................... //XXXXXXXXXXXXXXXXXXXXXXXXXXXXXXXXXXXXXXXXXXXX  
.................... //HAM 101 
.................... //XXXXXXXXXXXXXXXXXXXXXXXXXXXXXXXXXXXXXXXXXXXX     
.................... //HAM KHOI TAO CAC PORT VA IC CHOT 
.................... //XXXXXXXXXXXXXXXXXXXXXXXXXXXXXXXXXXXXXXXXXXXX     
.................... VOID SET_UP_PORT_IC_CHOT() 
.................... {      
....................       SET_TRIS_D(0x00);     
*
0048:  MOVLW  00
004A:  MOVWF  F95
....................       SET_TRIS_E(0X00); 
004C:  MOVWF  F96
....................       OUTPUT_D(0XFF); 
004E:  CLRF   F95
0050:  SETF   F8C
....................       TIN_HIEU_DK_74573_A=0XFF;   
0052:  SETF   04
....................       TIN_HIEU_DK_74573_B=0XFF;       
0054:  SETF   05
....................       CHOT_IC_74573_A_GOI_DU_LIEU; 
0056:  BCF    F95.1
0058:  BCF    F8C.1
....................       CHOT_IC_74573_B_GOI_DU_LIEU;   
005A:  BCF    F95.0
005C:  BCF    F8C.0
....................       RBDC=0; 
005E:  CLRF   08
0060:  CLRF   07
0062:  GOTO   0C94 (RETURN)
.................... } 
.................... //HAM 104 
.................... //XXXXXXXXXXXXXXXXXXXXXXXXXXXXXXXXXXXXXXXXXXXX     
.................... //XUAT CÁC THIEU DIEU KHIEN  
.................... //GIU NGUYEN CAC TRANG THAI CUA 2 MODULE KHAC 
.................... //XXXXXXXXXXXXXXXXXXXXXXXXXXXXXXXXXXXXXXXXXXXX     
.................... VOID MO_IC_74573_A_THONG_DL() 
.................... {      
....................       OUTPUT_D(0X00); 
*
0090:  CLRF   F95
0092:  CLRF   F8C
....................       OUTPUT_BIT(G_32LED,G_32A); 
0094:  BTFSC  04.4
0096:  BRA    009C
0098:  BCF    F8C.4
009A:  BRA    009E
009C:  BSF    F8C.4
009E:  BCF    F95.4
....................       OUTPUT_BIT(G_4LED7DOAN,G_4A); 
00A0:  BTFSC  04.6
00A2:  BRA    00A8
00A4:  BCF    F8C.6
00A6:  BRA    00AA
00A8:  BSF    F8C.6
00AA:  BCF    F95.6
....................       OUTPUT_BIT(G_LCD20X4,G_LCDA);   
00AC:  BTFSC  04.2
00AE:  BRA    00B4
00B0:  BCF    F8C.2
00B2:  BRA    00B6
00B4:  BSF    F8C.2
00B6:  BCF    F95.2
....................       CHO_IC_74573_A_GOI_DU_LIEU; 
00B8:  BCF    F95.1
00BA:  BSF    F8C.1
00BC:  RETURN 0
.................... } 
.................... VOID MO_IC_74573_B_THONG_DL() 
.................... {      
....................       OUTPUT_D(0X00); 
....................       OUTPUT_BIT(G_MATRANLED,G_MTB); 
....................       OUTPUT_BIT(G_8LEDQUET,G_8B); 
....................       OUTPUT_BIT(G_BUZERELAY,G_RBDCB);  
....................       CHO_IC_74573_B_GOI_DU_LIEU; 
.................... } 
.................... //ham 401 
.................... //XXXXXXXXXXXXXXXXXXXXXXXXXXXXXXXXXXXXXXXXXXXX 
.................... //CHUONG TRINH CON XUAT 4 BYTE RA 4 LED 7 DOAN 
.................... //XXXXXXXXXXXXXXXXXXXXXXXXXXXXXXXXXXXXXXXXXXXX 
.................... VOID XUAT_4LED_7DOAN_4SO(UNSIGNED INT BL743,BL742,BL741,BL740) 
.................... {      
....................       XUAT_1BYTE(BL740);   XUAT_1BYTE(BL741); 
*
030E:  MOVFF  2C,3C
0312:  RCALL  0066
0314:  MOVFF  2B,3C
0318:  RCALL  0066
....................       XUAT_1BYTE(BL742);   XUAT_1BYTE(BL743); 
031A:  MOVFF  2A,3C
031E:  RCALL  0066
0320:  MOVFF  29,3C
0324:  RCALL  0066
....................        
....................       MO_4_LED_7DOAN; 
0326:  BCF    04.6
....................       MO_IC_74573_A_THONG_DL(); 
0328:  RCALL  0090
....................         
....................       OUTPUT_LOW(RCK_4LED7DOAN);   OUTPUT_HIGH(RCK_4LED7DOAN);  
032A:  BCF    F95.7
032C:  BCF    F8C.7
032E:  BCF    F95.7
0330:  BSF    F8C.7
....................       CHOT_IC_74573_A_GOI_DU_LIEU; 
0332:  BCF    F95.1
0334:  BCF    F8C.1
0336:  GOTO   045E (RETURN)
.................... } 
.................... //ham 404 
.................... VOID XUAT_4LED_7DOAN_3SO(UNSIGNED INT BL742,BL741,BL740) 
.................... {      
....................      XUAT_4LED_7DOAN_4SO(0XFF,BL742,BL741,BL740); 
.................... } 
.................... //ham 403 
.................... VOID XUAT_4LED_7DOAN_2SO(UNSIGNED INT BL741,BL740) 
.................... {      
....................      XUAT_4LED_7DOAN_4SO(0XFF,0XFF,BL741,BL740); 
.................... } 
.................... //ham 402 
.................... VOID XUAT_4LED_7DOAN_1SO(UNSIGNED INT BL740) 
.................... {      
....................      XUAT_4LED_7DOAN_4SO(0XFF,0XFF,0XFF,BL740); 
.................... } 
....................  
.................... //ham 405 
.................... //XXXXXXXXXXXXXXXXXXXXXXXXXXXXXXXXXXXXXXXXXXXXXXXXXXXXXXXXXXXXX 
.................... //CHUONG TRINH CON HIEN THI DU LIEU 16 BIT TREN 4 LED 7 DOAN 
.................... //XXXXXXXXXXXXXXXXXXXXXXXXXXXXXXXXXXXXXXXXXXXXXXXXXXXXXXXXXXXXX 
.................... UNSIGNED CHAR DONVI4,CHUC4,TRAM4,NGAN4; 
.................... VOID  XUAT_4LED_7DOAN_GIAIMA_XOA_SO0 (UNSIGNED INT16 TAM) 
.................... {          
....................       DONVI4 = MA7DOAN[TAM %10];          
033A:  MOVFF  28,2C
033E:  MOVFF  27,2B
0342:  CLRF   2E
0344:  MOVLW  0A
0346:  MOVWF  2D
0348:  RCALL  02CC
034A:  MOVFF  00,29
034E:  MOVFF  03,2A
0352:  MOVFF  03,03
0356:  MOVF   00,W
0358:  MOVFF  FF2,2B
035C:  BCF    FF2.7
035E:  RCALL  0004
0360:  BTFSC  2B.7
0362:  BSF    FF2.7
0364:  MOVWF  09
....................       CHUC4  = MA7DOAN[TAM/10%10]; 
0366:  MOVFF  28,2C
036A:  MOVFF  27,2B
036E:  CLRF   2E
0370:  MOVLW  0A
0372:  MOVWF  2D
0374:  RCALL  02CC
0376:  MOVFF  02,2A
037A:  MOVFF  01,29
037E:  MOVFF  02,2C
0382:  MOVFF  01,2B
0386:  CLRF   2E
0388:  MOVLW  0A
038A:  MOVWF  2D
038C:  RCALL  02CC
038E:  MOVFF  00,29
0392:  MOVFF  03,2A
0396:  MOVFF  03,03
039A:  MOVF   00,W
039C:  MOVFF  FF2,2B
03A0:  BCF    FF2.7
03A2:  RCALL  0004
03A4:  BTFSC  2B.7
03A6:  BSF    FF2.7
03A8:  MOVWF  0A
....................       TRAM4  = MA7DOAN[TAM/100%10];  
03AA:  MOVFF  28,2C
03AE:  MOVFF  27,2B
03B2:  CLRF   2E
03B4:  MOVLW  64
03B6:  MOVWF  2D
03B8:  RCALL  02CC
03BA:  MOVFF  02,2A
03BE:  MOVFF  01,29
03C2:  MOVFF  02,2C
03C6:  MOVFF  01,2B
03CA:  CLRF   2E
03CC:  MOVLW  0A
03CE:  MOVWF  2D
03D0:  RCALL  02CC
03D2:  MOVFF  00,29
03D6:  MOVFF  03,2A
03DA:  MOVFF  03,03
03DE:  MOVF   00,W
03E0:  MOVFF  FF2,2B
03E4:  BCF    FF2.7
03E6:  RCALL  0004
03E8:  BTFSC  2B.7
03EA:  BSF    FF2.7
03EC:  MOVWF  0B
....................       NGAN4  = MA7DOAN[TAM/1000%10];        
03EE:  MOVFF  28,2C
03F2:  MOVFF  27,2B
03F6:  MOVLW  03
03F8:  MOVWF  2E
03FA:  MOVLW  E8
03FC:  MOVWF  2D
03FE:  RCALL  02CC
0400:  MOVFF  02,2A
0404:  MOVFF  01,29
0408:  MOVFF  02,2C
040C:  MOVFF  01,2B
0410:  CLRF   2E
0412:  MOVLW  0A
0414:  MOVWF  2D
0416:  RCALL  02CC
0418:  MOVFF  00,29
041C:  MOVFF  03,2A
0420:  MOVFF  03,03
0424:  MOVF   00,W
0426:  MOVFF  FF2,2B
042A:  BCF    FF2.7
042C:  RCALL  0004
042E:  BTFSC  2B.7
0430:  BSF    FF2.7
0432:  MOVWF  0C
....................       IF (NGAN4==0XC0) 
0434:  MOVF   0C,W
0436:  SUBLW  C0
0438:  BNZ   044C
....................       { 
....................          NGAN4=0XFF; 
043A:  SETF   0C
....................          IF (TRAM4==0XC0) 
043C:  MOVF   0B,W
043E:  SUBLW  C0
0440:  BNZ   044C
....................          { 
....................             TRAM4=0XFF; 
0442:  SETF   0B
....................             IF (CHUC4==0XC0)   CHUC4=0XFF; 
0444:  MOVF   0A,W
0446:  SUBLW  C0
0448:  BNZ   044C
044A:  SETF   0A
....................          } 
....................       } 
....................       XUAT_4LED_7DOAN_4SO(NGAN4,TRAM4,CHUC4,DONVI4);    
044C:  MOVFF  0C,29
0450:  MOVFF  0B,2A
0454:  MOVFF  0A,2B
0458:  MOVFF  09,2C
045C:  BRA    030E
045E:  RETURN 0
.................... } 
.................... UNSIGNED INT8 LCDDATA=0;  
.................... UNSIGNED INT8 LCDCONTROL=0; 
.................... UNSIGNED INT8 GLCDDATA=0; 
.................... UNSIGNED INT8 GLCDCONTROL=0;  
.................... //HAM 701 
.................... //XXXXXXXXXXXXXXXXXXXXXXXXXXXXXXXXXXXXXXXXXXXXXXXXXXXXXXXXXXXXX 
.................... //CHUONG TRINH CON XUAT DU LIEU 4 BYTE RA GLCD VA LCD 
.................... //XXXXXXXXXXXXXXXXXXXXXXXXXXXXXXXXXXXXXXXXXXXXXXXXXXXXXXXXXXXXX 
.................... VOID XUAT_GLCD_LCD() 
.................... {       
....................     XUAT_1BYTE(GLCDCONTROL);              
*
00BE:  MOVFF  10,3C
00C2:  RCALL  0066
....................     XUAT_1BYTE(GLCDDATA); 
00C4:  MOVFF  0F,3C
00C8:  RCALL  0066
....................     XUAT_1BYTE(LCDCONTROL);        
00CA:  MOVFF  0E,3C
00CE:  RCALL  0066
....................     XUAT_1BYTE(LCDDATA);       
00D0:  MOVFF  0D,3C
00D4:  RCALL  0066
....................        
....................     MO_GLCD_LCD; 
00D6:  BCF    04.2
....................     MO_IC_74573_A_THONG_DL();             
00D8:  RCALL  0090
....................     OUTPUT_HIGH(RCK_LCD20X4);      
00DA:  BCF    F95.3
00DC:  BSF    F8C.3
....................     OUTPUT_LOW(RCK_LCD20X4); 
00DE:  BCF    F95.3
00E0:  BCF    F8C.3
....................     CHOT_IC_74573_A_GOI_DU_LIEU; 
00E2:  BCF    F95.1
00E4:  BCF    F8C.1
00E6:  GOTO   00F8 (RETURN)
.................... } 
.................... //HAM 702 
.................... VOID XUAT_LCD20X4(UNSIGNED INT8 LCD_SIGNAL,LCD_INS_HTHI) 
.................... {      
....................     LCDCONTROL = ~LCD_SIGNAL; 
00EA:  MOVF   3A,W
00EC:  MOVWF  0E
00EE:  COMF   0E,F
....................     LCDDATA    = ~LCD_INS_HTHI;       
00F0:  MOVFF  3B,0D
00F4:  COMF   0D,F
....................     XUAT_GLCD_LCD(); 
00F6:  BRA    00BE
00F8:  RETURN 0
.................... } 
.................... //HAM 703 
.................... VOID XUAT_GLCD128X64(UNSIGNED INT8 GLCD_SIGNAL,GLCD_INS_HTHI) 
.................... {      
....................     GLCDCONTROL = ~GLCD_SIGNAL; 
....................     GLCDDATA    = ~GLCD_INS_HTHI;      
....................     XUAT_GLCD_LCD(); 
.................... } 
.................... //HAM 501 
.................... //XXXXXXXXXXXXXXXXXXXXXXXXXXXXXXXXXXXXXXXXXXXX 
.................... //CHUONG TRINH CON XUAT 2 BYTE RA DK 1 LED QUET SANG 
.................... //XXXXXXXXXXXXXXXXXXXXXXXXXXXXXXXXXXXXXXXXXXXX 
.................... VOID XUAT_8LED_7DOAN_QUET_1(UNSIGNED INT MA,SO_HTHI) 
.................... {      
....................       XUAT_1BYTE(~MA);   XUAT_1BYTE(~SO_HTHI); 
....................        
....................       MO_8_LED_QUET; 
....................       MO_IC_74573_B_THONG_DL(); 
....................        
....................       OUTPUT_HIGH(RCK_8LEDQUET); OUTPUT_LOW(RCK_8LEDQUET); 
....................       CHOT_IC_74573_B_GOI_DU_LIEU; 
.................... } 
.................... //HAM 502 
.................... //XXXXXXXXXXXXXXXXXXXXXXXXXXXXXXXXXXXXXXXXXXXX 
.................... //CHUONG TRINH CON XUAT 2 BYTE RA TAT 8 LED QUET 
.................... //XXXXXXXXXXXXXXXXXXXXXXXXXXXXXXXXXXXXXXXXXXXX 
.................... VOID XUAT_8LED_7DOAN_QUET_TAT_LED() 
.................... { 
....................    XUAT_8LED_7DOAN_QUET_1(0XFF,0XFF); 
.................... } 
.................... //HAM 503 
.................... //XXXXXXXXXXXXXXXXXXXXXXXXXXXXXXXXXXXXXXXXXXXX 
.................... //CHUONG TRINH CON HIEN THI LED THEO THU TU 
.................... //XXXXXXXXXXXXXXXXXXXXXXXXXXXXXXXXXXXXXXXXXXXX 
.................... CONST UNSIGNED CHAR TTLEDQUET[8]= {0x7F,0xBF,0xDF,0xEF,0xF7,0xFB,0xFD,0xFE}; 
.................... VOID XUAT_8LED_7DOAN_QUET_2(UNSIGNED INT THUTULED,SO_HTHI) 
.................... {          
....................       XUAT_1BYTE(~ (TTLEDQUET[THUTULED]));   XUAT_1BYTE(~SO_HTHI);      
....................       MO_8_LED_QUET; 
....................       MO_IC_74573_B_THONG_DL(); 
....................       OUTPUT_HIGH(RCK_8LEDQUET); OUTPUT_LOW(RCK_8LEDQUET); 
....................       CHOT_IC_74573_B_GOI_DU_LIEU; 
.................... } 
.................... //HAM 504 
.................... //XXXXXXXXXXXXXXXXXXXXXXXXXXXXXXXXXXXXXXXXXXXX 
.................... //CHUONG TRINH CON HIEN THI 8 SO TREN 8 LED QUET - CO KIEM TRA 
.................... //XXXXXXXXXXXXXXXXXXXXXXXXXXXXXXXXXXXXXXXXXXXX 
.................... UNSIGNED INT8 LED_7DQ[8]={0XFF,0XFF,0XFF,0XFF,0XFF,0XFF,0XFF,0XFF}; 
.................... UNSIGNED INT8 TT8LED=0; 
.................... VOID HIEN_THI_8LED_7DOAN_QUET() 
.................... {      
....................       FOR(TT8LED=0;TT8LED<8;TT8LED++) 
....................          IF (LED_7DQ[TT8LED]!=0XFF) 
....................          {            
....................             XUAT_8LED_7DOAN_QUET_2(TT8LED, LED_7DQ[TT8LED]); 
....................             DELAY_US(100); 
....................             XUAT_8LED_7DOAN_QUET_TAT_LED();            
....................             } 
.................... } 
.................... //HAM 505 
.................... //XXXXXXXXXXXXXXXXXXXXXXXXXXXXXXXXXXXXXXXXXXXX 
.................... //CHUONG TRINH CON HIEN THI 8 SO TREN 8 LED QUET - KHONG KIEM TRA 
.................... //XXXXXXXXXXXXXXXXXXXXXXXXXXXXXXXXXXXXXXXXXXXX 
.................... VOID HIEN_THI_8LED_7DOAN_QUET_ALL() 
.................... {      
....................       FOR(TT8LED=0;TT8LED<8;TT8LED++)          
....................          {            
....................             XUAT_8LED_7DOAN_QUET_2(TT8LED, LED_7DQ[TT8LED]); 
....................             DELAY_US(100); 
....................             XUAT_8LED_7DOAN_QUET_TAT_LED();            
....................             } 
.................... } 
....................  
.................... VOID DELAY_QUET_8LED(UNSIGNED INT16 DL) 
.................... {  
....................       UNSIGNED INT8 I; 
....................       FOR (I=0; I<DL;I++) 
....................       HIEN_THI_8LED_7DOAN_QUET_ALL(); 
.................... }  
....................  
.................... VOID GIAI_MA_GAN_CHO_8LED_QUET_16_XOA(UNSIGNED INT16 X) 
.................... {      
....................       LED_7DQ[0]= MA7DOAN [X %10];     
....................       LED_7DQ[1]= MA7DOAN [X/10%10]; 
....................       LED_7DQ[2]= MA7DOAN [X/100%10];     
....................       LED_7DQ[3]= MA7DOAN [X/1000%10]; 
....................       LED_7DQ[4]= MA7DOAN [X/10000%10]; 
....................       IF (LED_7DQ[4]==MASO0)  
....................       { 
....................             LED_7DQ[4]=0XFF; 
....................             IF (LED_7DQ[3]==MASO0)  
....................             { 
....................                LED_7DQ[3]=0XFF; 
....................                IF (LED_7DQ[2]==MASO0)  
....................                { 
....................                   LED_7DQ[2]=0XFF; 
....................                   IF (LED_7DQ[1]==MASO0)  
....................                   { 
....................                      LED_7DQ[1]=0XFF; 
....................                   } 
....................                } 
....................             } 
....................       } 
....................              
.................... } 
.................... //XXXXXXXXXXXXXXXXXXXXXXXXXXXXXXXXXXXXXXXXXXXX          
.................... VOID XUAT_2BYTE(UNSIGNED INT16 BYTE2XUAT) 
.................... { 
....................    INT8 SBB; 
....................    UNSIGNED INT16   XX;   //SHORT  BSERI; 
....................    #BIT BSERIX  = XX.15 
....................    XX = BYTE2XUAT; 
....................    FOR (SBB=0;SBB<16;SBB++) 
....................       {                                                  
....................          OUTPUT_BIT(SSDO,BSERIX);     
....................          OUTPUT_LOW(SSCK);          
....................          OUTPUT_HIGH(SSCK); 
....................          XX= XX<<1;          
....................      } 
.................... } 
.................... //XXXXXXXXXXXXXXXXXXXXXXXXXXXXXXXXXXXXXXXXXXXX 
.................... //CHUONG TRINH CON XUAT RA LED MA TRAN 
.................... //XXXXXXXXXXXXXXXXXXXXXXXXXXXXXXXXXXXXXXXXXXXX 
.................... VOID XUAT_MATRANLED(UNSIGNED INT16 MAHANG,UNSIGNED INT16 MACOT1, 
.................... UNSIGNED INT16 MACOT2,UNSIGNED INT16 MACOT3) 
.................... {       
....................       XUAT_2BYTE(MACOT3); 
....................       XUAT_2BYTE(MACOT2); 
....................       XUAT_2BYTE(MACOT1); 
....................       XUAT_2BYTE(MAHANG); 
....................        
....................       MO_LED_MATRAN; 
....................       MO_IC_74573_B_THONG_DL(); 
....................        
....................       OUTPUT_HIGH(RCK_MATRANLED); OUTPUT_LOW(RCK_MATRANLED);  
....................       CHOT_IC_74573_B_GOI_DU_LIEU; 
.................... } 
.................... //XXXXXXXXXXXXXXXXXXXXXXXXXXXXXXXXXXXXXXXXXXXX 
.................... //CHUONG TRINH CON XUAT RA LED MA TRAN 
.................... //XXXXXXXXXXXXXXXXXXXXXXXXXXXXXXXXXXXXXXXXXXXX 
.................... VOID TAT_MATRANLED() 
.................... {       
....................       XUAT_2BYTE(0); 
....................       XUAT_2BYTE(0); 
....................       XUAT_2BYTE(0); 
....................       XUAT_2BYTE(0);            
....................       OUTPUT_HIGH(RCK_MATRANLED);  
....................       OUTPUT_LOW(RCK_MATRANLED); 
.................... } 
.................... UNSIGNED  INT8 HIEU_CHINH_4BIT_CAO(UNSIGNED INT8 XZY) 
.................... { 
....................       INT1  BTG; 
....................       UNSIGNED INT8   BX;    
....................       #BIT BIT4  = BX.4 
....................       #BIT BIT5  = BX.5 
....................       #BIT BIT6  = BX.6 
....................       #BIT BIT7  = BX.7 
....................       BX=XZY; 
....................       BTG=BIT4;   BIT4=BIT7;  BIT7=BTG; 
....................       BTG=BIT5;   BIT5=BIT6;  BIT6=BTG;       
....................       RETURN(BX);   
.................... } 
.................... //HAM 601 
.................... //XXXXXXXXXXXXXXXXXXXXXXXXXXXXXXXXXXXXXXXXXXXXXXXXXXXX 
.................... //MODULE DIEU KHIEN RELAY,TRIAC, BUZZER, DONG CO, SIM 
.................... //XXXXXXXXXXXXXXXXXXXXXXXXXXXXXXXXXXXXXXXXXXXXXXXXXXXX 
.................... VOID XUAT_BUZZER_RELAY() 
.................... {      
....................    UNSIGNED INT8 RBDC1,RBDC2; 
....................       RBDC1=RBDC; RBDC2=RBDC>>8;       
....................       XUAT_1BYTE(RBDC2);       
....................       XUAT_1BYTE(RBDC1); 
....................       MO_RELAY_BUZZER_DC; 
....................       MO_IC_74573_B_THONG_DL(); 
....................        
....................       OUTPUT_HIGH(RCK_BUZERELAY);   OUTPUT_LOW(RCK_BUZERELAY); 
....................       CHOT_IC_74573_B_GOI_DU_LIEU; 
.................... } 
.................... //HAM 602 
.................... //XXXXXXXXXXXXXXXXXXXXXXXXXXXXXXXXXXXXXXXXXXXXXXXXXXXX 
.................... VOID BUZZER_ON() 
.................... {     
....................       BUZZER=1; 
....................       XUAT_BUZZER_RELAY();          
.................... } 
.................... //HAM 603 
.................... //XXXXXXXXXXXXXXXXXXXXXXXXXXXXXXXXXXXXXXXXXXXXXXXXXXXX 
.................... VOID BUZZER_OFF() 
.................... {      
....................       BUZZER=0; 
....................       XUAT_BUZZER_RELAY(); 
.................... } 
.................... //HAM 604 
.................... //XXXXXXXXXXXXXXXXXXXXXXXXXXXXXXXXXXXXXXXXXXXXXXXXXXXX 
.................... VOID RELAY_1_ON() 
.................... {     
....................       RELAY_1=1; 
....................       XUAT_BUZZER_RELAY();          
.................... } 
.................... //HAM 603 
.................... //XXXXXXXXXXXXXXXXXXXXXXXXXXXXXXXXXXXXXXXXXXXXXXXXXXXX 
.................... VOID RELAY_1_OFF() 
.................... {     
....................       RELAY_1=0; 
....................       XUAT_BUZZER_RELAY();          
.................... } 
.................... //HAM 604 
.................... //XXXXXXXXXXXXXXXXXXXXXXXXXXXXXXXXXXXXXXXXXXXXXXXXXXXX 
.................... VOID RELAY_2_ON() 
.................... {     
....................       RELAY_2=1; 
....................       XUAT_BUZZER_RELAY();          
.................... } 
.................... //HAM 607 
.................... //XXXXXXXXXXXXXXXXXXXXXXXXXXXXXXXXXXXXXXXXXXXXXXXXXXXX 
.................... VOID RELAY_2_OFF() 
.................... {     
....................       RELAY_2=0; 
....................       XUAT_BUZZER_RELAY();          
.................... } 
.................... //HAM 608 
.................... //XXXXXXXXXXXXXXXXXXXXXXXXXXXXXXXXXXXXXXXXXXXXXXXXXXXX 
.................... VOID RELAY_1_RELAY_2_ON() 
.................... {     
....................       RELAY_1=1;  RELAY_2=1; 
....................       XUAT_BUZZER_RELAY();          
.................... } 
.................... //HAM 609 
.................... //XXXXXXXXXXXXXXXXXXXXXXXXXXXXXXXXXXXXXXXXXXXXXXXXXXXX 
.................... VOID RELAY_1_RELAY_2_OFF() 
.................... {     
....................       RELAY_1=0;  RELAY_2=0; 
....................       XUAT_BUZZER_RELAY();          
.................... } 
.................... //HAM 610 
.................... //XXXXXXXXXXXXXXXXXXXXXXXXXXXXXXXXXXXXXXXXXXXXXXXXXXXX 
.................... VOID TRIAC_1_ON() 
.................... {     
....................       TRIAC_1=1; 
....................       XUAT_BUZZER_RELAY();          
.................... } 
.................... //HAM 611 
.................... //XXXXXXXXXXXXXXXXXXXXXXXXXXXXXXXXXXXXXXXXXXXXXXXXXXXX 
.................... VOID TRIAC_1_OFF() 
.................... {     
....................       TRIAC_1=0; 
....................       XUAT_BUZZER_RELAY();          
.................... } 
.................... //HAM 612 
.................... //XXXXXXXXXXXXXXXXXXXXXXXXXXXXXXXXXXXXXXXXXXXXXXXXXXXX 
.................... VOID TRIAC_2_ON() 
.................... {     
....................       TRIAC_2=1; 
....................       XUAT_BUZZER_RELAY();          
.................... } 
.................... //HAM 613 
.................... //XXXXXXXXXXXXXXXXXXXXXXXXXXXXXXXXXXXXXXXXXXXXXXXXXXXX 
.................... VOID TRIAC_2_OFF() 
.................... {     
....................       TRIAC_2=0; 
....................       XUAT_BUZZER_RELAY();          
.................... } 
.................... //XXXXXXXXXXXXXXXXXXXXXXXXXXXXXXXXXXXXXXXXXXXX 
....................  
....................  
....................  
.................... #INCLUDE <TV_PICKIT2_SHIFT_LCD.c> 
.................... UNSIGNED INT8 LCD_CONTROL;   
.................... #bit LCD_P = LCD_CONTROL.3 
.................... #bit LCD_RS = LCD_CONTROL.2 
.................... #bit LCD_RW = LCD_CONTROL.1 
.................... #bit LCD_E  = LCD_CONTROL.0 
....................  
.................... #DEFINE LCD_FUNCTION_SET       0X38 
.................... #DEFINE LCD_DISPLAY_CONTROL    0X0C 
.................... #DEFINE LCD_CLEAR_DISPLAY      0X01 
.................... #DEFINE LCD_ENTRY_MODE         0X06 
.................... #DEFINE LCD_SHIFT_LEFT         0X18 
.................... #DEFINE LCD_SHIFT_RIGHT        0X1C 
....................  
.................... #DEFINE LCD_ADDR_LINE1         0X80 
.................... #DEFINE LCD_ADDR_LINE2         0XC0 
.................... #DEFINE LCD_ADDR_LINE3         0X94 
.................... #DEFINE LCD_ADDR_LINE4         0XD4 
....................  
.................... VOID LCD_XUAT_8BIT(INT8 LCD_DATA_X) 
.................... { 
....................       LCD_E=1; XUAT_LCD20X4(LCD_CONTROL,LCD_DATA_X);      
00FA:  BSF    1A.0
00FC:  MOVFF  1A,3A
0100:  MOVFF  39,3B
0104:  RCALL  00EA
....................       LCD_E=0; XUAT_LCD20X4(LCD_CONTROL,LCD_DATA_X);  
0106:  BCF    1A.0
0108:  MOVFF  1A,3A
010C:  MOVFF  39,3B
0110:  RCALL  00EA
0112:  RETURN 0
.................... } 
.................... void LCD_COMMAND(INT8 LCD_DATA_X)    
....................   { 
....................       LCD_RS = 0; 
0114:  BCF    1A.2
....................       LCD_XUAT_8BIT(LCD_DATA_X); 
0116:  MOVFF  28,39
011A:  RCALL  00FA
....................       DELAY_US(20); 
011C:  MOVLW  20
011E:  MOVWF  00
0120:  DECFSZ 00,F
0122:  BRA    0120
0124:  BRA    0126
0126:  NOP   
0128:  RETURN 0
....................   } 
.................... void LCD_DATA(INT8 LCD_DATA_X)        
....................   { 
....................       LCD_RS = 1;      
*
0928:  BSF    1A.2
....................       LCD_XUAT_8BIT(LCD_DATA_X); 
092A:  MOVFF  38,39
092E:  CALL   00FA
....................       DELAY_US(20); 
0932:  MOVLW  20
0934:  MOVWF  00
0936:  DECFSZ 00,F
0938:  BRA    0936
093A:  BRA    093C
093C:  NOP   
093E:  RETURN 0
....................   } 
....................    
.................... VOID SETUP_LCD () 
.................... {                      
....................          LCD_E  = 0;  
*
0150:  BCF    1A.0
....................          LCD_RW = 0;  
0152:  BCF    1A.1
....................          LCD_RS = 1;  
0154:  BSF    1A.2
....................          LCD_P =0; 
0156:  BCF    1A.3
....................          LCD_COMMAND(LCD_FUNCTION_SET);          
0158:  MOVLW  38
015A:  MOVWF  28
015C:  RCALL  0114
....................          DELAY_US(40); 
015E:  MOVLW  42
0160:  MOVWF  00
0162:  DECFSZ 00,F
0164:  BRA    0162
0166:  NOP   
....................          LCD_COMMAND(LCD_DISPLAY_CONTROL);    
0168:  MOVLW  0C
016A:  MOVWF  28
016C:  RCALL  0114
....................          DELAY_US(40); 
016E:  MOVLW  42
0170:  MOVWF  00
0172:  DECFSZ 00,F
0174:  BRA    0172
0176:  NOP   
....................          LCD_COMMAND(LCD_CLEAR_DISPLAY);       
0178:  MOVLW  01
017A:  MOVWF  28
017C:  RCALL  0114
....................          DELAY_MS(2); 
017E:  MOVLW  02
0180:  MOVWF  26
0182:  RCALL  012A
....................          LCD_COMMAND(LCD_ENTRY_MODE);        
0184:  MOVLW  06
0186:  MOVWF  28
0188:  RCALL  0114
....................          DELAY_US(40);                 
018A:  MOVLW  42
018C:  MOVWF  00
018E:  DECFSZ 00,F
0190:  BRA    018E
0192:  NOP   
0194:  GOTO   0C98 (RETURN)
.................... } 
....................  
.................... CONST UNSIGNED CHAR LCD_SO_X[10+1+1+1][6] ={ 
....................                   0,1,2,5,3,4,               // SO 0 
....................                   1,2,32,3,7,3,              // SO 1 
....................                   6,6,2,5,3,3,               // SO 2 
....................                   6,6,2,3,3,4,               // SO 3 
....................                   7,3,7,32,32,7,             // SO 4 
....................                   7,6,6,3,3,4,               // SO 5 
....................                   0,6,6,5,3,4,               // SO 6 
....................                   1,1,7,32,32,7,             // SO 7 
....................                   0,6,2,5,3,4,               // SO 8 
....................                   0,6,2,3,3,4,               // SO 9 
....................                   32,32,32,32,32,32,         // KHOANG TRANG 0x20 tai vi tri 10 
....................                   0,6,2,5,32,32,              // CHU "P" tai vi tri 11 
....................                   32,32,32,32,7,32            // DAU CHAM tai vi tri 12 
....................                   }; 
....................                    
....................                    
.................... CONST UNSIGNED CHAR LCD_MA_8DOAN[] = { 
....................    0x07,0x0F,0x1F,0x1F,0x1F,0x1F,0x1F,0x1F,  //DOAN F - 0 
....................    0x1F,0x1F,0x1F,0X00,0X00,0X00,0X00,0X00,  //DOAN A - 1 
....................    0x1C,0x1E,0x1F,0x1F,0x1F,0x1F,0x1F,0x1F,  //DOAN B - 2 
....................    0X00,0X00,0X00,0X00,0X00,0x1F,0x1F,0x1F,  //DOAN D - 3 
....................    0x1F,0x1F,0x1F,0x1F,0x1F,0x1F,0x1E,0x1C,  //DOAN C - 4 
....................    0x1F,0x1F,0x1F,0x1F,0x1F,0x1F,0x0F,0x07,  //DOAN E - 5 
....................    0x1F,0x1F,0x1F,0X00,0X00,0X00,0x1F,0x1F,  //DOAN G+D-6  
....................    0x1F,0x1F,0x1F,0x1F,0x1F,0x1F,0x1F,0x1F}; //DOAN I  -7 
....................     
.................... VOID LCD_GOTO_XY(SIGNED INT8 X, SIGNED INT8 Y) 
.................... {  
....................    CONST UNSIGNED INT8 LCD_VITRI[]={0x80,0xC0,0x94,0xD4}; 
....................    LCD_COMMAND(LCD_VITRI[X]+Y); 
*
05AE:  CLRF   03
05B0:  MOVF   25,W
05B2:  MOVFF  FF2,27
05B6:  BCF    FF2.7
05B8:  RCALL  0024
05BA:  BTFSC  27.7
05BC:  BSF    FF2.7
05BE:  ADDWF  26,W
05C0:  MOVWF  27
05C2:  MOVWF  28
05C4:  RCALL  0114
05C6:  GOTO   0CDE (RETURN)
.................... } 
....................  
.................... VOID XXX() 
.................... {  
....................    SIGNED INT8 X; 
....................    X= LCD_SO_X[0][0]; 
....................    X= LCD_MA_8DOAN[0]; 
.................... } 
....................  
.................... #INCLUDE <TV_PICKIT2_SHIFT_DS18B20.c>  
.................... #DEFINE     TOUCH_PIN PIN_A5 
.................... #INCLUDE    <TOUCH.c> 
.................... /////////////////////////////////////////////////////////////////////////// 
.................... ////                        Dallas Touch Driver                        //// 
.................... ////                                                                   //// 
.................... ////                                                                   //// 
.................... ////  data = touch_read_bit()     Reads one bit from a touch device    //// 
.................... ////                                                                   //// 
.................... ////  data = touch_read_BYTE()    Reads one byte from a touch device.  //// 
.................... ////                                                                   //// 
.................... ////  ok = touch_write_bit(data)  Writes one bit to a touch device     //// 
.................... ////                              and returns true if all went ok.     //// 
.................... ////                              A false indicates a collision with   //// 
.................... ////                              another device.                      //// 
.................... ////                                                                   //// 
.................... ////  ok = touch_write_byte(data) Writes one byte to a touch device    //// 
.................... ////                              and returns true if all went ok.     //// 
.................... ////                              A false indicates a collision with   //// 
.................... ////                              another device.                      //// 
.................... ////                                                                   //// 
.................... ////  present = touch_present()   Issues a reset and returns true      //// 
.................... ////                              if the touch device is there.        //// 
.................... ////                                                                   //// 
.................... ////  reset_pulse()               Issues a reset and waits for a       //// 
.................... ////                              present pulse.                       //// 
.................... ////                                                                   //// 
.................... /////////////////////////////////////////////////////////////////////////// 
.................... ////        (C) Copyright 1996,2010 Custom Computer Services           //// 
.................... //// This source code may only be used by licensed users of the CCS C  //// 
.................... //// compiler.  This source code may only be distributed to other      //// 
.................... //// licensed users of the CCS C compiler.  No other use, reproduction //// 
.................... //// or distribution is permitted without written permission.          //// 
.................... //// Derivative programs created using this software in object code    //// 
.................... //// form are not restricted in any way.                               //// 
.................... /////////////////////////////////////////////////////////////////////////// 
....................  
.................... #ifndef  TOUCH_C 
.................... #define  TOUCH_C 
....................  
.................... #ifndef TOUCH_PIN 
....................    #define TOUCH_PIN  PIN_B0 
.................... #endif 
....................  
.................... #define TOUCH_PIN_LOW()    output_drive(TOUCH_PIN); output_low(TOUCH_PIN) 
.................... #define TOUCH_PIN_HIGH()    output_drive(TOUCH_PIN); output_high(TOUCH_PIN) 
.................... #define TOUCH_PIN_FLOAT()  output_float(TOUCH_PIN) 
.................... #define TOUCH_PIN_READ()      input_state(TOUCH_PIN) 
....................  
.................... ///////////////////////////// 
.................... ////                     //// 
.................... //// Function Prototypes //// 
.................... ////                     //// 
.................... ///////////////////////////// 
....................  
.................... /* 
.................... int1 touch_read_bit() 
.................... This will read back a bit from the DS1993 
.................... PARAMS: none 
.................... RETURNS: A bit from the DS1993 
.................... */ 
.................... int1 touch_read_bit(); 
....................  
.................... /* 
.................... BYTE touch_read_byte() 
.................... This will read back a byte from the DS1993 
.................... PARAMS: none 
.................... RETURNS: A byte from the DS1993 
.................... */ 
.................... BYTE touch_read_byte(); 
....................  
.................... /* 
.................... BOOLEAN touch_write_bit(int1 data) 
.................... This will write a bit to the DS1993 
.................... PARAMS: The bit to write 
.................... RETURNS: True if completed successfully, false if otherwise 
.................... */ 
.................... BOOLEAN touch_write_bit(int1 data); 
....................  
.................... /* 
.................... BOOLEAN touch_write_byte(BYTE data) 
.................... This will write a byte to the DS1993 
.................... PARAMS: The byte to write 
.................... RETURNS: True if completed successfully, false if otherwise 
.................... */ 
.................... BOOLEAN touch_write_byte(BYTE data); 
....................  
.................... /* 
.................... BOOLEAN touch_present() 
.................... This will evaluate whether or not there is a touch present on the DS1993 
.................... PARAMS: none 
.................... RETURNS: True if a touch is present, false if otherwise 
.................... */ 
.................... BOOLEAN touch_present(); 
....................  
.................... /* 
.................... void reset_pulse() 
.................... This will send the DS1993 a reset pulse 
.................... PARAMS: none 
.................... RETURNS: none 
.................... */ 
.................... void reset_pulse(); 
....................  
.................... ////////////////////////////////// 
.................... ////                          //// 
.................... //// Function Implementations //// 
.................... ////                          //// 
.................... ////////////////////////////////// 
....................  
.................... /* 
.................... int1 touch_read_bit() 
.................... This will read back a bit from the DS1993 
.................... PARAMS: none 
.................... RETURNS: A bit from the DS1993 
.................... */ 
.................... int1 touch_read_bit() 
.................... { 
....................    int1 data; 
....................  
....................    TOUCH_PIN_LOW(); 
*
0460:  BCF    F92.5
0462:  BCF    F92.5
0464:  BCF    F89.5
....................    delay_us(14); 
0466:  MOVLW  16
0468:  MOVWF  00
046A:  DECFSZ 00,F
046C:  BRA    046A
046E:  BRA    0470
0470:  NOP   
....................    TOUCH_PIN_FLOAT(); 
0472:  BSF    F92.5
....................    delay_us(5); 
0474:  MOVLW  07
0476:  MOVWF  00
0478:  DECFSZ 00,F
047A:  BRA    0478
047C:  BRA    047E
047E:  NOP   
....................    data = TOUCH_PIN_READ(); 
0480:  BCF    27.0
0482:  BTFSC  F80.5
0484:  BSF    27.0
....................    delay_us(100); 
0486:  MOVLW  A6
0488:  MOVWF  00
048A:  DECFSZ 00,F
048C:  BRA    048A
048E:  NOP   
....................  
....................    return data; 
0490:  MOVLW  00
0492:  BTFSC  27.0
0494:  MOVLW  01
0496:  MOVWF  01
0498:  GOTO   04A8 (RETURN)
.................... } 
....................  
.................... /* 
.................... BYTE touch_read_byte() 
.................... This will read back a byte from the DS1993 
.................... PARAMS: none 
.................... RETURNS: A byte from the DS1993 
.................... */ 
.................... BYTE touch_read_byte() 
.................... { 
....................    BYTE i,data; 
....................  
....................    for(i=1; i <= 8; ++i) 
049C:  MOVLW  01
049E:  MOVWF  25
04A0:  MOVF   25,W
04A2:  SUBLW  08
04A4:  BNC   04B8
....................       shift_right(&data, 1, touch_read_bit()); 
04A6:  BRA    0460
04A8:  MOVF   01,F
04AA:  BNZ   04B0
04AC:  BCF    FD8.0
04AE:  BRA    04B2
04B0:  BSF    FD8.0
04B2:  RRCF   26,F
04B4:  INCF   25,F
04B6:  BRA    04A0
....................  
....................    return data; 
04B8:  MOVFF  26,01
04BC:  RETURN 0
.................... } 
....................  
.................... /* 
.................... BOOLEAN touch_write_bit(int1 data) 
.................... This will write a bit to the DS1993 
.................... PARAMS: The bit to write 
.................... RETURNS: True if completed successfully, false if otherwise 
.................... */ 
.................... BOOLEAN touch_write_bit(int1 data) 
.................... { 
....................    TOUCH_PIN_LOW(); 
*
0200:  BCF    F92.5
0202:  BCF    F92.5
0204:  BCF    F89.5
....................    delay_us(10); 
0206:  MOVLW  10
0208:  MOVWF  00
020A:  DECFSZ 00,F
020C:  BRA    020A
020E:  NOP   
....................    if(data) 
0210:  MOVF   28,F
0212:  BZ    0230
....................    { 
....................       TOUCH_PIN_HIGH(); 
0214:  BCF    F92.5
0216:  BCF    F92.5
0218:  BSF    F89.5
....................       delay_us(10); 
021A:  MOVLW  10
021C:  MOVWF  00
021E:  DECFSZ 00,F
0220:  BRA    021E
0222:  NOP   
....................       if(!TOUCH_PIN_READ()) 
0224:  BTFSC  F80.5
0226:  BRA    022E
....................          return FALSE; 
0228:  MOVLW  00
022A:  MOVWF  01
022C:  BRA    026C
....................    } 
022E:  BRA    024A
....................    else 
....................    { 
....................       TOUCH_PIN_LOW(); 
0230:  BCF    F92.5
0232:  BCF    F92.5
0234:  BCF    F89.5
....................       delay_us(10); 
0236:  MOVLW  10
0238:  MOVWF  00
023A:  DECFSZ 00,F
023C:  BRA    023A
023E:  NOP   
....................       if(TOUCH_PIN_READ()) 
0240:  BTFSS  F80.5
0242:  BRA    024A
....................          return FALSE; 
0244:  MOVLW  00
0246:  MOVWF  01
0248:  BRA    026C
....................    } 
....................    delay_us(50); 
024A:  MOVLW  52
024C:  MOVWF  00
024E:  DECFSZ 00,F
0250:  BRA    024E
0252:  BRA    0254
0254:  NOP   
....................    TOUCH_PIN_HIGH(); 
0256:  BCF    F92.5
0258:  BCF    F92.5
025A:  BSF    F89.5
....................    delay_us(50); 
025C:  MOVLW  52
025E:  MOVWF  00
0260:  DECFSZ 00,F
0262:  BRA    0260
0264:  BRA    0266
0266:  NOP   
....................    return TRUE; 
0268:  MOVLW  01
026A:  MOVWF  01
026C:  GOTO   028A (RETURN)
.................... } 
....................  
.................... /* 
.................... BOOLEAN touch_write_byte(BYTE data) 
.................... This will write a byte to the DS1993 
.................... PARAMS: The byte to write 
.................... RETURNS: True if completed successfully, false if otherwise 
.................... */ 
.................... BOOLEAN touch_write_byte(BYTE data) 
.................... { 
....................    BYTE i; 
....................  
....................    for(i=1; i<=8; ++i) 
0270:  MOVLW  01
0272:  MOVWF  26
0274:  MOVF   26,W
0276:  SUBLW  08
0278:  BNC   0298
....................       if(!touch_write_bit(shift_right(&data, 1, 0))) 
027A:  BCF    FD8.0
027C:  RRCF   25,F
027E:  MOVLW  00
0280:  BTFSC  FD8.0
0282:  MOVLW  01
0284:  MOVWF  27
0286:  MOVWF  28
0288:  BRA    0200
028A:  MOVF   01,F
028C:  BNZ   0294
....................          return FALSE; 
028E:  MOVLW  00
0290:  MOVWF  01
0292:  BRA    029C
0294:  INCF   26,F
0296:  BRA    0274
....................  
....................    return TRUE; 
0298:  MOVLW  01
029A:  MOVWF  01
029C:  RETURN 0
.................... } 
....................  
.................... /* 
.................... BOOLEAN touch_present() 
.................... This will evaluate whether or not there is a touch present on the DS1993 
.................... PARAMS: none 
.................... RETURNS: True if a touch is present, false if otherwise 
.................... */ 
.................... BOOLEAN touch_present() 
.................... { 
....................    BOOLEAN present; 
....................    TOUCH_PIN_LOW(); 
*
01B2:  BCF    F92.5
01B4:  BCF    F92.5
01B6:  BCF    F89.5
....................    delay_us(500); 
01B8:  MOVLW  02
01BA:  MOVWF  26
01BC:  MOVLW  F9
01BE:  MOVWF  27
01C0:  RCALL  0198
01C2:  DECFSZ 26,F
01C4:  BRA    01BC
....................    TOUCH_PIN_FLOAT(); 
01C6:  BSF    F92.5
....................    delay_us(5); 
01C8:  MOVLW  07
01CA:  MOVWF  00
01CC:  DECFSZ 00,F
01CE:  BRA    01CC
01D0:  BRA    01D2
01D2:  NOP   
....................  
....................    if(!TOUCH_PIN_READ()) 
01D4:  BTFSC  F80.5
01D6:  BRA    01DE
....................       return FALSE; 
01D8:  MOVLW  00
01DA:  MOVWF  01
01DC:  BRA    01FE
....................  
....................    delay_us(65); 
01DE:  MOVLW  6B
01E0:  MOVWF  00
01E2:  DECFSZ 00,F
01E4:  BRA    01E2
01E6:  BRA    01E8
01E8:  NOP   
....................    present = !TOUCH_PIN_READ(); 
01EA:  BCF    25.0
01EC:  BTFSS  F80.5
01EE:  BSF    25.0
....................    delay_us(240); 
01F0:  MOVLW  F0
01F2:  MOVWF  27
01F4:  RCALL  0198
....................    return present; 
01F6:  MOVLW  00
01F8:  BTFSC  25.0
01FA:  MOVLW  01
01FC:  MOVWF  01
01FE:  RETURN 0
.................... } 
....................  
.................... /* 
.................... void reset_pulse() 
.................... This will send the DS1993 a reset pulse 
.................... PARAMS: none 
.................... RETURNS: none 
.................... */ 
.................... void reset_pulse() 
.................... { 
....................    TOUCH_PIN_LOW(); 
....................    delay_us(500); 
....................    TOUCH_PIN_FLOAT(); 
....................    delay_us(5); 
....................    while(!touch_present()); 
.................... } 
....................  
....................  
.................... #endif 
....................  
.................... #DEFINE       SKIP_ROM              0xCC 
.................... #DEFINE       CONVERT_T             0x44 
.................... #DEFINE       READ_SCRATCHPAD       0xBE 
.................... #DEFINE       WRITE_SCRATCHPAD      0x4E 
.................... #DEFINE       COPY_SCRATCHPAD       0x48     
.................... UNSIGNED INT8     DS18AL, DS18AH, DS18A_TAM; 
.................... UNSIGNED INT16    DS18A; 
.................... unsigned int8 NGUYEN; 
.................... float TP; 
.................... VOID  KHOI_TAO_DS18B20() 
.................... {                          
....................       TOUCH_PRESENT(); 
*
029E:  RCALL  01B2
....................       TOUCH_WRITE_BYTE(SKIP_ROM);       
02A0:  MOVLW  CC
02A2:  MOVWF  25
02A4:  RCALL  0270
....................       TOUCH_WRITE_BYTE(WRITE_SCRATCHPAD);     
02A6:  MOVLW  4E
02A8:  MOVWF  25
02AA:  RCALL  0270
....................       TOUCH_WRITE_BYTE(0x0);       // ghi 2 byte rong 
02AC:  CLRF   25
02AE:  RCALL  0270
....................       TOUCH_WRITE_BYTE(0x0);       // 
02B0:  CLRF   25
02B2:  RCALL  0270
....................       TOUCH_WRITE_BYTE(0x1F);      //Cau hinh do phan giai 9 bit 
02B4:  MOVLW  1F
02B6:  MOVWF  25
02B8:  RCALL  0270
....................  
....................       TOUCH_PRESENT(); 
02BA:  RCALL  01B2
....................       TOUCH_WRITE_BYTE(SKIP_ROM);       
02BC:  MOVLW  CC
02BE:  MOVWF  25
02C0:  RCALL  0270
....................       TOUCH_WRITE_BYTE(COPY_SCRATCHPAD);  
02C2:  MOVLW  48
02C4:  MOVWF  25
02C6:  RCALL  0270
02C8:  GOTO   0C9C (RETURN)
.................... } 
.................... VOID  DOC_GIATRI_DS18B20() 
.................... {  
....................       TOUCH_WRITE_BYTE(SKIP_ROM); 
*
0514:  MOVLW  CC
0516:  MOVWF  25
0518:  RCALL  0270
....................       TOUCH_WRITE_BYTE (CONVERT_T);    
051A:  MOVLW  44
051C:  MOVWF  25
051E:  RCALL  0270
....................       TOUCH_PRESENT(); 
0520:  RCALL  01B2
....................       TOUCH_WRITE_BYTE(SKIP_ROM); 
0522:  MOVLW  CC
0524:  MOVWF  25
0526:  RCALL  0270
....................       TOUCH_WRITE_BYTE(READ_SCRATCHPAD);   
0528:  MOVLW  BE
052A:  MOVWF  25
052C:  RCALL  0270
....................       DS18AL = TOUCH_READ_BYTE(); 
052E:  RCALL  049C
0530:  MOVFF  01,1B
....................       DS18AH = TOUCH_READ_BYTE();       
0534:  RCALL  049C
0536:  MOVFF  01,1C
....................       DS18A   =  MAKE16(DS18AH,DS18AL); 
053A:  MOVFF  1C,1F
053E:  MOVFF  1B,1E
....................        
....................       // MODIFIED 
....................       NGUYEN = DS18A >> 4; // LAY PHAN NGUYEN 
0542:  RRCF   1F,W
0544:  MOVWF  03
0546:  RRCF   1E,W
0548:  MOVWF  02
054A:  RRCF   03,F
054C:  RRCF   02,F
054E:  RRCF   03,F
0550:  RRCF   02,F
0552:  RRCF   03,F
0554:  RRCF   02,F
0556:  MOVFF  02,20
....................        
....................       TP = (DS18A&0X000F)*10/16; //LAY THAP PHAN 1 SO 
055A:  MOVF   1E,W
055C:  ANDLW  0F
055E:  MOVWF  25
0560:  CLRF   26
0562:  MOVFF  26,28
0566:  MOVWF  27
0568:  CLRF   2A
056A:  MOVLW  0A
056C:  MOVWF  29
056E:  BRA    04BE
0570:  MOVFF  02,26
0574:  MOVFF  01,25
0578:  RRCF   02,W
057A:  MOVWF  03
057C:  RRCF   01,W
057E:  MOVWF  02
0580:  RRCF   03,F
0582:  RRCF   02,F
0584:  RRCF   03,F
0586:  RRCF   02,F
0588:  RRCF   03,F
058A:  RRCF   02,F
058C:  MOVLW  0F
058E:  ANDWF  03,F
0590:  MOVFF  02,29
0594:  MOVFF  03,2A
0598:  RCALL  04DE
059A:  MOVFF  03,24
059E:  MOVFF  02,23
05A2:  MOVFF  01,22
05A6:  MOVFF  00,21
05AA:  GOTO   0CB0 (RETURN)
....................        
.................... } 
....................              
....................  
....................  
....................  
.................... VOID MAIN() 
*
0C64:  CLRF   FF8
0C66:  BCF    FD0.7
0C68:  CLRF   06
0C6A:  CLRF   0D
0C6C:  CLRF   0E
0C6E:  CLRF   0F
0C70:  CLRF   10
0C72:  CLRF   19
0C74:  MOVF   FC1,W
0C76:  ANDLW  C0
0C78:  IORLW  0F
0C7A:  MOVWF  FC1
0C7C:  MOVLW  07
0C7E:  MOVWF  FB4
0C80:  SETF   11
0C82:  SETF   12
0C84:  SETF   13
0C86:  SETF   14
0C88:  SETF   15
0C8A:  SETF   16
0C8C:  SETF   17
0C8E:  SETF   18
.................... { 
....................    SET_UP_PORT_IC_CHOT(); 
0C90:  GOTO   0048
....................     
....................    SETUP_LCD(); 
0C94:  GOTO   0150
....................        
....................    KHOI_TAO_DS18B20(); 
0C98:  GOTO   029E
....................     
....................    DS18A_TAM=0; 
0C9C:  CLRF   1D
....................    XUAT_4LED_7DOAN_GIAIMA_XOA_SO0(0); 
0C9E:  CLRF   28
0CA0:  CLRF   27
0CA2:  CALL   033A
....................    WHILE(TRUE) 
....................    { 
....................       IF(TOUCH_PRESENT()) { DOC_GIATRI_DS18B20();} 
0CA6:  CALL   01B2
0CAA:  MOVF   01,F
0CAC:  BTFSS  FD8.2
0CAE:  BRA    0514
....................  
....................       XUAT_4LED_7DOAN_GIAIMA_XOA_SO0((DS18A>>4)&0xff); 
0CB0:  RRCF   1F,W
0CB2:  MOVWF  26
0CB4:  RRCF   1E,W
0CB6:  MOVWF  25
0CB8:  RRCF   26,F
0CBA:  RRCF   25,F
0CBC:  RRCF   26,F
0CBE:  RRCF   25,F
0CC0:  RRCF   26,F
0CC2:  RRCF   25,F
0CC4:  MOVLW  0F
0CC6:  ANDWF  26,F
0CC8:  CLRF   26
0CCA:  MOVFF  26,28
0CCE:  MOVFF  25,27
0CD2:  CALL   033A
....................        
....................       LCD_GOTO_XY(1,1); 
0CD6:  MOVLW  01
0CD8:  MOVWF  25
0CDA:  MOVWF  26
0CDC:  BRA    05AE
....................       PRINTF(LCD_DATA,"ND = %.2f %3Lu",  
....................       (float)(((DS18A>>2)&0X0003)*0.25) + (DS18A/16), ((DS18A>>4)&0xff)); 
0CDE:  RRCF   1F,W
0CE0:  MOVWF  26
0CE2:  RRCF   1E,W
0CE4:  MOVWF  25
0CE6:  RRCF   26,F
0CE8:  RRCF   25,F
0CEA:  MOVLW  3F
0CEC:  ANDWF  26,F
0CEE:  MOVLW  03
0CF0:  ANDWF  25,F
0CF2:  CLRF   26
0CF4:  MOVFF  26,2A
0CF8:  MOVFF  25,29
0CFC:  CALL   04DE
0D00:  MOVFF  03,3B
0D04:  MOVFF  02,3A
0D08:  MOVFF  01,39
0D0C:  MOVFF  00,38
0D10:  CLRF   3F
0D12:  CLRF   3E
0D14:  CLRF   3D
0D16:  MOVLW  7D
0D18:  MOVWF  3C
0D1A:  RCALL  05CA
0D1C:  MOVFF  03,28
0D20:  MOVFF  02,27
0D24:  MOVFF  01,26
0D28:  MOVFF  00,25
0D2C:  RRCF   1F,W
0D2E:  MOVWF  03
0D30:  RRCF   1E,W
0D32:  MOVWF  02
0D34:  RRCF   03,F
0D36:  RRCF   02,F
0D38:  RRCF   03,F
0D3A:  RRCF   02,F
0D3C:  RRCF   03,F
0D3E:  RRCF   02,F
0D40:  MOVLW  0F
0D42:  ANDWF  03,F
0D44:  MOVFF  02,29
0D48:  MOVFF  03,2A
0D4C:  CALL   04DE
0D50:  BCF    FD8.1
0D52:  MOVFF  28,2C
0D56:  MOVFF  27,2B
0D5A:  MOVFF  26,2A
0D5E:  MOVFF  25,29
0D62:  MOVFF  03,30
0D66:  MOVFF  02,2F
0D6A:  MOVFF  01,2E
0D6E:  MOVFF  00,2D
0D72:  BRA    06BC
0D74:  MOVFF  03,28
0D78:  MOVFF  02,27
0D7C:  MOVFF  01,26
0D80:  MOVFF  00,25
0D84:  RRCF   1F,W
0D86:  MOVWF  2A
0D88:  RRCF   1E,W
0D8A:  MOVWF  29
0D8C:  RRCF   2A,F
0D8E:  RRCF   29,F
0D90:  RRCF   2A,F
0D92:  RRCF   29,F
0D94:  RRCF   2A,F
0D96:  RRCF   29,F
0D98:  MOVLW  0F
0D9A:  ANDWF  2A,F
0D9C:  CLRF   2A
0D9E:  MOVLW  38
0DA0:  MOVWF  FF6
0DA2:  MOVLW  00
0DA4:  MOVWF  FF7
0DA6:  MOVLW  05
0DA8:  MOVWF  2B
0DAA:  BRA    0940
0DAC:  MOVLW  89
0DAE:  MOVWF  FE9
0DB0:  MOVFF  28,2E
0DB4:  MOVFF  27,2D
0DB8:  MOVFF  26,2C
0DBC:  MOVFF  25,2B
0DC0:  MOVLW  02
0DC2:  MOVWF  2F
0DC4:  BRA    0A2E
0DC6:  MOVLW  20
0DC8:  MOVWF  38
0DCA:  RCALL  0928
0DCC:  MOVLW  02
0DCE:  MOVWF  FE9
0DD0:  MOVFF  2A,2C
0DD4:  MOVFF  29,2B
0DD8:  BRA    0BA8
....................  
....................       delay_ms(1000); 
0DDA:  MOVLW  04
0DDC:  MOVWF  25
0DDE:  MOVLW  FA
0DE0:  MOVWF  26
0DE2:  CALL   012A
0DE6:  DECFSZ 25,F
0DE8:  BRA    0DDE
0DEA:  BRA    0CA6
....................    } 
.................... } 
0DEC:  SLEEP 

Configuration Fuses:
   Word  1: CC27   PLL12 CPUDIV1 USBDIV HS FCMEN IESO
   Word  2: 1E3E   PUT BROWNOUT BORV21 VREGEN NOWDT WDT32768
   Word  3: 8700   CCP2C1 PBADEN LPT1OSC MCLR
   Word  4: 00A1   STVREN NOLVP ICSP2 NOXINST NODEBUG
   Word  5: C00F   NOPROTECT NOCPB NOCPD
   Word  6: E00F   NOWRT NOWRTC NOWRTB NOWRTD
   Word  7: 400F   NOEBTR NOEBTRB
