CCS PCH C Compiler, Version 5.015, 5967               17-Aug-20 14:28

               Filename:   C:\Users\tsqua\OneDrive - student.mtsac.edu\Desktop\BAI_TAP_VXL_NEW_3\BAI_809_I2C_RT_LCD_TO_NHO_ledQuet.lst

               ROM used:   3726 bytes (11%)
                           Largest free fragment is 29042
               RAM used:   58 (3%) at main() level
                           72 (4%) worst case
               Stack used: 8 locations
               Stack size: 31

*
0000:  GOTO   0D86
.................... //LCD TO DS1307 
.................... #include <tv_pickit2_shift_1.c> 
.................... #INCLUDE    <18F4550.H> 
.................... //////////// Standard Header file for the PIC18F4550 device //////////////// 
.................... /////////////////////////////////////////////////////////////////////////// 
.................... ////        (C) Copyright 1996, 2013 Custom Computer Services          //// 
.................... //// This source code may only be used by licensed users of the CCS C  //// 
.................... //// compiler.  This source code may only be distributed to other      //// 
.................... //// licensed users of the CCS C compiler.  No other use, reproduction //// 
.................... //// or distribution is permitted without written permission.          //// 
.................... //// Derivative programs created using this software in object code    //// 
.................... //// form are not restricted in any way.                               //// 
.................... /////////////////////////////////////////////////////////////////////////// 
.................... #device PIC18F4550 
0004:  CLRF   FF7
0006:  ADDLW  14
0008:  MOVWF  FF6
000A:  MOVLW  00
000C:  ADDWFC FF7,F
000E:  TBLRD*+
0010:  MOVF   FF5,W
0012:  RETURN 0
0014:  DATA C0,F9
0016:  DATA A4,B0
0018:  DATA 99,92
001A:  DATA 82,F8
001C:  DATA 80,90
001E:  DATA 88,83
0020:  DATA C6,A1
0022:  DATA 86,8E
0024:  CLRF   FF7
0026:  ADDLW  34
0028:  MOVWF  FF6
002A:  MOVLW  00
002C:  ADDWFC FF7,F
002E:  TBLRD*+
0030:  MOVF   FF5,W
0032:  RETURN 0
0034:  DATA 7F,BF
0036:  DATA DF,EF
0038:  DATA F7,FB
003A:  DATA FD,FE
003C:  CLRF   FF7
003E:  ADDLW  4C
0040:  MOVWF  FF6
0042:  MOVLW  00
0044:  ADDWFC FF7,F
0046:  TBLRD*+
0048:  MOVF   FF5,W
004A:  RETURN 0
004C:  DATA 00,01
004E:  DATA 02,05
0050:  DATA 03,04
0052:  DATA 01,02
0054:  DATA 20,03
0056:  DATA 07,03
0058:  DATA 06,06
005A:  DATA 02,05
005C:  DATA 03,03
005E:  DATA 06,06
0060:  DATA 02,03
0062:  DATA 03,04
0064:  DATA 07,03
0066:  DATA 07,20
0068:  DATA 20,07
006A:  DATA 07,06
006C:  DATA 06,03
006E:  DATA 03,04
0070:  DATA 00,06
0072:  DATA 06,05
0074:  DATA 03,04
0076:  DATA 01,01
0078:  DATA 07,20
007A:  DATA 20,07
007C:  DATA 00,06
007E:  DATA 02,05
0080:  DATA 03,04
0082:  DATA 00,06
0084:  DATA 02,03
0086:  DATA 03,04
0088:  DATA 20,20
008A:  DATA 20,20
008C:  DATA 20,20
008E:  DATA 00,06
0090:  DATA 02,05
0092:  DATA 20,20
0094:  DATA 20,20
0096:  DATA 20,20
0098:  DATA 07,20
009A:  DATA 07,20
009C:  DATA 20,07
009E:  DATA 06,07
00A0:  DATA 07,03
00A2:  DATA 07,07
00A4:  DATA 20,07
00A6:  DATA 03,03
00A8:  DATA 07,07
00AA:  DATA 03,07
00AC:  DATA 20,20
00AE:  DATA 20,03
00B0:  DATA 03,03
00B2:  DATA 20,01
00B4:  DATA 20,20
00B6:  DATA 20,20
00B8:  DATA 07,01
00BA:  DATA 01,07
00BC:  DATA 03,03
00BE:  DATA 20,01
00C0:  DATA 20,20
00C2:  DATA 01,20
00C4:  CLRF   FF7
00C6:  ADDLW  D4
00C8:  MOVWF  FF6
00CA:  MOVLW  00
00CC:  ADDWFC FF7,F
00CE:  TBLRD*+
00D0:  MOVF   FF5,W
00D2:  RETURN 0
00D4:  DATA 07,0F
00D6:  DATA 1F,1F
00D8:  DATA 1F,1F
00DA:  DATA 1F,1F
00DC:  DATA 1F,1F
00DE:  DATA 1F,00
00E0:  DATA 00,00
00E2:  DATA 00,00
00E4:  DATA 1C,1E
00E6:  DATA 1F,1F
00E8:  DATA 1F,1F
00EA:  DATA 1F,1F
00EC:  DATA 00,00
00EE:  DATA 00,00
00F0:  DATA 00,1F
00F2:  DATA 1F,1F
00F4:  DATA 1F,1F
00F6:  DATA 1F,1F
00F8:  DATA 1F,1F
00FA:  DATA 1E,1C
00FC:  DATA 1F,1F
00FE:  DATA 1F,1F
0100:  DATA 1F,1F
0102:  DATA 0F,07
0104:  DATA 1F,1F
0106:  DATA 1F,00
0108:  DATA 00,00
010A:  DATA 1F,1F
010C:  DATA 1F,1F
010E:  DATA 1F,1F
0110:  DATA 1F,1F
0112:  DATA 1F,1F
0114:  CLRF   FF7
0116:  ADDLW  24
0118:  MOVWF  FF6
011A:  MOVLW  01
011C:  ADDWFC FF7,F
011E:  TBLRD*+
0120:  MOVF   FF5,W
0122:  RETURN 0
0124:  DATA 80,C0
0126:  DATA 94,D4
0128:  DATA 54,48
012A:  DATA 55,20
012C:  DATA 00,00
012E:  DATA 54,48
0130:  DATA 55,20
0132:  DATA 00,00
*
0562:  CLRF   00
0564:  CLRF   01
0566:  MOVF   3D,W
0568:  BCF    FD8.0
056A:  BTFSC  3E.0
056C:  ADDWF  00,F
056E:  RRCF   00,F
0570:  RRCF   01,F
0572:  BTFSC  3E.1
0574:  ADDWF  00,F
0576:  RRCF   00,F
0578:  RRCF   01,F
057A:  BTFSC  3E.2
057C:  ADDWF  00,F
057E:  RRCF   00,F
0580:  RRCF   01,F
0582:  BTFSC  3E.3
0584:  ADDWF  00,F
0586:  RRCF   00,F
0588:  RRCF   01,F
058A:  BTFSC  3E.4
058C:  ADDWF  00,F
058E:  RRCF   00,F
0590:  RRCF   01,F
0592:  BTFSC  3E.5
0594:  ADDWF  00,F
0596:  RRCF   00,F
0598:  RRCF   01,F
059A:  BTFSC  3E.6
059C:  ADDWF  00,F
059E:  RRCF   00,F
05A0:  RRCF   01,F
05A2:  BTFSC  3E.7
05A4:  ADDWF  00,F
05A6:  RRCF   00,F
05A8:  RRCF   01,F
05AA:  GOTO   05E2 (RETURN)
*
060E:  TBLRD*+
0610:  MOVF   FF5,F
0612:  BZ    062C
0614:  MOVFF  FF6,3A
0618:  MOVFF  FF7,3B
061C:  MOVFF  FF5,3E
0620:  RCALL  049A
0622:  MOVFF  3A,FF6
0626:  MOVFF  3B,FF7
062A:  BRA    060E
062C:  RETURN 0
....................  
.................... #list 
....................  
.................... #DEVICE     ADC=10 
.................... #FUSES      NOWDT,PUT,HS,NOPROTECT,NOLVP,CPUDIV1 
.................... #USE        I2C(MASTER,SLOW,SDA=PIN_B0,SCL=PIN_B1) 
*
0286:  MOVLW  08
0288:  MOVWF  01
028A:  NOP   
028C:  BCF    F8A.1
028E:  BCF    F93.1
0290:  NOP   
0292:  RLCF   3A,F
0294:  BCF    F8A.0
0296:  BTFSC  FD8.0
0298:  BSF    F93.0
029A:  BTFSS  FD8.0
029C:  BCF    F93.0
029E:  BSF    F93.1
02A0:  BTFSS  F81.1
02A2:  BRA    02A0
02A4:  DECFSZ 01,F
02A6:  BRA    028A
02A8:  NOP   
02AA:  BCF    F8A.1
02AC:  BCF    F93.1
02AE:  NOP   
02B0:  BSF    F93.0
02B2:  NOP   
02B4:  NOP   
02B6:  BSF    F93.1
02B8:  BTFSS  F81.1
02BA:  BRA    02B8
02BC:  CLRF   01
02BE:  NOP   
02C0:  BTFSC  F81.0
02C2:  BSF    01.0
02C4:  BCF    F8A.1
02C6:  BCF    F93.1
02C8:  BCF    F8A.0
02CA:  BCF    F93.0
02CC:  RETURN 0
02CE:  MOVLW  08
02D0:  MOVWF  3B
02D2:  MOVFF  00,3C
02D6:  BSF    F93.0
02D8:  NOP   
02DA:  BSF    F93.1
02DC:  BTFSS  F81.1
02DE:  BRA    02DC
02E0:  BTFSC  F81.0
02E2:  BSF    FD8.0
02E4:  BTFSS  F81.0
02E6:  BCF    FD8.0
02E8:  RLCF   01,F
02EA:  NOP   
02EC:  BCF    F93.1
02EE:  BCF    F8A.1
02F0:  DECFSZ 3B,F
02F2:  BRA    02D6
02F4:  BSF    F93.0
02F6:  NOP   
02F8:  BCF    F8A.0
02FA:  MOVF   3C,W
02FC:  BTFSS  FD8.2
02FE:  BCF    F93.0
0300:  NOP   
0302:  BSF    F93.1
0304:  BTFSS  F81.1
0306:  BRA    0304
0308:  NOP   
030A:  BCF    F8A.1
030C:  BCF    F93.1
030E:  NOP   
0310:  BCF    F8A.0
0312:  BCF    F93.0
0314:  RETURN 0
.................... #USE        DELAY(CLOCK=20000000) 
*
0218:  CLRF   FEA
021A:  MOVLW  3C
021C:  MOVWF  FE9
021E:  MOVF   FEF,W
0220:  BZ    023C
0222:  MOVLW  06
0224:  MOVWF  01
0226:  CLRF   00
0228:  DECFSZ 00,F
022A:  BRA    0228
022C:  DECFSZ 01,F
022E:  BRA    0226
0230:  MOVLW  7B
0232:  MOVWF  00
0234:  DECFSZ 00,F
0236:  BRA    0234
0238:  DECFSZ FEF,F
023A:  BRA    0222
023C:  RETURN 0
.................... //#USE        rs232(baud=9600, xmit=PIN_C6,rcv=PIN_C7) 
.................... //NUT NHAN: 
.................... #DEFINE  BT0     PIN_B5 
.................... #DEFINE  BT1     PIN_B4 
.................... #DEFINE  BT2     PIN_B3 
.................... #DEFINE  BT3     PIN_B2 
....................  
.................... #DEFINE  ON      BT0       //DK LED DON, MOTOR 
.................... #DEFINE  OFF     BT1 
.................... #DEFINE  INV     BT2 
....................  
.................... #DEFINE  UP      BT0    //DK LED DON 
.................... #DEFINE  DW      BT1 
.................... #DEFINE  CLR     BT2 
.................... #DEFINE  MOD     BT3 
....................  
.................... #DEFINE  STOP    BT3 
....................  
.................... #DEFINE  ON1     BT0      
.................... #DEFINE  OFF1    BT1 
.................... #DEFINE  ON2     BT2        
.................... #DEFINE  OFF2    BT3 
....................  
....................  
.................... #DEFINE     TRIGGER      PIN_E2 
.................... #DEFINE     ECHO         PIN_E1 
.................... //   IC74138_A    PIN_B6   //OUTPUT GIAI MA 2 SANG 4 TICH CUC MUC 0 
.................... //   IC74138_B    PIN_B7   //OUTPUT GIAI MA 2 SANG 4 TICH CUC MUC 0 
....................  
.................... //          ENCODER  PIN_C0   //RC0/T13CKI 
....................  
.................... //          CB_KC    PIN_A2   //RA2/AN2 
.................... //          PIR      PIN_A3   //RA3/AN3 
.................... //          CBXUNG   PIN_A4   //RA4/T0CKI 
.................... //          LEDTHU   PIN_A4   //RA4/T0CKI//SW802 
....................  
.................... //          CB_KCSA_TRIGGER  PIN_E2   //RE2/SDO  DUNG CHUNG 
.................... //          CB_KCSA_RCHO     PIN_E1   //RE1 
....................  
.................... //          CB_TCS3200_OUT    PIN_E1   //RE1 //CAM BIEN MAU TCS3200 
.................... //          CB_TCS3200_S0     B12      //LAY TU MBI5026 
.................... //          CB_TCS3200_S1     B13      //LAY TU MBI5026 
.................... //          CB_TCS3200_S2     B14      //LAY TU MBI5026 
.................... //          CB_TCS3200_S3     B15      //LAY TU MBI5026 
....................  
.................... //          CB_POWER  SW803 
.................... //          CB_GAS      AIN3_PCF8591T   //RE1 
.................... //          CB_QUANG    AIN2_PCF8591T    
.................... //          CB_LM35B    AIN1_PCF8591T   //RA1/AN1 
.................... //          CB_LM35A    AIN0_PCF8591T   //RE1/AN0 
....................  
.................... //XXXXXXXXXXXXXXXXXXXXXXXXXXXXXXXXXXXXXXXXXXXXXXXXX 
.................... #DEFINE      ENABLE_573A      PIN_D1         //CS0 CUA A 
.................... #DEFINE      ENABLE_573B      PIN_D0         //CS1 CUA B 
.................... //XXXXXXXXXXXXXXXXXXXXXXXXXXXXXXXXXXXXXXXXXXXXXXXXX 
.................... #DEFINE      SSDO             PIN_E2         //CHUNG TAT CA 
.................... #DEFINE      SSCK             PIN_E0         //CHUNG TAT CA 
.................... //XXXXXXXXXXXXXXXXXXXXXXXXXXXXXXXXXXXXXXXXXXXXXXXXX 
.................... #DEFINE      RCK_4LED7DOAN    PIN_D7         //A - 4 BYTE 
.................... #DEFINE      G_4LED7DOAN      PIN_D6         //A - 4 BYTE 
.................... //XXXXXXXXXXXXXXXXXXXXXXXXXXXXXXXXXXXXXXXXXXXX     
.................... #DEFINE      RCK_MATRANLED    PIN_D7         //B - 3 BYTE DAO 
.................... #DEFINE      G_MATRANLED      PIN_D6         //B - 3 BYTE DAO 
.................... //XXXXXXXXXXXXXXXXXXXXXXXXXXXXXXXXXXXXXXXXXXXXXXXXX 
.................... #DEFINE      RCK_32LED        PIN_D5         //A - 4 BYTE 
.................... #DEFINE      G_32LED          PIN_D4         //A - 4 BYTE 
.................... //XXXXXXXXXXXXXXXXXXXXXXXXXXXXXXXXXXXXXXXXXXXX  
.................... #DEFINE      RCK_8LEDQUET     PIN_D5         //B - 2 BYTE DAO 
.................... #DEFINE      G_8LEDQUET       PIN_D4         //B - 2 BYTE DAO 
.................... //XXXXXXXXXXXXXXXXXXXXXXXXXXXXXXXXXXXXXXXXXXXXXXXXX 
.................... #DEFINE      RCK_LCD20X4      PIN_D3         //A - 2 BYTE DAO 
.................... #DEFINE      G_LCD20X4         PIN_D2         //A - 2 BYTE DAO 
.................... //XXXXXXXXXXXXXXXXXXXXXXXXXXXXXXXXXXXXXXXXXXXX  
.................... #DEFINE      RCK_BUZERELAY    PIN_D3     //B - 1 BYTE  
.................... #DEFINE      G_BUZERELAY      PIN_D2         //B - 1 BYTE  
....................  
.................... VOID XUAT_LCD20X4(UNSIGNED INT8 LCD_SIGNAL,LCD_INS_HTHI); 
....................  
.................... VOID XUAT_BUZZER_RELAY(); 
.................... //XXXXXXXXXXXXXXXXXXXXXXXXXXXXXXXXXXXXXXXXXXXX    
.................... #DEFINE     CHOT_2_IC_74573_A_B  OUTPUT_D(0XFC) 
....................  
.................... UNSIGNED INT8 TIN_HIEU_DK_74573_A; 
.................... #BIT G_4A         = TIN_HIEU_DK_74573_A.6 
.................... #BIT G_32A        = TIN_HIEU_DK_74573_A.4 
.................... #BIT G_LCDA       = TIN_HIEU_DK_74573_A.2 
.................... //XXXXXXXXXXXXXXXXXXXXXXXXXXXXXXXXXXXXXXXXXXXX          
.................... #DEFINE     MO_32_LED_DON        G_32A=0; //OUTPUT_LOW(G_32LED)  
.................... #DEFINE     TAT_32_LED_DON       G_32A=1; //OUTPUT_HIGH(G_32LED)  
.................... //XXXXXXXXXXXXXXXXXXXXXXXXXXXXXXXXXXXXXXXXXXXX          
.................... #DEFINE     MO_4_LED_7DOAN       G_4A=0;  //OUTPUT_LOW(G_4LED7DOAN) 
.................... #DEFINE     TAT_4_LED_7DOAN      G_4A=1;  //OUTPUT_HIGH(G_4LED7DOAN) 
.................... //XXXXXXXXXXXXXXXXXXXXXXXXXXXXXXXXXXXXXXXXXXXX  
.................... #DEFINE     MO_GLCD_LCD           G_LCDA=0;   //OUTPUT_LOW(G_LCD20X4) 
.................... #DEFINE     TAT_GLCD_LCD          G_LCDA=1;   // OUTPUT_LOW(G_LCD20X4) 
....................  
.................... UNSIGNED INT8 TIN_HIEU_DK_74573_B;   
.................... #BIT G_MTB        = TIN_HIEU_DK_74573_B.6 
.................... #BIT G_8B         = TIN_HIEU_DK_74573_B.4 
.................... #BIT G_RBDCB      = TIN_HIEU_DK_74573_B.2 
.................... //XXXXXXXXXXXXXXXXXXXXXXXXXXXXXXXXXXXXXXXXXXXX  
.................... #DEFINE     MO_LED_MATRAN        G_MTB=0; //OUTPUT_LOW(G_MATRANLED) 
.................... #DEFINE     TAT_LED_MATRAN       G_MTB=1; //OUTPUT_LOW(G_MATRANLED) 
.................... //XXXXXXXXXXXXXXXXXXXXXXXXXXXXXXXXXXXXXXXXXXXX        
.................... #DEFINE     MO_8_LED_QUET        G_8B=0;  //OUTPUT_LOW(G_8LEDQUET) 
.................... #DEFINE     TAT_8_LED_QUET       G_8B=1;  //OUTPUT_LOW(G_8LEDQUET) 
.................... //XXXXXXXXXXXXXXXXXXXXXXXXXXXXXXXXXXXXXXXXXXXX          
.................... #DEFINE     MO_RELAY_BUZZER_DC   G_RBDCB=0;  //OUTPUT_LOW(G_BUZERELAY) 
.................... #DEFINE     TAT_RELAY_BUZZER_DC  G_RBDCB=1;  //OUTPUT_LOW(G_BUZERELAY) 
....................  
.................... //XXXXXXXXXXXXXXXXXXXXXXXXXXXXXXXXXXXXXXXXXXXX 
.................... //CHUONG TRINH KIEM TRA PHIM BT1 
.................... //XXXXXXXXXXXXXXXXXXXXXXXXXXXXXXXXXXXXXXXXXXXX 
.................... UNSIGNED INT8 DL_BTN=0; 
.................... INT1 PHIM_BT0(UNSIGNED INT16 DL) 
.................... {   
....................     IF (!INPUT(BT0)) 
....................     {   
....................       DL_BTN++; 
....................        
....................       IF (DL_BTN>= DL) 
....................          { 
....................             DL_BTN =0; 
....................             RETURN(1); 
....................          } 
....................       ELSE RETURN(0); 
....................     } 
....................     ELSE    RETURN(0); 
.................... }  
.................... //XXXXXXXXXXXXXXXXXXXXXXXXXXXXXXXXXXXXXXXXXXXX 
.................... //CHUONG TRINH KIEM TRA PHIM BT1 
.................... //XXXXXXXXXXXXXXXXXXXXXXXXXXXXXXXXXXXXXXXXXXXX 
.................... INT1 PHIM_BT1(UNSIGNED INT16 DL ) 
.................... {   
....................     IF (!INPUT(BT1)) 
....................     {   
....................       DL_BTN++; 
....................        
....................       IF (DL_BTN>= DL) 
....................          { 
....................             DL_BTN =0; 
....................             RETURN(1); 
....................          } 
....................       ELSE RETURN(0); 
....................     } 
....................     ELSE    RETURN(0); 
.................... }  
.................... //XXXXXXXXXXXXXXXXXXXXXXXXXXXXXXXXXXXXXXXXXXXX 
.................... //CHUONG TRINH KIEM TRA PHIM BT2       
.................... //XXXXXXXXXXXXXXXXXXXXXXXXXXXXXXXXXXXXXXXXXXXX                                     
.................... INT1 PHIM_BT2(UNSIGNED INT16 DL ) 
.................... {                                         
....................     IF (!INPUT(BT2)) 
....................     {   
....................       DL_BTN++; 
....................        
....................       IF (DL_BTN>= DL) 
....................          { 
....................             DL_BTN =0; 
....................             RETURN(1); 
....................          } 
....................       ELSE RETURN(0); 
....................     } 
....................     ELSE    RETURN(0); 
....................                                           
.................... }       
....................  
.................... //XXXXXXXXXXXXXXXXXXXXXXXXXXXXXXXXXXXXXXXXXXXX 
.................... //CHUONG TRINH KIEM TRA PHIM BT3 
.................... //XXXXXXXXXXXXXXXXXXXXXXXXXXXXXXXXXXXXXXXXXXXX 
.................... INT1 PHIM_BT3(UNSIGNED INT16 DL,  UNSIGNED INT8 SOLAN  ) 
.................... {   
....................     IF (!INPUT(BT3)) 
....................     {   
....................       DL_BTN++; 
....................       IF(DL_BTN==1) RETURN(1); 
....................       ELSE 
....................       { 
....................          IF (DL_BTN>= DL) 
....................          DL_BTN =SOLAN; 
....................       } 
....................     } 
....................     ELSE    
....................     { 
....................       //DL_BTN =0; 
....................       RETURN(0); 
....................     } 
.................... }  
.................... //XXXXXXXXXXXXXXXXXXXXXXXXXXXXXXXXXXXXXXXXXXXX 
.................... //KHAI BAO DU LIEU 16 BIT CHO MODULE RELAY, TRIAC, BUZZER, DONG CO 
.................... //XXXXXXXXXXXXXXXXXXXXXXXXXXXXXXXXXXXXXXXXXXXX 
.................... UNSIGNED INT16 RBDC; 
.................... #BIT STEP_MOTOR_ENABLE  = RBDC.0    //1=ENA,0=DIS 
.................... #BIT STEP_MOTOR_IN1     = RBDC.1     
.................... #BIT STEP_MOTOR_IN2     = RBDC.2 
.................... #BIT STEP_MOTOR_IN3     = RBDC.3 
.................... #BIT STEP_MOTOR_IN4     = RBDC.4 
.................... #BIT DC_ENABLE          = RBDC.5    //1=ENA,0=DIS 
.................... #BIT PWRKEY             = RBDC.6    //KHOI TAO SIM900 
....................  
.................... #BIT BUZZER             = RBDC.8    //1=ON,0=OFF 
.................... #BIT TRIAC_1            = RBDC.9    //1=ON,0=OFF 
.................... #BIT TRIAC_2            = RBDC.10   //1=ON,0=OFF 
.................... #BIT RELAY_1            = RBDC.11   //0=ON,1=OFF 
.................... #BIT RELAY_2            = RBDC.12   //0=ON,1=OFF 
....................  
.................... //HAM 103 
.................... //XXXXXXXXXXXXXXXXXXXXXXXXXXXXXXXXXXXXXXXXXXXX 
.................... //CHUONG TRINH CON KHOI TAO IC CHOT 
.................... //XXXXXXXXXXXXXXXXXXXXXXXXXXXXXXXXXXXXXXXXXXXX          
.................... #DEFINE     CHO_IC_74573_A_GOI_DU_LIEU     OUTPUT_HIGH(ENABLE_573A) 
.................... #DEFINE     CHOT_IC_74573_A_GOI_DU_LIEU    OUTPUT_LOW(ENABLE_573A) 
....................  
.................... #DEFINE     CHO_IC_74573_B_GOI_DU_LIEU     OUTPUT_HIGH(ENABLE_573B) 
.................... #DEFINE     CHOT_IC_74573_B_GOI_DU_LIEU    OUTPUT_LOW(ENABLE_573B) 
.................... VOID MO_IC_74573_A_THONG_DL(); 
....................  
.................... //XXXXXXXXXXXXXXXXXXXXXXXXXXXXXXXXXXXXXXXXXXXX    
.................... CONST UNSIGNED CHAR MA7DOAN[16]= {0XC0,0XF9,0xA4,0XB0,0X99,0X92,0X82,0XF8, 
.................... 0X80,0X90,0x88, 0x83, 0xC6, 0xA1, 0x86, 0x8E}; 
.................... #DEFINE     MASO0    0XC0 
.................... #DEFINE     MASO1    0XF9 
.................... #DEFINE     MASO2    0XA4 
.................... #DEFINE     MASO3    0XB0 
.................... #DEFINE     MASO4    0X99 
.................... #DEFINE     MASO5    0X92 
.................... #DEFINE     MASO6    0X82 
.................... #DEFINE     MASO7    0XF8 
....................  
.................... //XXXXXXXXXXXXXXXXXXXXXXXXXXXXXXXXXXXXXXXXXXXX  
.................... //HAM 102 
.................... //XXXXXXXXXXXXXXXXXXXXXXXXXXXXXXXXXXXXXXXXXXXX     
.................... //XUAT 1 BYTE RA THANH GHI DICH 
.................... //XXXXXXXXXXXXXXXXXXXXXXXXXXXXXXXXXXXXXXXXXXXX     
.................... VOID XUAT_1BYTE(UNSIGNED INT8 BYTEXUAT) 
.................... { 
....................    UNSIGNED INT8   SB,X;    
....................    #BIT BSERI  = X.7 
....................    X = BYTEXUAT; 
*
0152:  MOVFF  45,47
....................    FOR (SB=0;SB<8;SB++) 
0156:  CLRF   46
0158:  MOVF   46,W
015A:  SUBLW  07
015C:  BNC   017A
....................       {                                                  
....................          OUTPUT_BIT(SSDO,BSERI);     
015E:  BTFSC  47.7
0160:  BRA    0166
0162:  BCF    F8D.2
0164:  BRA    0168
0166:  BSF    F8D.2
0168:  BCF    F96.2
....................          OUTPUT_LOW(SSCK); OUTPUT_HIGH(SSCK); 
016A:  BCF    F96.0
016C:  BCF    F8D.0
016E:  BCF    F96.0
0170:  BSF    F8D.0
....................          X= X<<1;          
0172:  BCF    FD8.0
0174:  RLCF   47,F
0176:  INCF   46,F
0178:  BRA    0158
....................      } 
017A:  RETURN 0
.................... } 
.................... //XXXXXXXXXXXXXXXXXXXXXXXXXXXXXXXXXXXXXXXXXXXX  
.................... //HAM 301 
.................... //XXXXXXXXXXXXXXXXXXXXXXXXXXXXXXXXXXXXXXXXXXXX 
.................... //CHUONG TRINH CON XUAT 4 BYTE RA 32 LED DON 
.................... //XXXXXXXXXXXXXXXXXXXXXXXXXXXXXXXXXXXXXXXXXXXX 
.................... VOID XUAT_32LED_DON_4BYTE(UNSIGNED INT8 BLD3,BLD2,BLD1,BLD0) 
.................... {      
....................       XUAT_1BYTE(BLD3);           
....................       XUAT_1BYTE(BLD2); 
....................       XUAT_1BYTE(BLD1);           
....................       XUAT_1BYTE(BLD0);             
....................       MO_32_LED_DON;       
....................       MO_IC_74573_A_THONG_DL();             
....................       OUTPUT_HIGH(RCK_32LED);    OUTPUT_LOW(RCK_32LED); 
....................       CHOT_IC_74573_A_GOI_DU_LIEU;       
.................... } 
.................... //HAM 302 
.................... //XXXXXXXXXXXXXXXXXXXXXXXXXXXXXXXXXXXXXXXXXXXX 
.................... //CHUONG TRINH CON XUAT 2 WORD 16 BITRA 32 LED DON 
.................... //XXXXXXXXXXXXXXXXXXXXXXXXXXXXXXXXXXXXXXXXXXXX 
.................... VOID XUAT_32LED_DON_2WORD(UNSIGNED INT16 WLD1, UNSIGNED INT16 WLD0) 
.................... {      
....................      UNSIGNED INT8  B3,B2,B1,B0; 
....................      B3 = WLD1>>8;  B2 = WLD1;  
....................      B1 = WLD0>>8;  B0 = WLD0; 
....................      XUAT_32LED_DON_4BYTE(B3,B2,B1,B0); 
.................... } 
.................... //HAM 303 
.................... //XXXXXXXXXXXXXXXXXXXXXXXXXXXXXXXXXXXXXXXXXXXX 
.................... //CHUONG TRINH CON XUAT 1 DOUBLE WORD RA 32 LED DON 
.................... //XXXXXXXXXXXXXXXXXXXXXXXXXXXXXXXXXXXXXXXXXXXX 
.................... VOID XUAT_32LED_DON_1DW(UNSIGNED LONG LONG DWLD) 
.................... {      
....................      UNSIGNED INT16  WD1,WD0; 
....................      WD1 = DWLD>>16;  WD0 = DWLD; 
....................      XUAT_32LED_DON_2WORD(WD1,WD0); 
.................... } 
....................  
.................... //HAM 304 
.................... //XXXXXXXXXXXXXXXXXXXXXXXXXXXXXXXXXXXXXXXXXXXX 
.................... //CHUONG TRINH CON MO 32 LED DON SANG 
.................... //XXXXXXXXXXXXXXXXXXXXXXXXXXXXXXXXXXXXXXXXXXXX 
.................... VOID MO_32LED_DON() 
.................... {         
....................      XUAT_32LED_DON_1DW(0XFFFFFFFF); 
.................... } 
.................... //HAM 305 
.................... //XXXXXXXXXXXXXXXXXXXXXXXXXXXXXXXXXXXXXXXXXXXX 
.................... //CHUONG TRINH CON TAT 32 LED DON  
.................... //XXXXXXXXXXXXXXXXXXXXXXXXXXXXXXXXXXXXXXXXXXXX 
.................... VOID TAT_32LED_DON() 
.................... {         
....................      XUAT_32LED_DON_1DW(0); 
.................... } 
.................... //XXXXXXXXXXXXXXXXXXXXXXXXXXXXXXXXXXXXXXXXXXXX     
.................... //XUAT 1 BIT ROI TRA LAI KET QUA SAU KHI DICH DI 1 BIT 
.................... //XXXXXXXXXXXXXXXXXXXXXXXXXXXXXXXXXXXXXXXXXXXX     
.................... UNSIGNED  INT8 XUAT_1BIT(UNSIGNED INT8 BYTEXUAT) 
.................... { 
....................       UNSIGNED INT8   XBITX;    
....................       #BIT BSERIX  = XBITX.0 
....................       XBITX = BYTEXUAT; 
....................                                              
....................       OUTPUT_BIT(SSDO,BSERIX);     
....................       OUTPUT_LOW(SSCK); OUTPUT_HIGH(SSCK); 
....................       XBITX= XBITX>>1;    
....................       RETURN(XBITX);   
.................... } 
.................... //XXXXXXXXXXXXXXXXXXXXXXXXXXXXXXXXXXXXXXXXXXXX  
.................... //HAM 101 
.................... //XXXXXXXXXXXXXXXXXXXXXXXXXXXXXXXXXXXXXXXXXXXX     
.................... //HAM KHOI TAO CAC PORT VA IC CHOT 
.................... //XXXXXXXXXXXXXXXXXXXXXXXXXXXXXXXXXXXXXXXXXXXX     
.................... VOID SET_UP_PORT_IC_CHOT() 
.................... {      
....................       SET_TRIS_D(0x00);     
*
0134:  MOVLW  00
0136:  MOVWF  F95
....................       SET_TRIS_E(0X00); 
0138:  MOVWF  F96
....................       OUTPUT_D(0XFF); 
013A:  CLRF   F95
013C:  SETF   F8C
....................       TIN_HIEU_DK_74573_A=0XFF;   
013E:  SETF   04
....................       TIN_HIEU_DK_74573_B=0XFF;       
0140:  SETF   05
....................       CHOT_IC_74573_A_GOI_DU_LIEU; 
0142:  BCF    F95.1
0144:  BCF    F8C.1
....................       CHOT_IC_74573_B_GOI_DU_LIEU;   
0146:  BCF    F95.0
0148:  BCF    F8C.0
....................       RBDC=0; 
014A:  CLRF   08
014C:  CLRF   07
014E:  GOTO   0DB6 (RETURN)
.................... } 
.................... //HAM 104 
.................... //XXXXXXXXXXXXXXXXXXXXXXXXXXXXXXXXXXXXXXXXXXXX     
.................... //XUAT CÁC THIEU DIEU KHIEN  
.................... //GIU NGUYEN CAC TRANG THAI CUA 2 MODULE KHAC 
.................... //XXXXXXXXXXXXXXXXXXXXXXXXXXXXXXXXXXXXXXXXXXXX     
.................... VOID MO_IC_74573_A_THONG_DL() 
.................... {      
....................       OUTPUT_D(0X00); 
*
017C:  CLRF   F95
017E:  CLRF   F8C
....................       OUTPUT_BIT(G_32LED,G_32A); 
0180:  BTFSC  04.4
0182:  BRA    0188
0184:  BCF    F8C.4
0186:  BRA    018A
0188:  BSF    F8C.4
018A:  BCF    F95.4
....................       OUTPUT_BIT(G_4LED7DOAN,G_4A); 
018C:  BTFSC  04.6
018E:  BRA    0194
0190:  BCF    F8C.6
0192:  BRA    0196
0194:  BSF    F8C.6
0196:  BCF    F95.6
....................       OUTPUT_BIT(G_LCD20X4,G_LCDA);   
0198:  BTFSC  04.2
019A:  BRA    01A0
019C:  BCF    F8C.2
019E:  BRA    01A2
01A0:  BSF    F8C.2
01A2:  BCF    F95.2
....................       CHO_IC_74573_A_GOI_DU_LIEU; 
01A4:  BCF    F95.1
01A6:  BSF    F8C.1
01A8:  GOTO   01C8 (RETURN)
.................... } 
.................... VOID MO_IC_74573_B_THONG_DL() 
.................... {      
....................       OUTPUT_D(0X00); 
*
077A:  CLRF   F95
077C:  CLRF   F8C
....................       OUTPUT_BIT(G_MATRANLED,G_MTB); 
077E:  BTFSC  05.6
0780:  BRA    0786
0782:  BCF    F8C.6
0784:  BRA    0788
0786:  BSF    F8C.6
0788:  BCF    F95.6
....................       OUTPUT_BIT(G_8LEDQUET,G_8B); 
078A:  BTFSC  05.4
078C:  BRA    0792
078E:  BCF    F8C.4
0790:  BRA    0794
0792:  BSF    F8C.4
0794:  BCF    F95.4
....................       OUTPUT_BIT(G_BUZERELAY,G_RBDCB);  
0796:  BTFSC  05.2
0798:  BRA    079E
079A:  BCF    F8C.2
079C:  BRA    07A0
079E:  BSF    F8C.2
07A0:  BCF    F95.2
....................       CHO_IC_74573_B_GOI_DU_LIEU; 
07A2:  BCF    F95.0
07A4:  BSF    F8C.0
07A6:  RETURN 0
.................... } 
.................... //ham 401 
.................... //XXXXXXXXXXXXXXXXXXXXXXXXXXXXXXXXXXXXXXXXXXXX 
.................... //CHUONG TRINH CON XUAT 4 BYTE RA 4 LED 7 DOAN 
.................... //XXXXXXXXXXXXXXXXXXXXXXXXXXXXXXXXXXXXXXXXXXXX 
.................... VOID XUAT_4LED_7DOAN_4SO(UNSIGNED INT BL743,BL742,BL741,BL740) 
.................... {      
....................       XUAT_1BYTE(BL740);   XUAT_1BYTE(BL741); 
....................       XUAT_1BYTE(BL742);   XUAT_1BYTE(BL743); 
....................        
....................       MO_4_LED_7DOAN; 
....................       MO_IC_74573_A_THONG_DL(); 
....................         
....................       OUTPUT_LOW(RCK_4LED7DOAN);   OUTPUT_HIGH(RCK_4LED7DOAN);  
....................       CHOT_IC_74573_A_GOI_DU_LIEU; 
.................... } 
.................... //ham 404 
.................... VOID XUAT_4LED_7DOAN_3SO(UNSIGNED INT BL742,BL741,BL740) 
.................... {      
....................      XUAT_4LED_7DOAN_4SO(0XFF,BL742,BL741,BL740); 
.................... } 
.................... //ham 403 
.................... VOID XUAT_4LED_7DOAN_2SO(UNSIGNED INT BL741,BL740) 
.................... {      
....................      XUAT_4LED_7DOAN_4SO(0XFF,0XFF,BL741,BL740); 
.................... } 
.................... //ham 402 
.................... VOID XUAT_4LED_7DOAN_1SO(UNSIGNED INT BL740) 
.................... {      
....................      XUAT_4LED_7DOAN_4SO(0XFF,0XFF,0XFF,BL740); 
.................... } 
....................  
.................... //ham 405 
.................... //XXXXXXXXXXXXXXXXXXXXXXXXXXXXXXXXXXXXXXXXXXXXXXXXXXXXXXXXXXXXX 
.................... //CHUONG TRINH CON HIEN THI DU LIEU 16 BIT TREN 4 LED 7 DOAN 
.................... //XXXXXXXXXXXXXXXXXXXXXXXXXXXXXXXXXXXXXXXXXXXXXXXXXXXXXXXXXXXXX 
.................... UNSIGNED CHAR DONVI4,CHUC4,TRAM4,NGAN4; 
.................... VOID  XUAT_4LED_7DOAN_GIAIMA_XOA_SO0 (UNSIGNED INT16 TAM) 
.................... {          
....................       DONVI4 = MA7DOAN[TAM %10];          
....................       CHUC4  = MA7DOAN[TAM/10%10]; 
....................       TRAM4  = MA7DOAN[TAM/100%10];  
....................       NGAN4  = MA7DOAN[TAM/1000%10];        
....................       IF (NGAN4==0XC0) 
....................       { 
....................          NGAN4=0XFF; 
....................          IF (TRAM4==0XC0) 
....................          { 
....................             TRAM4=0XFF; 
....................             IF (CHUC4==0XC0)   CHUC4=0XFF; 
....................          } 
....................       } 
....................       XUAT_4LED_7DOAN_4SO(NGAN4,TRAM4,CHUC4,DONVI4);    
.................... } 
.................... UNSIGNED INT8 LCDDATA=0;  
.................... UNSIGNED INT8 LCDCONTROL=0; 
.................... UNSIGNED INT8 GLCDDATA=0; 
.................... UNSIGNED INT8 GLCDCONTROL=0;  
.................... //HAM 701 
.................... //XXXXXXXXXXXXXXXXXXXXXXXXXXXXXXXXXXXXXXXXXXXXXXXXXXXXXXXXXXXXX 
.................... //CHUONG TRINH CON XUAT DU LIEU 4 BYTE RA GLCD VA LCD 
.................... //XXXXXXXXXXXXXXXXXXXXXXXXXXXXXXXXXXXXXXXXXXXXXXXXXXXXXXXXXXXXX 
.................... VOID XUAT_GLCD_LCD() 
.................... {       
....................     XUAT_1BYTE(GLCDCONTROL);              
*
01AC:  MOVFF  10,45
01B0:  RCALL  0152
....................     XUAT_1BYTE(GLCDDATA); 
01B2:  MOVFF  0F,45
01B6:  RCALL  0152
....................     XUAT_1BYTE(LCDCONTROL);        
01B8:  MOVFF  0E,45
01BC:  RCALL  0152
....................     XUAT_1BYTE(LCDDATA);       
01BE:  MOVFF  0D,45
01C2:  RCALL  0152
....................        
....................     MO_GLCD_LCD; 
01C4:  BCF    04.2
....................     MO_IC_74573_A_THONG_DL();             
01C6:  BRA    017C
....................     OUTPUT_HIGH(RCK_LCD20X4);      
01C8:  BCF    F95.3
01CA:  BSF    F8C.3
....................     OUTPUT_LOW(RCK_LCD20X4); 
01CC:  BCF    F95.3
01CE:  BCF    F8C.3
....................     CHOT_IC_74573_A_GOI_DU_LIEU; 
01D0:  BCF    F95.1
01D2:  BCF    F8C.1
01D4:  GOTO   01E6 (RETURN)
.................... } 
.................... //HAM 702 
.................... VOID XUAT_LCD20X4(UNSIGNED INT8 LCD_SIGNAL,LCD_INS_HTHI) 
.................... {      
....................     LCDCONTROL = ~LCD_SIGNAL; 
01D8:  MOVF   43,W
01DA:  MOVWF  0E
01DC:  COMF   0E,F
....................     LCDDATA    = ~LCD_INS_HTHI;       
01DE:  MOVFF  44,0D
01E2:  COMF   0D,F
....................     XUAT_GLCD_LCD(); 
01E4:  BRA    01AC
01E6:  RETURN 0
.................... } 
.................... //HAM 703 
.................... VOID XUAT_GLCD128X64(UNSIGNED INT8 GLCD_SIGNAL,GLCD_INS_HTHI) 
.................... {      
....................     GLCDCONTROL = ~GLCD_SIGNAL; 
....................     GLCDDATA    = ~GLCD_INS_HTHI;      
....................     XUAT_GLCD_LCD(); 
.................... } 
.................... //HAM 501 
.................... //XXXXXXXXXXXXXXXXXXXXXXXXXXXXXXXXXXXXXXXXXXXX 
.................... //CHUONG TRINH CON XUAT 2 BYTE RA DK 1 LED QUET SANG 
.................... //XXXXXXXXXXXXXXXXXXXXXXXXXXXXXXXXXXXXXXXXXXXX 
.................... VOID XUAT_8LED_7DOAN_QUET_1(UNSIGNED INT MA,SO_HTHI) 
.................... {      
....................       XUAT_1BYTE(~MA);   XUAT_1BYTE(~SO_HTHI); 
*
07E4:  MOVF   3A,W
07E6:  MOVWF  3C
07E8:  COMF   3C,F
07EA:  MOVFF  3C,45
07EE:  RCALL  0152
07F0:  MOVFF  3B,3C
07F4:  COMF   3C,F
07F6:  MOVFF  3C,45
07FA:  RCALL  0152
....................        
....................       MO_8_LED_QUET; 
07FC:  BCF    05.4
....................       MO_IC_74573_B_THONG_DL(); 
07FE:  RCALL  077A
....................        
....................       OUTPUT_HIGH(RCK_8LEDQUET); OUTPUT_LOW(RCK_8LEDQUET); 
0800:  BCF    F95.5
0802:  BSF    F8C.5
0804:  BCF    F95.5
0806:  BCF    F8C.5
....................       CHOT_IC_74573_B_GOI_DU_LIEU; 
0808:  BCF    F95.0
080A:  BCF    F8C.0
080C:  GOTO   0816 (RETURN)
.................... } 
.................... //HAM 502 
.................... //XXXXXXXXXXXXXXXXXXXXXXXXXXXXXXXXXXXXXXXXXXXX 
.................... //CHUONG TRINH CON XUAT 2 BYTE RA TAT 8 LED QUET 
.................... //XXXXXXXXXXXXXXXXXXXXXXXXXXXXXXXXXXXXXXXXXXXX 
.................... VOID XUAT_8LED_7DOAN_QUET_TAT_LED() 
.................... { 
....................    XUAT_8LED_7DOAN_QUET_1(0XFF,0XFF); 
0810:  SETF   3A
0812:  SETF   3B
0814:  BRA    07E4
0816:  GOTO   085E (RETURN)
.................... } 
.................... //HAM 503 
.................... //XXXXXXXXXXXXXXXXXXXXXXXXXXXXXXXXXXXXXXXXXXXX 
.................... //CHUONG TRINH CON HIEN THI LED THEO THU TU 
.................... //XXXXXXXXXXXXXXXXXXXXXXXXXXXXXXXXXXXXXXXXXXXX 
.................... CONST UNSIGNED CHAR TTLEDQUET[8]= {0x7F,0xBF,0xDF,0xEF,0xF7,0xFB,0xFD,0xFE}; 
.................... VOID XUAT_8LED_7DOAN_QUET_2(UNSIGNED INT THUTULED,SO_HTHI) 
.................... {          
....................       XUAT_1BYTE(~ (TTLEDQUET[THUTULED]));   XUAT_1BYTE(~SO_HTHI);      
*
07A8:  CLRF   03
07AA:  MOVF   3B,W
07AC:  MOVFF  FF2,3D
07B0:  BCF    FF2.7
07B2:  RCALL  0024
07B4:  BTFSC  3D.7
07B6:  BSF    FF2.7
07B8:  MOVWF  01
07BA:  MOVWF  3D
07BC:  COMF   3D,F
07BE:  MOVFF  3D,45
07C2:  RCALL  0152
07C4:  MOVFF  3C,3D
07C8:  COMF   3D,F
07CA:  MOVFF  3D,45
07CE:  RCALL  0152
....................       MO_8_LED_QUET; 
07D0:  BCF    05.4
....................       MO_IC_74573_B_THONG_DL(); 
07D2:  RCALL  077A
....................       OUTPUT_HIGH(RCK_8LEDQUET); OUTPUT_LOW(RCK_8LEDQUET); 
07D4:  BCF    F95.5
07D6:  BSF    F8C.5
07D8:  BCF    F95.5
07DA:  BCF    F8C.5
....................       CHOT_IC_74573_B_GOI_DU_LIEU; 
07DC:  BCF    F95.0
07DE:  BCF    F8C.0
07E0:  GOTO   0852 (RETURN)
.................... } 
.................... //HAM 504 
.................... //XXXXXXXXXXXXXXXXXXXXXXXXXXXXXXXXXXXXXXXXXXXX 
.................... //CHUONG TRINH CON HIEN THI 8 SO TREN 8 LED QUET - CO KIEM TRA 
.................... //XXXXXXXXXXXXXXXXXXXXXXXXXXXXXXXXXXXXXXXXXXXX 
.................... UNSIGNED INT8 LED_7DQ[8]={0XFF,0XFF,0XFF,0XFF,0XFF,0XFF,0XFF,0XFF}; 
.................... UNSIGNED INT8 TT8LED=0; 
.................... VOID HIEN_THI_8LED_7DOAN_QUET() 
.................... {      
....................       FOR(TT8LED=0;TT8LED<8;TT8LED++) 
*
081A:  CLRF   19
081C:  MOVF   19,W
081E:  SUBLW  07
0820:  BNC   0862
....................          IF (LED_7DQ[TT8LED]!=0XFF) 
0822:  CLRF   03
0824:  MOVF   19,W
0826:  ADDLW  11
0828:  MOVWF  FE9
082A:  MOVLW  00
082C:  ADDWFC 03,W
082E:  MOVWF  FEA
0830:  INCFSZ FEF,W
0832:  BRA    0836
0834:  BRA    085E
....................          {            
....................             XUAT_8LED_7DOAN_QUET_2(TT8LED, LED_7DQ[TT8LED]); 
0836:  CLRF   03
0838:  MOVF   19,W
083A:  ADDLW  11
083C:  MOVWF  FE9
083E:  MOVLW  00
0840:  ADDWFC 03,W
0842:  MOVWF  FEA
0844:  MOVFF  FEF,3A
0848:  MOVFF  19,3B
084C:  MOVFF  3A,3C
0850:  BRA    07A8
....................             DELAY_US(100); 
0852:  MOVLW  A6
0854:  MOVWF  00
0856:  DECFSZ 00,F
0858:  BRA    0856
085A:  NOP   
....................             XUAT_8LED_7DOAN_QUET_TAT_LED();            
085C:  BRA    0810
085E:  INCF   19,F
0860:  BRA    081C
....................             } 
0862:  GOTO   0E34 (RETURN)
.................... } 
.................... //HAM 505 
.................... //XXXXXXXXXXXXXXXXXXXXXXXXXXXXXXXXXXXXXXXXXXXX 
.................... //CHUONG TRINH CON HIEN THI 8 SO TREN 8 LED QUET - KHONG KIEM TRA 
.................... //XXXXXXXXXXXXXXXXXXXXXXXXXXXXXXXXXXXXXXXXXXXX 
.................... VOID HIEN_THI_8LED_7DOAN_QUET_ALL() 
.................... {      
....................       FOR(TT8LED=0;TT8LED<8;TT8LED++)          
....................          {            
....................             XUAT_8LED_7DOAN_QUET_2(TT8LED, LED_7DQ[TT8LED]); 
....................             DELAY_US(100); 
....................             XUAT_8LED_7DOAN_QUET_TAT_LED();            
....................             } 
.................... } 
....................  
.................... VOID DELAY_QUET_8LED(UNSIGNED INT16 DL) 
.................... {  
....................       UNSIGNED INT8 I; 
....................       FOR (I=0; I<DL;I++) 
....................       HIEN_THI_8LED_7DOAN_QUET_ALL(); 
.................... }  
....................  
.................... VOID GIAI_MA_GAN_CHO_8LED_QUET_16_XOA(UNSIGNED INT16 X) 
.................... {      
....................       LED_7DQ[0]= MA7DOAN [X %10];     
....................       LED_7DQ[1]= MA7DOAN [X/10%10]; 
....................       LED_7DQ[2]= MA7DOAN [X/100%10];     
....................       LED_7DQ[3]= MA7DOAN [X/1000%10]; 
....................       LED_7DQ[4]= MA7DOAN [X/10000%10]; 
....................       IF (LED_7DQ[4]==MASO0)  
....................       { 
....................             LED_7DQ[4]=0XFF; 
....................             IF (LED_7DQ[3]==MASO0)  
....................             { 
....................                LED_7DQ[3]=0XFF; 
....................                IF (LED_7DQ[2]==MASO0)  
....................                { 
....................                   LED_7DQ[2]=0XFF; 
....................                   IF (LED_7DQ[1]==MASO0)  
....................                   { 
....................                      LED_7DQ[1]=0XFF; 
....................                   } 
....................                } 
....................             } 
....................       } 
....................              
.................... } 
.................... //XXXXXXXXXXXXXXXXXXXXXXXXXXXXXXXXXXXXXXXXXXXX          
.................... VOID XUAT_2BYTE(UNSIGNED INT16 BYTE2XUAT) 
.................... { 
....................    INT8 SBB; 
....................    UNSIGNED INT16   XX;   //SHORT  BSERI; 
....................    #BIT BSERIX  = XX.15 
....................    XX = BYTE2XUAT; 
....................    FOR (SBB=0;SBB<16;SBB++) 
....................       {                                                  
....................          OUTPUT_BIT(SSDO,BSERIX);     
....................          OUTPUT_LOW(SSCK);          
....................          OUTPUT_HIGH(SSCK); 
....................          XX= XX<<1;          
....................      } 
.................... } 
.................... //XXXXXXXXXXXXXXXXXXXXXXXXXXXXXXXXXXXXXXXXXXXX 
.................... //CHUONG TRINH CON XUAT RA LED MA TRAN 
.................... //XXXXXXXXXXXXXXXXXXXXXXXXXXXXXXXXXXXXXXXXXXXX 
.................... VOID XUAT_MATRANLED(UNSIGNED INT16 MAHANG,UNSIGNED INT16 MACOT1, 
.................... UNSIGNED INT16 MACOT2,UNSIGNED INT16 MACOT3) 
.................... {       
....................       XUAT_2BYTE(MACOT3); 
....................       XUAT_2BYTE(MACOT2); 
....................       XUAT_2BYTE(MACOT1); 
....................       XUAT_2BYTE(MAHANG); 
....................        
....................       MO_LED_MATRAN; 
....................       MO_IC_74573_B_THONG_DL(); 
....................        
....................       OUTPUT_HIGH(RCK_MATRANLED); OUTPUT_LOW(RCK_MATRANLED);  
....................       CHOT_IC_74573_B_GOI_DU_LIEU; 
.................... } 
.................... //XXXXXXXXXXXXXXXXXXXXXXXXXXXXXXXXXXXXXXXXXXXX 
.................... //CHUONG TRINH CON XUAT RA LED MA TRAN 
.................... //XXXXXXXXXXXXXXXXXXXXXXXXXXXXXXXXXXXXXXXXXXXX 
.................... VOID TAT_MATRANLED() 
.................... {       
....................       XUAT_2BYTE(0); 
....................       XUAT_2BYTE(0); 
....................       XUAT_2BYTE(0); 
....................       XUAT_2BYTE(0);            
....................       OUTPUT_HIGH(RCK_MATRANLED);  
....................       OUTPUT_LOW(RCK_MATRANLED); 
.................... } 
.................... UNSIGNED  INT8 HIEU_CHINH_4BIT_CAO(UNSIGNED INT8 XZY) 
.................... { 
....................       INT1  BTG; 
....................       UNSIGNED INT8   BX;    
....................       #BIT BIT4  = BX.4 
....................       #BIT BIT5  = BX.5 
....................       #BIT BIT6  = BX.6 
....................       #BIT BIT7  = BX.7 
....................       BX=XZY; 
....................       BTG=BIT4;   BIT4=BIT7;  BIT7=BTG; 
....................       BTG=BIT5;   BIT5=BIT6;  BIT6=BTG;       
....................       RETURN(BX);   
.................... } 
.................... //HAM 601 
.................... //XXXXXXXXXXXXXXXXXXXXXXXXXXXXXXXXXXXXXXXXXXXXXXXXXXXX 
.................... //MODULE DIEU KHIEN RELAY,TRIAC, BUZZER, DONG CO, SIM 
.................... //XXXXXXXXXXXXXXXXXXXXXXXXXXXXXXXXXXXXXXXXXXXXXXXXXXXX 
.................... VOID XUAT_BUZZER_RELAY() 
.................... {      
....................    UNSIGNED INT8 RBDC1,RBDC2; 
....................       RBDC1=RBDC; RBDC2=RBDC>>8;       
....................       XUAT_1BYTE(RBDC2);       
....................       XUAT_1BYTE(RBDC1); 
....................       MO_RELAY_BUZZER_DC; 
....................       MO_IC_74573_B_THONG_DL(); 
....................        
....................       OUTPUT_HIGH(RCK_BUZERELAY);   OUTPUT_LOW(RCK_BUZERELAY); 
....................       CHOT_IC_74573_B_GOI_DU_LIEU; 
.................... } 
.................... //HAM 602 
.................... //XXXXXXXXXXXXXXXXXXXXXXXXXXXXXXXXXXXXXXXXXXXXXXXXXXXX 
.................... VOID BUZZER_ON() 
.................... {     
....................       BUZZER=1; 
....................       XUAT_BUZZER_RELAY();          
.................... } 
.................... //HAM 603 
.................... //XXXXXXXXXXXXXXXXXXXXXXXXXXXXXXXXXXXXXXXXXXXXXXXXXXXX 
.................... VOID BUZZER_OFF() 
.................... {      
....................       BUZZER=0; 
....................       XUAT_BUZZER_RELAY(); 
.................... } 
.................... //HAM 604 
.................... //XXXXXXXXXXXXXXXXXXXXXXXXXXXXXXXXXXXXXXXXXXXXXXXXXXXX 
.................... VOID RELAY_1_ON() 
.................... {     
....................       RELAY_1=1; 
....................       XUAT_BUZZER_RELAY();          
.................... } 
.................... //HAM 603 
.................... //XXXXXXXXXXXXXXXXXXXXXXXXXXXXXXXXXXXXXXXXXXXXXXXXXXXX 
.................... VOID RELAY_1_OFF() 
.................... {     
....................       RELAY_1=0; 
....................       XUAT_BUZZER_RELAY();          
.................... } 
.................... //HAM 604 
.................... //XXXXXXXXXXXXXXXXXXXXXXXXXXXXXXXXXXXXXXXXXXXXXXXXXXXX 
.................... VOID RELAY_2_ON() 
.................... {     
....................       RELAY_2=1; 
....................       XUAT_BUZZER_RELAY();          
.................... } 
.................... //HAM 607 
.................... //XXXXXXXXXXXXXXXXXXXXXXXXXXXXXXXXXXXXXXXXXXXXXXXXXXXX 
.................... VOID RELAY_2_OFF() 
.................... {     
....................       RELAY_2=0; 
....................       XUAT_BUZZER_RELAY();          
.................... } 
.................... //HAM 608 
.................... //XXXXXXXXXXXXXXXXXXXXXXXXXXXXXXXXXXXXXXXXXXXXXXXXXXXX 
.................... VOID RELAY_1_RELAY_2_ON() 
.................... {     
....................       RELAY_1=1;  RELAY_2=1; 
....................       XUAT_BUZZER_RELAY();          
.................... } 
.................... //HAM 609 
.................... //XXXXXXXXXXXXXXXXXXXXXXXXXXXXXXXXXXXXXXXXXXXXXXXXXXXX 
.................... VOID RELAY_1_RELAY_2_OFF() 
.................... {     
....................       RELAY_1=0;  RELAY_2=0; 
....................       XUAT_BUZZER_RELAY();          
.................... } 
.................... //HAM 610 
.................... //XXXXXXXXXXXXXXXXXXXXXXXXXXXXXXXXXXXXXXXXXXXXXXXXXXXX 
.................... VOID TRIAC_1_ON() 
.................... {     
....................       TRIAC_1=1; 
....................       XUAT_BUZZER_RELAY();          
.................... } 
.................... //HAM 611 
.................... //XXXXXXXXXXXXXXXXXXXXXXXXXXXXXXXXXXXXXXXXXXXXXXXXXXXX 
.................... VOID TRIAC_1_OFF() 
.................... {     
....................       TRIAC_1=0; 
....................       XUAT_BUZZER_RELAY();          
.................... } 
.................... //HAM 612 
.................... //XXXXXXXXXXXXXXXXXXXXXXXXXXXXXXXXXXXXXXXXXXXXXXXXXXXX 
.................... VOID TRIAC_2_ON() 
.................... {     
....................       TRIAC_2=1; 
....................       XUAT_BUZZER_RELAY();          
.................... } 
.................... //HAM 613 
.................... //XXXXXXXXXXXXXXXXXXXXXXXXXXXXXXXXXXXXXXXXXXXXXXXXXXXX 
.................... VOID TRIAC_2_OFF() 
.................... {     
....................       TRIAC_2=0; 
....................       XUAT_BUZZER_RELAY();          
.................... } 
.................... //XXXXXXXXXXXXXXXXXXXXXXXXXXXXXXXXXXXXXXXXXXXX 
....................  
....................  
....................  
.................... #include <TV_PICKIT2_SHIFT_DS13B07_I2C.c> //#include <tv_pickit2_shift_lcd.c> da co thu vien  
.................... #INCLUDE <TV_PICKIT2_SHIFT_LCD.c> 
.................... UNSIGNED INT8 LCD_CONTROL;   
.................... #bit LCD_P = LCD_CONTROL.3 
.................... #bit LCD_RS = LCD_CONTROL.2 
.................... #bit LCD_RW = LCD_CONTROL.1 
.................... #bit LCD_E  = LCD_CONTROL.0 
....................  
.................... #DEFINE LCD_FUNCTION_SET       0X38 
.................... #DEFINE LCD_DISPLAY_CONTROL    0X0C 
.................... #DEFINE LCD_CLEAR_DISPLAY      0X01 
.................... #DEFINE LCD_ENTRY_MODE         0X06 
.................... #DEFINE LCD_SHIFT_LEFT         0X18 
.................... #DEFINE LCD_SHIFT_RIGHT        0X1C 
....................  
.................... #DEFINE LCD_ADDR_LINE1         0X80 
.................... #DEFINE LCD_ADDR_LINE2         0XC0 
.................... #DEFINE LCD_ADDR_LINE3         0X94 
.................... #DEFINE LCD_ADDR_LINE4         0XD4 
....................  
.................... VOID LCD_XUAT_8BIT(INT8 LCD_DATA_X) 
.................... { 
....................       LCD_E=1; XUAT_LCD20X4(LCD_CONTROL,LCD_DATA_X);      
*
01E8:  BSF    1A.0
01EA:  MOVFF  1A,43
01EE:  MOVFF  42,44
01F2:  RCALL  01D8
....................       LCD_E=0; XUAT_LCD20X4(LCD_CONTROL,LCD_DATA_X);  
01F4:  BCF    1A.0
01F6:  MOVFF  1A,43
01FA:  MOVFF  42,44
01FE:  RCALL  01D8
0200:  RETURN 0
.................... } 
.................... void LCD_COMMAND(INT8 LCD_DATA_X)    
....................   { 
....................       LCD_RS = 0; 
0202:  BCF    1A.2
....................       LCD_XUAT_8BIT(LCD_DATA_X); 
0204:  MOVFF  41,42
0208:  RCALL  01E8
....................       DELAY_US(20); 
020A:  MOVLW  20
020C:  MOVWF  00
020E:  DECFSZ 00,F
0210:  BRA    020E
0212:  BRA    0214
0214:  NOP   
0216:  RETURN 0
....................   } 
.................... void LCD_DATA(INT8 LCD_DATA_X)        
....................   { 
....................       LCD_RS = 1;      
*
049A:  BSF    1A.2
....................       LCD_XUAT_8BIT(LCD_DATA_X); 
049C:  MOVFF  3E,42
04A0:  RCALL  01E8
....................       DELAY_US(20); 
04A2:  MOVLW  20
04A4:  MOVWF  00
04A6:  DECFSZ 00,F
04A8:  BRA    04A6
04AA:  BRA    04AC
04AC:  NOP   
04AE:  RETURN 0
....................   } 
....................    
.................... VOID SETUP_LCD () 
.................... {                      
....................          LCD_E  = 0;  
*
023E:  BCF    1A.0
....................          LCD_RW = 0;  
0240:  BCF    1A.1
....................          LCD_RS = 1;  
0242:  BSF    1A.2
....................          LCD_P =0; 
0244:  BCF    1A.3
....................          LCD_COMMAND(LCD_FUNCTION_SET);          
0246:  MOVLW  38
0248:  MOVWF  41
024A:  RCALL  0202
....................          DELAY_US(40); 
024C:  MOVLW  42
024E:  MOVWF  00
0250:  DECFSZ 00,F
0252:  BRA    0250
0254:  NOP   
....................          LCD_COMMAND(LCD_DISPLAY_CONTROL);    
0256:  MOVLW  0C
0258:  MOVWF  41
025A:  RCALL  0202
....................          DELAY_US(40); 
025C:  MOVLW  42
025E:  MOVWF  00
0260:  DECFSZ 00,F
0262:  BRA    0260
0264:  NOP   
....................          LCD_COMMAND(LCD_CLEAR_DISPLAY);       
0266:  MOVLW  01
0268:  MOVWF  41
026A:  RCALL  0202
....................          DELAY_MS(2); 
026C:  MOVLW  02
026E:  MOVWF  3C
0270:  RCALL  0218
....................          LCD_COMMAND(LCD_ENTRY_MODE);        
0272:  MOVLW  06
0274:  MOVWF  41
0276:  RCALL  0202
....................          DELAY_US(40);                 
0278:  MOVLW  42
027A:  MOVWF  00
027C:  DECFSZ 00,F
027E:  BRA    027C
0280:  NOP   
0282:  GOTO   0DBA (RETURN)
.................... } 
....................  
.................... CONST UNSIGNED CHAR LCD_SO_X[10+1+1+1+7][6] ={ 
....................                   0,1,2,5,3,4,               // SO 0 
....................                   1,2,32,3,7,3,              // SO 1 
....................                   6,6,2,5,3,3,               // SO 2 
....................                   6,6,2,3,3,4,               // SO 3 
....................                   7,3,7,32,32,7,             // SO 4 
....................                   7,6,6,3,3,4,               // SO 5 
....................                   0,6,6,5,3,4,               // SO 6 
....................                   1,1,7,32,32,7,             // SO 7 
....................                   0,6,2,5,3,4,               // SO 8 
....................                   0,6,2,3,3,4,               // SO 9 
....................                   32,32,32,32,32,32,         // KHOANG TRANG 0x20 tai vi tri 10 
....................                   0,6,2,5,32,32,              // CHU "P" tai vi tri 11 
....................                   32,32,32,32,7,32,           // DAU CHAM tai vi tri 12 
....................                   7, 32, 32, 7, 6, 7,          // CHU "B" tai vi tri 13 
....................                   7, 3, 7, 7, 32, 7,          // CHU "H" tai vi tri 14 
....................                   3, 3, 7, 7, 3, 7,           // CHU "d" tai vi tri 15 
....................                   32, 32, 32, 3, 3, 3,        // dau gach duoi tai vi tri 16 
....................                   32, 1, 32, 32, 32, 32,      // dau do (oC) tai vi tri 17 
....................                   7, 1, 1, 7, 3, 3,           // CHU "C" tai vi tri 18 
....................                   32, 1, 32, 32, 1, 32       // DAU HAI CHAM : tai vi tri 19 
....................                   }; 
....................                    
....................                    
.................... CONST UNSIGNED CHAR LCD_MA_8DOAN[] = { 
....................    0x07,0x0F,0x1F,0x1F,0x1F,0x1F,0x1F,0x1F,  //DOAN F - 0 
....................    0x1F,0x1F,0x1F,0X00,0X00,0X00,0X00,0X00,  //DOAN A - 1 
....................    0x1C,0x1E,0x1F,0x1F,0x1F,0x1F,0x1F,0x1F,  //DOAN B - 2 
....................    0X00,0X00,0X00,0X00,0X00,0x1F,0x1F,0x1F,  //DOAN D - 3 
....................    0x1F,0x1F,0x1F,0x1F,0x1F,0x1F,0x1E,0x1C,  //DOAN C - 4 
....................    0x1F,0x1F,0x1F,0x1F,0x1F,0x1F,0x0F,0x07,  //DOAN E - 5 
....................    0x1F,0x1F,0x1F,0X00,0X00,0X00,0x1F,0x1F,  //DOAN G+D-6  
....................    0x1F,0x1F,0x1F,0x1F,0x1F,0x1F,0x1F,0x1F}; //DOAN I  -7 
....................     
.................... VOID LCD_GOTO_XY(SIGNED INT8 X, SIGNED INT8 Y) 
.................... {  
....................    CONST UNSIGNED INT8 LCD_VITRI[]={0x80,0xC0,0x94,0xD4}; 
....................    LCD_COMMAND(LCD_VITRI[X]+Y); 
*
0548:  CLRF   03
054A:  MOVF   3E,W
054C:  MOVFF  FF2,40
0550:  BCF    FF2.7
0552:  RCALL  0114
0554:  BTFSC  40.7
0556:  BSF    FF2.7
0558:  ADDWF  3F,W
055A:  MOVWF  40
055C:  MOVWF  41
055E:  RCALL  0202
0560:  RETURN 0
.................... } 
....................  
.................... VOID XXX() 
.................... {  
....................    SIGNED INT8 X; 
....................    X= LCD_SO_X[0][0]; 
....................    X= LCD_MA_8DOAN[0]; 
.................... } 
....................  
.................... #define   GIAY_HTAI      0X55 
.................... #define   PHUT_HTAI      0X32 
.................... #define   GIO_HTAI       0X16 
.................... #define   THU_HTAI       2 
.................... #define   NGAY_HTAI      0X10 
.................... #define   THANG_HTAI     0X08 
.................... #define   NAM_HTAI       0X20       
.................... #define   MA_DS          0X91 
....................  
.................... #define  ADDR_WR_13B07   0xD0 
.................... #define  ADDR_RD_13B07   0xD1 
.................... #define  ADDR_MEM        0x00 
....................  
.................... //!UNSIGNED CHAR GIATRI_MOD; 
....................  
.................... UNSIGNED  CHAR    NAM_DS13,THANG_DS13,NGAY_DS13,THU_DS13,GIO_DS13, 
....................                   PHUT_DS13,GIAY_DS13,MA_DS13,CONTROL_DS13,GIAYTAM; 
....................                                 
.................... void THIET_LAP_THOI_GIAN_HIEN_TAI() 
.................... {     GIAY_DS13   =   GIAY_HTAI;       PHUT_DS13  =    PHUT_HTAI;    
*
03EC:  MOVLW  55
03EE:  MOVWF  21
03F0:  MOVLW  32
03F2:  MOVWF  20
....................       GIO_DS13    =   GIO_HTAI;        THU_DS13   =    THU_HTAI; 
03F4:  MOVLW  16
03F6:  MOVWF  1F
03F8:  MOVLW  02
03FA:  MOVWF  1E
....................       NGAY_DS13   =   NGAY_HTAI;       THANG_DS13 =    THANG_HTAI;    
03FC:  MOVLW  10
03FE:  MOVWF  1D
0400:  MOVLW  08
0402:  MOVWF  1C
....................       NAM_DS13    =   NAM_HTAI;    
0404:  MOVLW  20
0406:  MOVWF  1B
....................       CONTROL_DS13 = 0X90;             MA_DS13      =   MA_DS; 
0408:  MOVLW  90
040A:  MOVWF  23
040C:  MOVLW  91
040E:  MOVWF  22
0410:  GOTO   0DC8 (RETURN)
.................... } 
....................   
.................... void NAP_THOI_GIAN_HTAI_VAO_DS13B07() 
.................... {     I2C_START();          
0414:  BSF    F93.0
0416:  MOVLW  05
0418:  MOVWF  00
041A:  DECFSZ 00,F
041C:  BRA    041A
041E:  BSF    F93.1
0420:  MOVLW  06
0422:  MOVWF  00
0424:  DECFSZ 00,F
0426:  BRA    0424
0428:  BCF    F8A.0
042A:  BCF    F93.0
042C:  MOVLW  05
042E:  MOVWF  00
0430:  DECFSZ 00,F
0432:  BRA    0430
0434:  BCF    F8A.1
0436:  BCF    F93.1
....................       I2C_WRITE(ADDR_WR_13B07);     
0438:  MOVLW  D0
043A:  MOVWF  3A
043C:  RCALL  0286
....................       I2C_WRITE(0X00); 
043E:  CLRF   3A
0440:  RCALL  0286
....................       I2C_WRITE(GIAY_DS13);        I2C_WRITE(PHUT_DS13);       
0442:  MOVFF  21,3A
0446:  RCALL  0286
0448:  MOVFF  20,3A
044C:  RCALL  0286
....................       I2C_WRITE(GIO_DS13);         I2C_WRITE(THU_DS13);       
044E:  MOVFF  1F,3A
0452:  RCALL  0286
0454:  MOVFF  1E,3A
0458:  RCALL  0286
....................       I2C_WRITE(NGAY_DS13);        I2C_WRITE(THANG_DS13);             
045A:  MOVFF  1D,3A
045E:  RCALL  0286
0460:  MOVFF  1C,3A
0464:  RCALL  0286
....................       I2C_WRITE(NAM_DS13);         I2C_WRITE(CONTROL_DS13);    
0466:  MOVFF  1B,3A
046A:  RCALL  0286
046C:  MOVFF  23,3A
0470:  RCALL  0286
....................       I2C_WRITE(MA_DS13); 
0472:  MOVFF  22,3A
0476:  RCALL  0286
....................       I2C_STOP(); 
0478:  BCF    F93.0
047A:  NOP   
047C:  BSF    F93.1
047E:  BTFSS  F81.1
0480:  BRA    047E
0482:  MOVLW  05
0484:  MOVWF  00
0486:  DECFSZ 00,F
0488:  BRA    0486
048A:  BRA    048C
048C:  NOP   
048E:  BSF    F93.0
0490:  MOVLW  05
0492:  MOVWF  00
0494:  DECFSZ 00,F
0496:  BRA    0494
0498:  RETURN 0
.................... } 
....................      
.................... void DOC_THOI_GIAN_TU_REALTIME() 
.................... {    
....................       I2C_START(); 
*
0316:  BSF    F93.0
0318:  MOVLW  05
031A:  MOVWF  00
031C:  DECFSZ 00,F
031E:  BRA    031C
0320:  BSF    F93.1
0322:  MOVLW  06
0324:  MOVWF  00
0326:  DECFSZ 00,F
0328:  BRA    0326
032A:  BCF    F8A.0
032C:  BCF    F93.0
032E:  MOVLW  05
0330:  MOVWF  00
0332:  DECFSZ 00,F
0334:  BRA    0332
0336:  BCF    F8A.1
0338:  BCF    F93.1
....................       I2C_WRITE(ADDR_WR_13B07); 
033A:  MOVLW  D0
033C:  MOVWF  3A
033E:  RCALL  0286
....................       I2C_WRITE(ADDR_MEM);                      
0340:  CLRF   3A
0342:  RCALL  0286
....................       I2C_START();                 
0344:  BSF    F93.0
0346:  MOVLW  05
0348:  MOVWF  00
034A:  DECFSZ 00,F
034C:  BRA    034A
034E:  BSF    F93.1
0350:  MOVLW  06
0352:  MOVWF  00
0354:  DECFSZ 00,F
0356:  BRA    0354
0358:  BTFSS  F81.1
035A:  BRA    0358
035C:  BCF    F8A.0
035E:  BCF    F93.0
0360:  MOVLW  05
0362:  MOVWF  00
0364:  DECFSZ 00,F
0366:  BRA    0364
0368:  BCF    F8A.1
036A:  BCF    F93.1
....................                  
....................       I2C_WRITE(ADDR_RD_13B07); 
036C:  MOVLW  D1
036E:  MOVWF  3A
0370:  RCALL  0286
....................       GIAY_DS13      =  I2C_READ();               
0372:  MOVLW  01
0374:  MOVWF  00
0376:  RCALL  02CE
0378:  MOVFF  01,21
....................       PHUT_DS13      =  I2C_READ();              
037C:  MOVLW  01
037E:  MOVWF  00
0380:  RCALL  02CE
0382:  MOVFF  01,20
....................       GIO_DS13       =  I2C_READ();              
0386:  MOVLW  01
0388:  MOVWF  00
038A:  RCALL  02CE
038C:  MOVFF  01,1F
....................       THU_DS13       =  I2C_READ();  
0390:  MOVLW  01
0392:  MOVWF  00
0394:  RCALL  02CE
0396:  MOVFF  01,1E
....................       NGAY_DS13      =  I2C_READ();  
039A:  MOVLW  01
039C:  MOVWF  00
039E:  RCALL  02CE
03A0:  MOVFF  01,1D
....................       THANG_DS13     =  I2C_READ();  
03A4:  MOVLW  01
03A6:  MOVWF  00
03A8:  RCALL  02CE
03AA:  MOVFF  01,1C
....................       NAM_DS13       =  I2C_READ();  
03AE:  MOVLW  01
03B0:  MOVWF  00
03B2:  RCALL  02CE
03B4:  MOVFF  01,1B
....................       CONTROL_DS13   =  I2C_READ();           
03B8:  MOVLW  01
03BA:  MOVWF  00
03BC:  RCALL  02CE
03BE:  MOVFF  01,23
....................       MA_DS13        =  I2C_READ(0);     //NOT ACK 
03C2:  CLRF   00
03C4:  RCALL  02CE
03C6:  MOVFF  01,22
....................       I2C_STOP(); 
03CA:  BCF    F93.0
03CC:  NOP   
03CE:  BSF    F93.1
03D0:  BTFSS  F81.1
03D2:  BRA    03D0
03D4:  MOVLW  05
03D6:  MOVWF  00
03D8:  DECFSZ 00,F
03DA:  BRA    03D8
03DC:  BRA    03DE
03DE:  NOP   
03E0:  BSF    F93.0
03E2:  MOVLW  05
03E4:  MOVWF  00
03E6:  DECFSZ 00,F
03E8:  BRA    03E6
03EA:  RETURN 0
.................... }     
....................  
....................     
.................... void DOC_GIAY_TU_REALTIME() 
.................... {    
....................       I2C_START(); 
....................       I2C_WRITE(ADDR_WR_13B07); 
....................       I2C_WRITE(ADDR_MEM);                      
....................       I2C_START();                 
....................                  
....................       I2C_WRITE(ADDR_RD_13B07); 
....................       GIAY_DS13      =  I2C_READ(0);               
....................       I2C_STOP(); 
.................... }   
....................          
....................   
.................... void HIEN_THI_THOI_GIAN_DS13B07 ( ) 
.................... {     LCD_COMMAND (0x8C);    
*
09D4:  MOVLW  8C
09D6:  MOVWF  41
09D8:  RCALL  0202
....................       LCD_DATA(GIO_DS13/16  +0X30);    LCD_DATA(GIO_DS13%16  +0X30); 
09DA:  SWAPF  1F,W
09DC:  MOVWF  00
09DE:  MOVLW  0F
09E0:  ANDWF  00,F
09E2:  MOVF   00,W
09E4:  ADDLW  30
09E6:  MOVWF  3A
09E8:  MOVWF  3E
09EA:  RCALL  049A
09EC:  MOVF   1F,W
09EE:  ANDLW  0F
09F0:  ADDLW  30
09F2:  MOVWF  3A
09F4:  MOVWF  3E
09F6:  RCALL  049A
....................       LCD_DATA(' '); 
09F8:  MOVLW  20
09FA:  MOVWF  3E
09FC:  RCALL  049A
....................       LCD_DATA(PHUT_DS13/16 +0X30);    LCD_DATA(PHUT_DS13%16 +0X30); 
09FE:  SWAPF  20,W
0A00:  MOVWF  00
0A02:  MOVLW  0F
0A04:  ANDWF  00,F
0A06:  MOVF   00,W
0A08:  ADDLW  30
0A0A:  MOVWF  3A
0A0C:  MOVWF  3E
0A0E:  RCALL  049A
0A10:  MOVF   20,W
0A12:  ANDLW  0F
0A14:  ADDLW  30
0A16:  MOVWF  3A
0A18:  MOVWF  3E
0A1A:  RCALL  049A
....................       LCD_DATA(' '); 
0A1C:  MOVLW  20
0A1E:  MOVWF  3E
0A20:  RCALL  049A
....................       LCD_DATA(GIAY_DS13/16 +0X30);    LCD_DATA(GIAY_DS13%16 +0X30); 
0A22:  SWAPF  21,W
0A24:  MOVWF  00
0A26:  MOVLW  0F
0A28:  ANDWF  00,F
0A2A:  MOVF   00,W
0A2C:  ADDLW  30
0A2E:  MOVWF  3A
0A30:  MOVWF  3E
0A32:  RCALL  049A
0A34:  MOVF   21,W
0A36:  ANDLW  0F
0A38:  ADDLW  30
0A3A:  MOVWF  3A
0A3C:  MOVWF  3E
0A3E:  RCALL  049A
....................       LCD_COMMAND (0xCC);   
0A40:  MOVLW  CC
0A42:  MOVWF  41
0A44:  CALL   0202
....................       LCD_DATA(NGAY_DS13/16 +0X30);    LCD_DATA(NGAY_DS13%16 +0X30); 
0A48:  SWAPF  1D,W
0A4A:  MOVWF  00
0A4C:  MOVLW  0F
0A4E:  ANDWF  00,F
0A50:  MOVF   00,W
0A52:  ADDLW  30
0A54:  MOVWF  3A
0A56:  MOVWF  3E
0A58:  RCALL  049A
0A5A:  MOVF   1D,W
0A5C:  ANDLW  0F
0A5E:  ADDLW  30
0A60:  MOVWF  3A
0A62:  MOVWF  3E
0A64:  RCALL  049A
....................       LCD_DATA(' '); 
0A66:  MOVLW  20
0A68:  MOVWF  3E
0A6A:  RCALL  049A
....................       LCD_DATA(THANG_DS13/16 +0X30);   LCD_DATA(THANG_DS13%16 +0X30); 
0A6C:  SWAPF  1C,W
0A6E:  MOVWF  00
0A70:  MOVLW  0F
0A72:  ANDWF  00,F
0A74:  MOVF   00,W
0A76:  ADDLW  30
0A78:  MOVWF  3A
0A7A:  MOVWF  3E
0A7C:  RCALL  049A
0A7E:  MOVF   1C,W
0A80:  ANDLW  0F
0A82:  ADDLW  30
0A84:  MOVWF  3A
0A86:  MOVWF  3E
0A88:  RCALL  049A
....................       LCD_DATA(' '); 
0A8A:  MOVLW  20
0A8C:  MOVWF  3E
0A8E:  RCALL  049A
....................       LCD_DATA(NAM_DS13/16 +0X30);     LCD_DATA(NAM_DS13%16 +0X30);  
0A90:  SWAPF  1B,W
0A92:  MOVWF  00
0A94:  MOVLW  0F
0A96:  ANDWF  00,F
0A98:  MOVF   00,W
0A9A:  ADDLW  30
0A9C:  MOVWF  3A
0A9E:  MOVWF  3E
0AA0:  RCALL  049A
0AA2:  MOVF   1B,W
0AA4:  ANDLW  0F
0AA6:  ADDLW  30
0AA8:  MOVWF  3A
0AAA:  MOVWF  3E
0AAC:  RCALL  049A
0AAE:  GOTO   0AB6 (RETURN)
.................... } 
....................  
.................... //!void HT_DS1307 ( ) 
.................... //!{      
.................... //!    LCD_COMMAND (0x8C);    
.................... //!      LCD_DATA(GIO_DS13/16  +0X30);    LCD_DATA(GIO_DS13%16  +0X30); 
.................... //!      LCD_DATA(' '); 
.................... //!      LCD_DATA(PHUT_DS13/16 +0X30);    LCD_DATA(PHUT_DS13%16 +0X30); 
.................... //!      LCD_DATA(' '); 
.................... //!      LCD_DATA(GIAY_DS13/16 +0X30);    LCD_DATA(GIAY_DS13%16 +0X30); 
.................... //!      LCD_COMMAND (0xC6); 
.................... //!      LCD_DATA("THU "); 
.................... //!      LCD_DATA(THU_DS13 +0X30);  
.................... //!      LCD_COMMAND (0xCC);   
.................... //!      LCD_DATA(NGAY_DS13/16 +0X30);    LCD_DATA(NGAY_DS13%16 +0X30); 
.................... //!      LCD_DATA(' '); 
.................... //!      LCD_DATA(THANG_DS13/16 +0X30);   LCD_DATA(THANG_DS13%16 +0X30); 
.................... //!      LCD_DATA(' '); 
.................... //!      LCD_DATA(NAM_DS13/16 +0X30);     LCD_DATA(NAM_DS13%16 +0X30);  
.................... //!} 
.................... //! 
.................... //!VOID HIEN_THI_GIA_TRI_MOD() 
.................... //!{ 
.................... //!   LCD_COMMAND(0X8A); 
.................... //!   LCD_DATA(GIATRI_MOD + 0X30); 
.................... //!} 
....................  
.................... // VI TRI 
.................... //!NAM_DS13==0XD2 
.................... //!THANG_DS13==0XCF 
.................... //!NGAY_DS13==0XCC 
.................... //!GIO_DS13==0X8C 
.................... //!PHUT_DS13==0X8F 
.................... //!GIAY_DS13==0X92 
....................  
....................  
.................... unsigned INT16 k; 
.................... unsigned CHAR giatri_mod; 
.................... unsigned INT8 dv_giay,ch_giay,ch_phut,dv_phut,dv_gio,ch_gio; 
.................... unsigned INT8 dv_ngay,ch_ngay,ch_thang,dv_thang,dv_nam,ch_nam; 
.................... char thu; 
.................... signed INT8 i; 
.................... char thu1,thu2; 
.................... int1 tt; 
....................  
.................... void giai_ma_gan_cho_8led_quet()// LED QUET 
.................... { 
....................    if (THU_DS13!=1)  
*
06EC:  DECFSZ 1E,W
06EE:  BRA    06F2
06F0:  BRA    070A
....................    { 
....................       led_7dq[0] = 0xff; 
06F2:  SETF   11
....................       led_7dq[1] = ma7doan [THU_DS13%16]; 
06F4:  MOVF   1E,W
06F6:  ANDLW  0F
06F8:  CLRF   03
06FA:  MOVFF  FF2,3A
06FE:  BCF    FF2.7
0700:  RCALL  0004
0702:  BTFSC  3A.7
0704:  BSF    FF2.7
0706:  MOVWF  12
....................    } 
0708:  BRA    0712
....................    ELSE  
....................    { 
....................       led_7dq[0] = 0xC6; 
070A:  MOVLW  C6
070C:  MOVWF  11
....................       led_7dq[1] = 0xAB; 
070E:  MOVLW  AB
0710:  MOVWF  12
....................    } 
....................        
....................  
....................  
....................    led_7dq[2] = 0XBF; 
0712:  MOVLW  BF
0714:  MOVWF  13
....................    led_7dq[3] = ma7doan [PHUT_DS13%16 ]; 
0716:  MOVF   20,W
0718:  ANDLW  0F
071A:  CLRF   03
071C:  MOVFF  FF2,3A
0720:  BCF    FF2.7
0722:  RCALL  0004
0724:  BTFSC  3A.7
0726:  BSF    FF2.7
0728:  MOVWF  14
....................    led_7dq[4] = ma7doan [PHUT_DS13/16 ]; 
072A:  SWAPF  20,W
072C:  MOVWF  00
072E:  MOVLW  0F
0730:  ANDWF  00,F
0732:  MOVF   00,W
0734:  CLRF   03
0736:  MOVFF  FF2,3A
073A:  BCF    FF2.7
073C:  RCALL  0004
073E:  BTFSC  3A.7
0740:  BSF    FF2.7
0742:  MOVWF  15
....................    led_7dq[5] = 0XBF; 
0744:  MOVLW  BF
0746:  MOVWF  16
....................    led_7dq[6] = ma7doan [GIAY_DS13%16]; 
0748:  MOVF   21,W
074A:  ANDLW  0F
074C:  CLRF   03
074E:  MOVFF  FF2,3A
0752:  BCF    FF2.7
0754:  RCALL  0004
0756:  BTFSC  3A.7
0758:  BSF    FF2.7
075A:  MOVWF  17
....................    led_7dq[7] = ma7doan [GIAY_DS13/16 ]; 
075C:  SWAPF  21,W
075E:  MOVWF  00
0760:  MOVLW  0F
0762:  ANDWF  00,F
0764:  MOVF   00,W
0766:  CLRF   03
0768:  MOVFF  FF2,3A
076C:  BCF    FF2.7
076E:  RCALL  0004
0770:  BTFSC  3A.7
0772:  BSF    FF2.7
0774:  MOVWF  18
0776:  GOTO   0E2A (RETURN)
.................... } 
....................  
.................... void nhap_nhay_nho() 
.................... { 
....................    SWITCH (giatri_mod) 
*
0CA6:  MOVF   27,W
0CA8:  XORLW  01
0CAA:  BZ    0CC6
0CAC:  XORLW  03
0CAE:  BZ    0CCE
0CB0:  XORLW  01
0CB2:  BZ    0CD6
0CB4:  XORLW  07
0CB6:  BZ    0CDE
0CB8:  XORLW  01
0CBA:  BZ    0CE6
0CBC:  XORLW  03
0CBE:  BZ    0CEE
0CC0:  XORLW  01
0CC2:  BZ    0CF6
0CC4:  BRA    0CFE
....................    { 
....................       CASE 1: ch_gio = '_'; dv_gio = '_';  
0CC6:  MOVLW  5F
0CC8:  MOVWF  2D
0CCA:  MOVWF  2C
....................       BREAK; 
0CCC:  BRA    0CFE
....................       CASE 2: ch_phut='_';dv_phut='_';  
0CCE:  MOVLW  5F
0CD0:  MOVWF  2A
0CD2:  MOVWF  2B
....................       BREAK; 
0CD4:  BRA    0CFE
....................       CASE 3: ch_giay='_';dv_giay='_';  
0CD6:  MOVLW  5F
0CD8:  MOVWF  29
0CDA:  MOVWF  28
....................       BREAK; 
0CDC:  BRA    0CFE
....................       CASE 4: ch_ngay='_';dv_ngay='_'; 
0CDE:  MOVLW  5F
0CE0:  MOVWF  2F
0CE2:  MOVWF  2E
....................       BREAK; 
0CE4:  BRA    0CFE
....................       CASE 5: ch_thang='_';dv_thang='_';  
0CE6:  MOVLW  5F
0CE8:  MOVWF  30
0CEA:  MOVWF  31
....................       BREAK; 
0CEC:  BRA    0CFE
....................       CASE 6: ch_nam='_';dv_nam='_';  
0CEE:  MOVLW  5F
0CF0:  MOVWF  33
0CF2:  MOVWF  32
....................       BREAK; 
0CF4:  BRA    0CFE
....................       CASE 7:  thu1='_';thu2='_'; 
0CF6:  MOVLW  5F
0CF8:  MOVWF  36
0CFA:  MOVWF  37
....................       BREAK; 
0CFC:  BRA    0CFE
....................        
....................       DEFAULT: break; 
....................    } 
0CFE:  GOTO   0E74 (RETURN)
.................... } 
.................... void giaima_hienthi_nho() 
.................... { 
.................... ch_giay=GIAY_DS13/16 +0X30; 
*
0866:  SWAPF  21,W
0868:  MOVWF  00
086A:  MOVLW  0F
086C:  ANDWF  00,F
086E:  MOVF   00,W
0870:  ADDLW  30
0872:  MOVWF  29
.................... dv_giay=GIAY_DS13%16 +0X30; 
0874:  MOVF   21,W
0876:  ANDLW  0F
0878:  ADDLW  30
087A:  MOVWF  28
....................  
.................... ch_phut=PHUT_DS13/16 +0X30; 
087C:  SWAPF  20,W
087E:  MOVWF  00
0880:  MOVLW  0F
0882:  ANDWF  00,F
0884:  MOVF   00,W
0886:  ADDLW  30
0888:  MOVWF  2A
.................... dv_phut=PHUT_DS13%16 +0X30; 
088A:  MOVF   20,W
088C:  ANDLW  0F
088E:  ADDLW  30
0890:  MOVWF  2B
....................  
.................... ch_gio=GIO_DS13/16  +0X30; 
0892:  SWAPF  1F,W
0894:  MOVWF  00
0896:  MOVLW  0F
0898:  ANDWF  00,F
089A:  MOVF   00,W
089C:  ADDLW  30
089E:  MOVWF  2D
.................... dv_gio=GIO_DS13%16  +0X30; 
08A0:  MOVF   1F,W
08A2:  ANDLW  0F
08A4:  ADDLW  30
08A6:  MOVWF  2C
....................  
.................... ch_ngay=NGAY_DS13/16 +0X30; 
08A8:  SWAPF  1D,W
08AA:  MOVWF  00
08AC:  MOVLW  0F
08AE:  ANDWF  00,F
08B0:  MOVF   00,W
08B2:  ADDLW  30
08B4:  MOVWF  2F
.................... dv_ngay=NGAY_DS13%16 +0X30; 
08B6:  MOVF   1D,W
08B8:  ANDLW  0F
08BA:  ADDLW  30
08BC:  MOVWF  2E
....................  
.................... ch_thang=THANG_DS13/16 +0X30; 
08BE:  SWAPF  1C,W
08C0:  MOVWF  00
08C2:  MOVLW  0F
08C4:  ANDWF  00,F
08C6:  MOVF   00,W
08C8:  ADDLW  30
08CA:  MOVWF  30
.................... dv_thang=THANG_DS13%16 +0X30; 
08CC:  MOVF   1C,W
08CE:  ANDLW  0F
08D0:  ADDLW  30
08D2:  MOVWF  31
....................  
.................... ch_nam=NAM_DS13/16 +0X30; 
08D4:  SWAPF  1B,W
08D6:  MOVWF  00
08D8:  MOVLW  0F
08DA:  ANDWF  00,F
08DC:  MOVF   00,W
08DE:  ADDLW  30
08E0:  MOVWF  33
.................... dv_nam=NAM_DS13%16 +0X30; 
08E2:  MOVF   1B,W
08E4:  ANDLW  0F
08E6:  ADDLW  30
08E8:  MOVWF  32
....................  
.................... if (THU_DS13!=1)  
08EA:  DECFSZ 1E,W
08EC:  BRA    08F0
08EE:  BRA    08FC
....................    { 
....................       thu1=THU_DS13 +0X30; 
08F0:  MOVLW  30
08F2:  ADDWF  1E,W
08F4:  MOVWF  36
....................       thu2=0x20; 
08F6:  MOVLW  20
08F8:  MOVWF  37
....................    } 
08FA:  BRA    0904
....................       ELSE  
....................        
....................       { 
....................       thu1='C'; 
08FC:  MOVLW  43
08FE:  MOVWF  36
....................       thu2='N'; 
0900:  MOVLW  4E
0902:  MOVWF  37
....................       } 
0904:  GOTO   0E3E (RETURN)
....................        
.................... } 
....................  
.................... void HT_DS1307_nho ( ) 
.................... {      
....................        
....................       LCD_COMMAND (0x8C);    
0908:  MOVLW  8C
090A:  MOVWF  41
090C:  RCALL  0202
....................       LCD_DATA(ch_gio);    LCD_DATA(dv_gio); 
090E:  MOVFF  2D,3E
0912:  RCALL  049A
0914:  MOVFF  2C,3E
0918:  RCALL  049A
....................       LCD_DATA(':'); 
091A:  MOVLW  3A
091C:  MOVWF  3E
091E:  RCALL  049A
....................       LCD_DATA(ch_phut);    LCD_DATA(dv_phut); 
0920:  MOVFF  2A,3E
0924:  RCALL  049A
0926:  MOVFF  2B,3E
092A:  RCALL  049A
....................       LCD_DATA(':'); 
092C:  MOVLW  3A
092E:  MOVWF  3E
0930:  RCALL  049A
....................       LCD_DATA(ch_giay);    LCD_DATA(dv_giay); 
0932:  MOVFF  29,3E
0936:  RCALL  049A
0938:  MOVFF  28,3E
093C:  RCALL  049A
....................       LCD_COMMAND (0xC5); 
093E:  MOVLW  C5
0940:  MOVWF  41
0942:  RCALL  0202
....................       LCD_DATA("THU "); 
0944:  MOVLW  28
0946:  MOVWF  FF6
0948:  MOVLW  01
094A:  MOVWF  FF7
094C:  RCALL  060E
....................       LCD_DATA(thu1); 
094E:  MOVFF  36,3E
0952:  RCALL  049A
....................       LCD_DATA(thu2); 
0954:  MOVFF  37,3E
0958:  RCALL  049A
....................       LCD_COMMAND (0xCC);   
095A:  MOVLW  CC
095C:  MOVWF  41
095E:  RCALL  0202
....................       LCD_DATA(ch_ngay);    LCD_DATA(dv_ngay); 
0960:  MOVFF  2F,3E
0964:  RCALL  049A
0966:  MOVFF  2E,3E
096A:  RCALL  049A
....................       LCD_DATA('/'); 
096C:  MOVLW  2F
096E:  MOVWF  3E
0970:  RCALL  049A
....................       LCD_DATA(ch_thang);   LCD_DATA(dv_thang); 
0972:  MOVFF  30,3E
0976:  RCALL  049A
0978:  MOVFF  31,3E
097C:  RCALL  049A
....................       LCD_DATA('/'); 
097E:  MOVLW  2F
0980:  MOVWF  3E
0982:  RCALL  049A
....................       LCD_DATA(ch_nam);     LCD_DATA(dv_nam);   
0984:  MOVFF  33,3E
0988:  RCALL  049A
098A:  MOVFF  32,3E
098E:  RCALL  049A
0990:  RETURN 0
.................... } 
....................  
.................... // PHÍM NHAN CHUYEN HIEN THI 
.................... void phim_nhan() 
.................... { 
....................  
....................    IF (!input (BT2)) 
*
06C8:  BSF    F93.3
06CA:  BTFSC  F81.3
06CC:  BRA    06E8
....................    { 
....................       delay_ms (20) ; 
06CE:  MOVLW  14
06D0:  MOVWF  3C
06D2:  RCALL  0218
....................       { 
....................          IF (!input (BT2)) 
06D4:  BSF    F93.3
06D6:  BTFSC  F81.3
06D8:  BRA    06E8
....................          { 
....................            tt=!tt; 
06DA:  BTG    38.0
....................            lcd_command(lcd_clear_display); 
06DC:  MOVLW  01
06DE:  MOVWF  41
06E0:  RCALL  0202
....................             WHILE ( ! input (BT2)) ; 
06E2:  BSF    F93.3
06E4:  BTFSS  F81.3
06E6:  BRA    06E2
....................          } 
....................       } 
....................    } 
06E8:  GOTO   0E1A (RETURN)
.................... } 
.................... void lcd_hienthi_so_z_toado_xy(SIGNED int8 lcd_so, x1, y1) 
.................... { 
....................    lcd_GOTO_xy(x1,y1); 
*
05AE:  MOVFF  3B,3E
05B2:  MOVFF  3C,3F
05B6:  RCALL  0548
....................    FOR (i=0;i<6;i++) 
05B8:  CLRF   35
05BA:  BTFSC  35.7
05BC:  BRA    05C4
05BE:  MOVF   35,W
05C0:  SUBLW  05
05C2:  BNC   060C
....................    { 
....................       IF (i==3) lcd_goto_xy(x1+1,y1); 
05C4:  MOVF   35,W
05C6:  SUBLW  03
05C8:  BNZ   05D8
05CA:  MOVLW  01
05CC:  ADDWF  3B,W
05CE:  MOVWF  3D
05D0:  MOVWF  3E
05D2:  MOVFF  3C,3F
05D6:  RCALL  0548
....................       lcd_data(lcd_so_x[lcd_so][i]); 
05D8:  MOVFF  3A,3D
05DC:  MOVLW  06
05DE:  MOVWF  3E
05E0:  BRA    0562
05E2:  MOVF   01,W
05E4:  CLRF   3E
05E6:  MOVWF  3D
05E8:  CLRF   03
05EA:  MOVF   35,W
05EC:  ADDWF  3D,W
05EE:  MOVWF  01
05F0:  MOVF   3E,W
05F2:  ADDWFC 03,F
05F4:  MOVF   01,W
05F6:  MOVFF  FF2,3D
05FA:  BCF    FF2.7
05FC:  RCALL  003C
05FE:  BTFSC  3D.7
0600:  BSF    FF2.7
0602:  MOVWF  3D
0604:  MOVWF  3E
0606:  RCALL  049A
0608:  INCF   35,F
060A:  BRA    05BA
....................    } 
060C:  RETURN 0
.................... } 
....................  
.................... void giaima_hienthi_to() 
.................... { 
.................... ch_giay=GIAY_DS13/16;  
*
04C2:  SWAPF  21,W
04C4:  MOVWF  29
04C6:  MOVLW  0F
04C8:  ANDWF  29,F
.................... dv_giay=GIAY_DS13%16;  
04CA:  MOVF   21,W
04CC:  ANDLW  0F
04CE:  MOVWF  28
....................  
.................... ch_phut=PHUT_DS13/16 ; 
04D0:  SWAPF  20,W
04D2:  MOVWF  2A
04D4:  MOVLW  0F
04D6:  ANDWF  2A,F
.................... dv_phut=PHUT_DS13%16 ; 
04D8:  MOVF   20,W
04DA:  ANDLW  0F
04DC:  MOVWF  2B
....................  
.................... ch_gio=GIO_DS13/16  ; 
04DE:  SWAPF  1F,W
04E0:  MOVWF  2D
04E2:  MOVLW  0F
04E4:  ANDWF  2D,F
.................... dv_gio=GIO_DS13%16 ;  
04E6:  MOVF   1F,W
04E8:  ANDLW  0F
04EA:  MOVWF  2C
....................  
.................... ch_ngay=NGAY_DS13/16+0x30 ; 
04EC:  SWAPF  1D,W
04EE:  MOVWF  00
04F0:  MOVLW  0F
04F2:  ANDWF  00,F
04F4:  MOVF   00,W
04F6:  ADDLW  30
04F8:  MOVWF  2F
.................... dv_ngay=NGAY_DS13%16+0x30 ; 
04FA:  MOVF   1D,W
04FC:  ANDLW  0F
04FE:  ADDLW  30
0500:  MOVWF  2E
....................  
.................... ch_thang=THANG_DS13/16+0x30; 
0502:  SWAPF  1C,W
0504:  MOVWF  00
0506:  MOVLW  0F
0508:  ANDWF  00,F
050A:  MOVF   00,W
050C:  ADDLW  30
050E:  MOVWF  30
.................... dv_thang=THANG_DS13%16+0x30 ; 
0510:  MOVF   1C,W
0512:  ANDLW  0F
0514:  ADDLW  30
0516:  MOVWF  31
....................  
.................... ch_nam=NAM_DS13/16+0x30 ; 
0518:  SWAPF  1B,W
051A:  MOVWF  00
051C:  MOVLW  0F
051E:  ANDWF  00,F
0520:  MOVF   00,W
0522:  ADDLW  30
0524:  MOVWF  33
.................... dv_nam=NAM_DS13%16+0x30 ; 
0526:  MOVF   1B,W
0528:  ANDLW  0F
052A:  ADDLW  30
052C:  MOVWF  32
....................  
.................... if (THU_DS13!=1)  
052E:  DECFSZ 1E,W
0530:  BRA    0534
0532:  BRA    0542
....................    { 
....................       thu=THU_DS13 +0X30; 
0534:  MOVLW  30
0536:  ADDWF  1E,W
0538:  MOVWF  34
....................       LCD_DATA(0X20); 
053A:  MOVLW  20
053C:  MOVWF  3E
053E:  RCALL  049A
....................    } 
0540:  BRA    0546
....................       ELSE thu="CN"; 
0542:  MOVLW  43
0544:  MOVWF  34
0546:  RETURN 0
....................        
....................  
....................        
....................        
.................... } 
.................... void HT_DS1307_to( ) 
.................... {      
....................       LCD_COMMAND (0x8C);    
*
062E:  MOVLW  8C
0630:  MOVWF  41
0632:  RCALL  0202
....................       lcd_hienthi_so_z_toado_xy(ch_gio,0,0);lcd_hienthi_so_z_toado_xy(dv_gio,0,3); 
0634:  MOVFF  2D,3A
0638:  CLRF   3B
063A:  CLRF   3C
063C:  RCALL  05AE
063E:  MOVFF  2C,3A
0642:  CLRF   3B
0644:  MOVLW  03
0646:  MOVWF  3C
0648:  RCALL  05AE
....................      // LCD_DATA(':'); 
....................       lcd_hienthi_so_z_toado_xy(ch_phut,0,7);lcd_hienthi_so_z_toado_xy(dv_phut,0,10); 
064A:  MOVFF  2A,3A
064E:  CLRF   3B
0650:  MOVLW  07
0652:  MOVWF  3C
0654:  RCALL  05AE
0656:  MOVFF  2B,3A
065A:  CLRF   3B
065C:  MOVLW  0A
065E:  MOVWF  3C
0660:  RCALL  05AE
....................       //LCD_DATA(':'); 
....................       lcd_hienthi_so_z_toado_xy(ch_giay,0,14);lcd_hienthi_so_z_toado_xy(dv_giay,0,17); 
0662:  MOVFF  29,3A
0666:  CLRF   3B
0668:  MOVLW  0E
066A:  MOVWF  3C
066C:  RCALL  05AE
066E:  MOVFF  28,3A
0672:  CLRF   3B
0674:  MOVLW  11
0676:  MOVWF  3C
0678:  RCALL  05AE
....................       LCD_COMMAND (0xD7); 
067A:  MOVLW  D7
067C:  MOVWF  41
067E:  RCALL  0202
....................       LCD_DATA("THU "); 
0680:  MOVLW  2E
0682:  MOVWF  FF6
0684:  MOVLW  01
0686:  MOVWF  FF7
0688:  RCALL  060E
....................       LCD_DATA(thu); 
068A:  MOVFF  34,3E
068E:  RCALL  049A
....................       LCD_COMMAND (0xE0);   
0690:  MOVLW  E0
0692:  MOVWF  41
0694:  RCALL  0202
....................       LCD_DATA(ch_ngay);    LCD_DATA(dv_ngay); 
0696:  MOVFF  2F,3E
069A:  RCALL  049A
069C:  MOVFF  2E,3E
06A0:  RCALL  049A
....................       LCD_DATA('/'); 
06A2:  MOVLW  2F
06A4:  MOVWF  3E
06A6:  RCALL  049A
....................       LCD_DATA(ch_thang);   LCD_DATA(dv_thang); 
06A8:  MOVFF  30,3E
06AC:  RCALL  049A
06AE:  MOVFF  31,3E
06B2:  RCALL  049A
....................       LCD_DATA('/'); 
06B4:  MOVLW  2F
06B6:  MOVWF  3E
06B8:  RCALL  049A
....................       LCD_DATA(ch_nam);     LCD_DATA(dv_nam); 
06BA:  MOVFF  33,3E
06BE:  RCALL  049A
06C0:  MOVFF  32,3E
06C4:  RCALL  049A
06C6:  RETURN 0
.................... } 
....................  
....................  
.................... void nhap_nhay_to() 
.................... { 
....................    SWITCH (giatri_mod) 
*
0D2C:  MOVF   27,W
0D2E:  XORLW  01
0D30:  BZ    0D4C
0D32:  XORLW  03
0D34:  BZ    0D54
0D36:  XORLW  01
0D38:  BZ    0D5C
0D3A:  XORLW  07
0D3C:  BZ    0D64
0D3E:  XORLW  01
0D40:  BZ    0D6C
0D42:  XORLW  03
0D44:  BZ    0D74
0D46:  XORLW  01
0D48:  BZ    0D7C
0D4A:  BRA    0D82
....................    { 
....................       CASE 1: ch_gio = 16; dv_gio = 16;  
0D4C:  MOVLW  10
0D4E:  MOVWF  2D
0D50:  MOVWF  2C
....................       BREAK; 
0D52:  BRA    0D82
....................       CASE 2: ch_phut= 16;dv_phut=16;  
0D54:  MOVLW  10
0D56:  MOVWF  2A
0D58:  MOVWF  2B
....................       BREAK; 
0D5A:  BRA    0D82
....................       CASE 3: ch_giay=16;dv_giay=16;  
0D5C:  MOVLW  10
0D5E:  MOVWF  29
0D60:  MOVWF  28
....................       BREAK; 
0D62:  BRA    0D82
....................       CASE 4: ch_ngay='_';dv_ngay='_'; 
0D64:  MOVLW  5F
0D66:  MOVWF  2F
0D68:  MOVWF  2E
....................       BREAK; 
0D6A:  BRA    0D82
....................       CASE 5: ch_thang='_';dv_thang='_';  
0D6C:  MOVLW  5F
0D6E:  MOVWF  30
0D70:  MOVWF  31
....................       BREAK; 
0D72:  BRA    0D82
....................       CASE 6: ch_nam='_';dv_nam='_';  
0D74:  MOVLW  5F
0D76:  MOVWF  33
0D78:  MOVWF  32
....................       BREAK; 
0D7A:  BRA    0D82
....................       CASE 7: thu="___"; 
0D7C:  MOVLW  5F
0D7E:  MOVWF  34
....................       BREAK; 
0D80:  BRA    0D82
....................       DEFAULT: break; 
....................    } 
0D82:  GOTO   0E80 (RETURN)
.................... } 
....................  
.................... void hien_thi_gia_tri_mod ( ) 
.................... { 
....................    lcd_command(0xD4); 
*
04B0:  MOVLW  D4
04B2:  MOVWF  41
04B4:  RCALL  0202
....................    lcd_data (giatri_mod + 0x30) ; 
04B6:  MOVLW  30
04B8:  ADDWF  27,W
04BA:  MOVWF  3A
04BC:  MOVWF  3E
04BE:  RCALL  049A
04C0:  RETURN 0
.................... } 
....................  
.................... void phim_mod() 
.................... { 
....................    IF (!input (mod)) 
*
0992:  BSF    F93.2
0994:  BTFSC  F81.2
0996:  BRA    09B8
....................    { 
....................       delay_ms (20) ; 
0998:  MOVLW  14
099A:  MOVWF  3C
099C:  RCALL  0218
....................       { 
....................          IF (!input (mod)) 
099E:  BSF    F93.2
09A0:  BTFSC  F81.2
09A2:  BRA    09B8
....................          { 
....................             IF (giatri_mod < 7) giatri_mod++; 
09A4:  MOVF   27,W
09A6:  SUBLW  06
09A8:  BNC   09AE
09AA:  INCF   27,F
09AC:  BRA    09B0
....................             ELSE giatri_mod = 0; 
09AE:  CLRF   27
....................             hien_thi_gia_tri_mod (); 
09B0:  RCALL  04B0
....................             WHILE ( ! input (mod)) ; 
09B2:  BSF    F93.2
09B4:  BTFSS  F81.2
09B6:  BRA    09B2
....................          } 
....................       } 
....................    } 
09B8:  GOTO   0E5E (RETURN)
.................... } 
....................  
.................... unsigned int8 hieu_chinh_so_bcd_tang(UNSIGNED int8 x ) 
.................... { 
....................    UNSIGNED int8 y; 
....................    y = x; 
09BC:  MOVFF  3A,3B
....................    x = x&0x0f; 
09C0:  MOVLW  0F
09C2:  ANDWF  3A,F
....................    IF (x == 0x0a) y = y + 6; 
09C4:  MOVF   3A,W
09C6:  SUBLW  0A
09C8:  BNZ   09CE
09CA:  MOVLW  06
09CC:  ADDWF  3B,F
....................    RETURN (y) ; 
09CE:  MOVFF  3B,01
09D2:  RETURN 0
.................... } 
....................  
.................... unsigned int8 hieu_chinh_so_bcd_giam(UNSIGNED int8 x ) 
.................... { 
....................    UNSIGNED int8 y; 
....................    y = x; 
*
0BA6:  MOVFF  3A,3B
....................    x = x&0x0f; 
0BAA:  MOVLW  0F
0BAC:  ANDWF  3A,F
....................    IF (x == 0x0f) y = y - 6; 
0BAE:  MOVF   3A,W
0BB0:  SUBLW  0F
0BB2:  BNZ   0BB8
0BB4:  MOVLW  06
0BB6:  SUBWF  3B,F
....................    RETURN (y) ; 
0BB8:  MOVFF  3B,01
0BBC:  RETURN 0
.................... } 
....................  
.................... void luu_giai_ma_hien_thi_sau_khi_chinh() 
.................... { 
....................    nap_thoi_gian_htai_vao_ds13B07(); 
*
0AB2:  RCALL  0414
....................    hien_thi_thoi_gian_ds13B07 (); 
0AB4:  BRA    09D4
0AB6:  RETURN 0
.................... } 
....................  
.................... void phim_up() 
.................... { 
....................    IF (!input (up)) 
0AB8:  BSF    F93.5
0ABA:  BTFSC  F81.5
0ABC:  BRA    0BA2
....................    { 
....................       delay_ms (20) ; 
0ABE:  MOVLW  14
0AC0:  MOVWF  3C
0AC2:  CALL   0218
....................  
....................       IF (!input (up)) 
0AC6:  BSF    F93.5
0AC8:  BTFSC  F81.5
0ACA:  BRA    0BA2
....................       { 
....................          SWITCH (giatri_mod) 
0ACC:  MOVF   27,W
0ACE:  XORLW  03
0AD0:  BZ    0AEC
0AD2:  XORLW  01
0AD4:  BZ    0B06
0AD6:  XORLW  03
0AD8:  BZ    0B20
0ADA:  XORLW  05
0ADC:  BZ    0B3A
0ADE:  XORLW  01
0AE0:  BZ    0B56
0AE2:  XORLW  03
0AE4:  BZ    0B72
0AE6:  XORLW  01
0AE8:  BZ    0B8C
0AEA:  BRA    0B9C
....................          { 
....................             case 3: IF (giay_ds13 == 0x59) giay_ds13 = 0; 
0AEC:  MOVF   21,W
0AEE:  SUBLW  59
0AF0:  BNZ   0AF6
0AF2:  CLRF   21
0AF4:  BRA    0B02
....................  
....................             ELSE 
....................             { 
....................                giay_ds13++; 
0AF6:  INCF   21,F
....................                giay_ds13=hieu_chinh_so_bcd_tang(giay_ds13); 
0AF8:  MOVFF  21,3A
0AFC:  RCALL  09BC
0AFE:  MOVFF  01,21
....................             } 
....................  
....................             luu_giai_ma_hien_thi_sau_khi_chinh () ; 
0B02:  RCALL  0AB2
....................             BREAK; 
0B04:  BRA    0B9C
....................             case 2: IF (phut_ds13 == 0x59) phut_ds13 = 0; 
0B06:  MOVF   20,W
0B08:  SUBLW  59
0B0A:  BNZ   0B10
0B0C:  CLRF   20
0B0E:  BRA    0B1C
....................  
....................             ELSE 
....................             { 
....................                phut_ds13++; 
0B10:  INCF   20,F
....................                phut_ds13=hieu_chinh_so_bcd_tang(phut_ds13); 
0B12:  MOVFF  20,3A
0B16:  RCALL  09BC
0B18:  MOVFF  01,20
....................             } 
....................  
....................             luu_giai_ma_hien_thi_sau_khi_chinh () ; 
0B1C:  RCALL  0AB2
....................             BREAK; 
0B1E:  BRA    0B9C
....................             case 1: IF (gio_ds13 == 0x23) gio_ds13 = 0; 
0B20:  MOVF   1F,W
0B22:  SUBLW  23
0B24:  BNZ   0B2A
0B26:  CLRF   1F
0B28:  BRA    0B36
....................  
....................             ELSE 
....................             { 
....................                gio_ds13++; 
0B2A:  INCF   1F,F
....................                gio_ds13 = hieu_chinh_so_bcd_tang (gio_ds13) ; 
0B2C:  MOVFF  1F,3A
0B30:  RCALL  09BC
0B32:  MOVFF  01,1F
....................             } 
....................  
....................             luu_giai_ma_hien_thi_sau_khi_chinh () ; 
0B36:  RCALL  0AB2
....................             BREAK; 
0B38:  BRA    0B9C
....................             case 4: IF (ngay_ds13 == 0x31) ngay_ds13 = 1; 
0B3A:  MOVF   1D,W
0B3C:  SUBLW  31
0B3E:  BNZ   0B46
0B40:  MOVLW  01
0B42:  MOVWF  1D
0B44:  BRA    0B52
....................  
....................             ELSE 
....................             { 
....................                ngay_ds13++; 
0B46:  INCF   1D,F
....................                ngay_ds13 = hieu_chinh_so_bcd_tang (ngay_ds13) ; 
0B48:  MOVFF  1D,3A
0B4C:  RCALL  09BC
0B4E:  MOVFF  01,1D
....................             } 
....................  
....................             luu_giai_ma_hien_thi_sau_khi_chinh () ; 
0B52:  RCALL  0AB2
....................             BREAK; 
0B54:  BRA    0B9C
....................             case 5: IF (thang_ds13 == 0x12) thang_ds13 = 1; 
0B56:  MOVF   1C,W
0B58:  SUBLW  12
0B5A:  BNZ   0B62
0B5C:  MOVLW  01
0B5E:  MOVWF  1C
0B60:  BRA    0B6E
....................  
....................             ELSE 
....................             { 
....................                thang_ds13++; 
0B62:  INCF   1C,F
....................                thang_ds13=hieu_chinh_so_bcd_tang(thang_ds13); 
0B64:  MOVFF  1C,3A
0B68:  RCALL  09BC
0B6A:  MOVFF  01,1C
....................             } 
....................  
....................             luu_giai_ma_hien_thi_sau_khi_chinh () ; 
0B6E:  RCALL  0AB2
....................             BREAK; 
0B70:  BRA    0B9C
....................             case 6: IF (nam_ds13 == 0x99) nam_ds13 = 0; 
0B72:  MOVF   1B,W
0B74:  SUBLW  99
0B76:  BNZ   0B7C
0B78:  CLRF   1B
0B7A:  BRA    0B88
....................             ELSE 
....................             { 
....................                nam_ds13++; 
0B7C:  INCF   1B,F
....................                nam_ds13 = hieu_chinh_so_bcd_tang (nam_ds13) ; 
0B7E:  MOVFF  1B,3A
0B82:  RCALL  09BC
0B84:  MOVFF  01,1B
....................             } 
....................  
....................             luu_giai_ma_hien_thi_sau_khi_chinh () ; 
0B88:  RCALL  0AB2
....................             BREAK; 
0B8A:  BRA    0B9C
....................              
....................             case 7:  
....................             
....................                thu_ds13++; 
0B8C:  INCF   1E,F
....................                if (thu_ds13 == 8) thu_ds13=1;  
0B8E:  MOVF   1E,W
0B90:  SUBLW  08
0B92:  BNZ   0B98
0B94:  MOVLW  01
0B96:  MOVWF  1E
....................                luu_giai_ma_hien_thi_sau_khi_chinh () ; 
0B98:  RCALL  0AB2
....................             BREAK; 
0B9A:  BRA    0B9C
....................             DEFAULT: break; 
....................          } 
....................  
....................          WHILE ( ! input (up)) ; 
0B9C:  BSF    F93.5
0B9E:  BTFSS  F81.5
0BA0:  BRA    0B9C
....................       } 
....................    } 
0BA2:  GOTO   0E60 (RETURN)
.................... } 
....................  
.................... void phim_dw() 
.................... { 
....................    IF (!input (dw)) 
*
0BBE:  BSF    F93.4
0BC0:  BTFSC  F81.4
0BC2:  BRA    0CA2
....................    { 
....................       delay_ms (50) ; 
0BC4:  MOVLW  32
0BC6:  MOVWF  3C
0BC8:  CALL   0218
....................  
....................       IF (!input (dw)) 
0BCC:  BSF    F93.4
0BCE:  BTFSC  F81.4
0BD0:  BRA    0CA2
....................       { 
....................          SWITCH (giatri_mod) 
0BD2:  MOVF   27,W
0BD4:  XORLW  03
0BD6:  BZ    0BF2
0BD8:  XORLW  01
0BDA:  BZ    0C0C
0BDC:  XORLW  03
0BDE:  BZ    0C26
0BE0:  XORLW  05
0BE2:  BZ    0C40
0BE4:  XORLW  01
0BE6:  BZ    0C5A
0BE8:  XORLW  03
0BEA:  BZ    0C74
0BEC:  XORLW  01
0BEE:  BZ    0C8E
0BF0:  BRA    0C9C
....................          { 
....................             case 3: IF (giay_ds13 == 0) giay_ds13 = 0x59; 
0BF2:  MOVF   21,F
0BF4:  BNZ   0BFC
0BF6:  MOVLW  59
0BF8:  MOVWF  21
0BFA:  BRA    0C08
....................  
....................             ELSE 
....................             { 
....................                giay_ds13--; 
0BFC:  DECF   21,F
....................                giay_ds13 = hieu_chinh_so_bcd_giam (giay_ds13) ; 
0BFE:  MOVFF  21,3A
0C02:  RCALL  0BA6
0C04:  MOVFF  01,21
....................             } 
....................  
....................             luu_giai_ma_hien_thi_sau_khi_chinh () ; 
0C08:  RCALL  0AB2
....................             BREAK; 
0C0A:  BRA    0C9C
....................             case 2: IF (phut_ds13 == 0) phut_ds13 = 0x59; 
0C0C:  MOVF   20,F
0C0E:  BNZ   0C16
0C10:  MOVLW  59
0C12:  MOVWF  20
0C14:  BRA    0C22
....................  
....................             ELSE 
....................             { 
....................                phut_ds13--; 
0C16:  DECF   20,F
....................                phut_ds13=hieu_chinh_so_bcd_giam(phut_ds13); 
0C18:  MOVFF  20,3A
0C1C:  RCALL  0BA6
0C1E:  MOVFF  01,20
....................             } 
....................  
....................             luu_giai_ma_hien_thi_sau_khi_chinh () ; 
0C22:  RCALL  0AB2
....................             BREAK; 
0C24:  BRA    0C9C
....................             case 1: IF (gio_ds13 == 0) gio_ds13 = 0x23; 
0C26:  MOVF   1F,F
0C28:  BNZ   0C30
0C2A:  MOVLW  23
0C2C:  MOVWF  1F
0C2E:  BRA    0C3C
....................  
....................             ELSE 
....................             { 
....................                gio_ds13--; 
0C30:  DECF   1F,F
....................                gio_ds13 = hieu_chinh_so_bcd_giam (gio_ds13) ; 
0C32:  MOVFF  1F,3A
0C36:  RCALL  0BA6
0C38:  MOVFF  01,1F
....................             } 
....................  
....................             luu_giai_ma_hien_thi_sau_khi_chinh () ; 
0C3C:  RCALL  0AB2
....................             BREAK; 
0C3E:  BRA    0C9C
....................             case 4: IF (ngay_ds13 == 0) ngay_ds13 = 0x31; 
0C40:  MOVF   1D,F
0C42:  BNZ   0C4A
0C44:  MOVLW  31
0C46:  MOVWF  1D
0C48:  BRA    0C56
....................  
....................             ELSE 
....................             { 
....................                ngay_ds13--; 
0C4A:  DECF   1D,F
....................                ngay_ds13 = hieu_chinh_so_bcd_giam (ngay_ds13) ; 
0C4C:  MOVFF  1D,3A
0C50:  RCALL  0BA6
0C52:  MOVFF  01,1D
....................             } 
....................  
....................             luu_giai_ma_hien_thi_sau_khi_chinh () ; 
0C56:  RCALL  0AB2
....................             BREAK; 
0C58:  BRA    0C9C
....................             case 5: IF (thang_ds13 == 1) thang_ds13 = 0x12; 
0C5A:  DECFSZ 1C,W
0C5C:  BRA    0C64
0C5E:  MOVLW  12
0C60:  MOVWF  1C
0C62:  BRA    0C70
....................  
....................             ELSE 
....................             { 
....................                thang_ds13--; 
0C64:  DECF   1C,F
....................                thang_ds13 = hieu_chinh_so_bcd_giam (thang_ds13) ; 
0C66:  MOVFF  1C,3A
0C6A:  RCALL  0BA6
0C6C:  MOVFF  01,1C
....................             } 
....................  
....................             luu_giai_ma_hien_thi_sau_khi_chinh () ; 
0C70:  RCALL  0AB2
....................             BREAK; 
0C72:  BRA    0C9C
....................             case 6: IF (nam_ds13 == 0) nam_ds13 = 0x99; 
0C74:  MOVF   1B,F
0C76:  BNZ   0C7E
0C78:  MOVLW  99
0C7A:  MOVWF  1B
0C7C:  BRA    0C8A
....................  
....................             ELSE 
....................             { 
....................                nam_ds13--; 
0C7E:  DECF   1B,F
....................                nam_ds13 = hieu_chinh_so_bcd_giam (nam_ds13) ; 
0C80:  MOVFF  1B,3A
0C84:  RCALL  0BA6
0C86:  MOVFF  01,1B
....................             } 
....................  
....................             luu_giai_ma_hien_thi_sau_khi_chinh () ; 
0C8A:  RCALL  0AB2
....................             BREAK; 
0C8C:  BRA    0C9C
....................              
....................             case 7:  
....................             thu_ds13--; 
0C8E:  DECF   1E,F
....................             if (thu_ds13 == 0) thu_ds13=7; 
0C90:  MOVF   1E,F
0C92:  BNZ   0C98
0C94:  MOVLW  07
0C96:  MOVWF  1E
....................             luu_giai_ma_hien_thi_sau_khi_chinh () ; 
0C98:  RCALL  0AB2
....................             BREAK; 
0C9A:  BRA    0C9C
....................             DEFAULT: break; 
....................          } 
....................  
....................          WHILE ( ! input (dw)) ; 
0C9C:  BSF    F93.4
0C9E:  BTFSS  F81.4
0CA0:  BRA    0C9C
....................       } 
....................    } 
0CA2:  GOTO   0E62 (RETURN)
.................... } 
....................  
.................... void delay_mssv(UNSIGNED int8 t) 
....................    { 
....................    for (INT8 i = 0; i < t; i++) 
*
0D02:  CLRF   3B
0D04:  MOVF   3A,W
0D06:  SUBWF  3B,W
0D08:  BC    0D2A
....................    { 
....................       delay_ms (1) ; 
0D0A:  MOVLW  01
0D0C:  MOVWF  3C
0D0E:  CALL   0218
....................       IF ((input (up) == 0)|| (input (dw) == 0)||(input (mod)  == 0)) 
0D12:  BSF    F93.5
0D14:  BTFSS  F81.5
0D16:  BRA    0D24
0D18:  BSF    F93.4
0D1A:  BTFSS  F81.4
0D1C:  BRA    0D24
0D1E:  BSF    F93.2
0D20:  BTFSC  F81.2
0D22:  BRA    0D26
....................       BREAK; 
0D24:  BRA    0D2A
0D26:  INCF   3B,F
0D28:  BRA    0D04
....................    } 
0D2A:  RETURN 0
....................    } 
....................  
.................... void main() 
*
0D86:  CLRF   FF8
0D88:  BCF    FD0.7
0D8A:  CLRF   06
0D8C:  CLRF   0D
0D8E:  CLRF   0E
0D90:  CLRF   0F
0D92:  CLRF   10
0D94:  CLRF   19
0D96:  MOVF   FC1,W
0D98:  ANDLW  C0
0D9A:  IORLW  0F
0D9C:  MOVWF  FC1
0D9E:  MOVLW  07
0DA0:  MOVWF  FB4
0DA2:  SETF   11
0DA4:  SETF   12
0DA6:  SETF   13
0DA8:  SETF   14
0DAA:  SETF   15
0DAC:  SETF   16
0DAE:  SETF   17
0DB0:  SETF   18
.................... { 
....................    set_up_port_ic_chot(); 
0DB2:  GOTO   0134
....................    setup_lcd () ; 
0DB6:  GOTO   023E
....................    doc_thoi_gian_tu_realtime () ; 
0DBA:  CALL   0316
....................  
....................    IF (ma_ds13 != ma_ds) 
0DBE:  MOVF   22,W
0DC0:  SUBLW  91
0DC2:  BZ    0DCC
....................    { 
....................       thiet_lap_thoi_gian_hien_tai () ; 
0DC4:  GOTO   03EC
....................       nap_thoi_gian_htai_vao_ds13B07 () ; 
0DC8:  CALL   0414
....................    } 
....................  
....................    giatri_mod = 0; 
0DCC:  CLRF   27
....................    hien_thi_gia_tri_mod (); 
0DCE:  CALL   04B0
....................    doc_thoi_gian_tu_realtime () ; 
0DD2:  CALL   0316
....................    giaytam = giay_ds13; 
0DD6:  MOVFF  21,24
....................    
....................    lcd_command(0x40); 
0DDA:  MOVLW  40
0DDC:  MOVWF  41
0DDE:  CALL   0202
....................    FOR (i=0;i<64;i++) { lcd_data(lcd_ma_8doan[i]); } 
0DE2:  CLRF   35
0DE4:  BTFSC  35.7
0DE6:  BRA    0DEE
0DE8:  MOVF   35,W
0DEA:  SUBLW  3F
0DEC:  BNC   0E0C
0DEE:  CLRF   03
0DF0:  MOVF   35,W
0DF2:  MOVFF  FF2,3A
0DF6:  BCF    FF2.7
0DF8:  CALL   00C4
0DFC:  BTFSC  3A.7
0DFE:  BSF    FF2.7
0E00:  MOVWF  3A
0E02:  MOVWF  3E
0E04:  CALL   049A
0E08:  INCF   35,F
0E0A:  BRA    0DE4
....................    tt=1; 
0E0C:  BSF    38.0
....................     giaima_hienthi_to(); 
0E0E:  CALL   04C2
....................          HT_DS1307_to ( ); 
0E12:  RCALL  062E
....................    WHILE (true) 
....................    { 
....................       doc_thoi_gian_tu_realtime () ; 
0E14:  CALL   0316
....................       phim_nhan(); 
0E18:  BRA    06C8
....................       IF (giaytam != giay_ds13) 
0E1A:  MOVF   21,W
0E1C:  SUBWF  24,W
0E1E:  BZ    0E4A
....................       { 
....................          giaytam = giay_ds13; 
0E20:  MOVFF  21,24
....................          hien_thi_gia_tri_mod (); 
0E24:  CALL   04B0
....................          giai_ma_gan_cho_8led_quet(); 
0E28:  BRA    06EC
....................           
....................          for(int i=0;i<200;i++) 
0E2A:  CLRF   39
0E2C:  MOVF   39,W
0E2E:  SUBLW  C7
0E30:  BNC   0E38
....................        { 
....................        hien_thi_8led_7doan_quet();// LED QUET 
0E32:  BRA    081A
0E34:  INCF   39,F
0E36:  BRA    0E2C
....................        } 
....................           
....................          if (tt==0) 
0E38:  BTFSC  38.0
0E3A:  BRA    0E42
....................          { 
....................          giaima_hienthi_nho(); 
0E3C:  BRA    0866
....................          HT_DS1307_nho ( ); 
0E3E:  RCALL  0908
....................          } 
0E40:  BRA    0E4A
....................          else  
....................          { 
....................          giaima_hienthi_to(); 
0E42:  CALL   04C2
....................          HT_DS1307_to ( ); 
0E46:  CALL   062E
....................          } 
....................       } 
....................  
....................       FOR (k = 0; k < 10000; k++) 
0E4A:  CLRF   26
0E4C:  CLRF   25
0E4E:  MOVF   26,W
0E50:  SUBLW  27
0E52:  BNC   0E6A
0E54:  BNZ   0E5C
0E56:  MOVF   25,W
0E58:  SUBLW  0F
0E5A:  BNC   0E6A
....................       { 
....................          phim_mod (); phim_up (); phim_dw (); 
0E5C:  BRA    0992
0E5E:  BRA    0AB8
0E60:  BRA    0BBE
0E62:  INCF   25,F
0E64:  BTFSC  FD8.2
0E66:  INCF   26,F
0E68:  BRA    0E4E
....................       } 
....................        
....................       IF (giatri_mod != 0)  
0E6A:  MOVF   27,F
0E6C:  BZ    0E8A
....................       { 
....................          if(tt==0) 
0E6E:  BTFSC  38.0
0E70:  BRA    0E7E
....................           { 
....................           nhap_nhay_nho(); 
0E72:  BRA    0CA6
....................           delay_mssv (500) ; 
0E74:  MOVLW  F4
0E76:  MOVWF  3A
0E78:  RCALL  0D02
....................           HT_DS1307_nho( ); 
0E7A:  RCALL  0908
....................           } 
0E7C:  BRA    0E8A
....................           else 
....................         { 
....................           nhap_nhay_to(); 
0E7E:  BRA    0D2C
....................           delay_mssv (500) ; 
0E80:  MOVLW  F4
0E82:  MOVWF  3A
0E84:  RCALL  0D02
....................           HT_DS1307_to( ); 
0E86:  CALL   062E
....................           } 
....................       }  
0E8A:  BRA    0E14
....................    } 
.................... } 
....................  
0E8C:  SLEEP 

Configuration Fuses:
   Word  1: CC27   PLL12 CPUDIV1 USBDIV HS FCMEN IESO
   Word  2: 1E3E   PUT BROWNOUT BORV21 VREGEN NOWDT WDT32768
   Word  3: 8700   CCP2C1 PBADEN LPT1OSC MCLR
   Word  4: 00A1   STVREN NOLVP ICSP2 NOXINST NODEBUG
   Word  5: C00F   NOPROTECT NOCPB NOCPD
   Word  6: E00F   NOWRT NOWRTC NOWRTB NOWRTD
   Word  7: 400F   NOEBTR NOEBTRB
