CCS PCH C Compiler, Version 5.015, 5967               01-Jun-20 14:48

               Filename:   C:\Users\tsqua\OneDrive - student.mtsac.edu\Desktop\BAI_TAP_VXL_NEW_3\BAI_421_DEM_XUNG_T0_QUANG_CAO_32LED.lst

               ROM used:   2726 bytes (8%)
                           Largest free fragment is 30042
               RAM used:   98 (5%) at main() level
                           123 (6%) worst case
               Stack used: 7 locations
               Stack size: 31

*
0000:  GOTO   0936
.................... #INCLUDE <TV_PICKIT2_SHIFT_1.C> 
.................... #INCLUDE    <18F4550.H> 
.................... //////////// Standard Header file for the PIC18F4550 device //////////////// 
.................... /////////////////////////////////////////////////////////////////////////// 
.................... ////        (C) Copyright 1996, 2013 Custom Computer Services          //// 
.................... //// This source code may only be used by licensed users of the CCS C  //// 
.................... //// compiler.  This source code may only be distributed to other      //// 
.................... //// licensed users of the CCS C compiler.  No other use, reproduction //// 
.................... //// or distribution is permitted without written permission.          //// 
.................... //// Derivative programs created using this software in object code    //// 
.................... //// form are not restricted in any way.                               //// 
.................... /////////////////////////////////////////////////////////////////////////// 
.................... #device PIC18F4550 
0004:  CLRF   FF7
0006:  ADDLW  14
0008:  MOVWF  FF6
000A:  MOVLW  00
000C:  ADDWFC FF7,F
000E:  TBLRD*+
0010:  MOVF   FF5,W
0012:  RETURN 0
0014:  DATA C0,F9
0016:  DATA A4,B0
0018:  DATA 99,92
001A:  DATA 82,F8
001C:  DATA 80,90
001E:  DATA 88,83
0020:  DATA C6,A1
0022:  DATA 86,8E
0024:  CLRF   FF7
0026:  ADDLW  34
0028:  MOVWF  FF6
002A:  MOVLW  00
002C:  ADDWFC FF7,F
002E:  TBLRD*+
0030:  MOVF   FF5,W
0032:  RETURN 0
0034:  DATA 7F,BF
0036:  DATA DF,EF
0038:  DATA F7,FB
003A:  DATA FD,FE
*
005A:  MOVF   x65,W
005C:  CLRF   01
005E:  SUBWF  x64,W
0060:  BC    0068
0062:  MOVFF  64,00
0066:  BRA    0080
0068:  CLRF   00
006A:  MOVLW  08
006C:  MOVWF  x66
006E:  RLCF   x64,F
0070:  RLCF   00,F
0072:  MOVF   x65,W
0074:  SUBWF  00,W
0076:  BTFSC  FD8.0
0078:  MOVWF  00
007A:  RLCF   01,F
007C:  DECFSZ x66,F
007E:  BRA    006E
0080:  RETURN 0
*
0198:  CLRF   01
019A:  CLRF   02
019C:  CLRF   00
019E:  CLRF   03
01A0:  MOVF   x69,W
01A2:  BNZ   01A8
01A4:  MOVF   x68,W
01A6:  BZ    01D8
01A8:  MOVLW  10
01AA:  MOVWF  x6A
01AC:  BCF    FD8.0
01AE:  RLCF   x66,F
01B0:  RLCF   x67,F
01B2:  RLCF   00,F
01B4:  RLCF   03,F
01B6:  MOVF   x69,W
01B8:  SUBWF  03,W
01BA:  BNZ   01C0
01BC:  MOVF   x68,W
01BE:  SUBWF  00,W
01C0:  BNC   01D0
01C2:  MOVF   x68,W
01C4:  SUBWF  00,F
01C6:  BTFSS  FD8.0
01C8:  DECF   03,F
01CA:  MOVF   x69,W
01CC:  SUBWF  03,F
01CE:  BSF    FD8.0
01D0:  RLCF   01,F
01D2:  RLCF   02,F
01D4:  DECFSZ x6A,F
01D6:  BRA    01AC
01D8:  RETURN 0
....................  
.................... #list 
....................  
.................... #DEVICE     ADC=10 
.................... #FUSES      NOWDT,PUT,HS,NOPROTECT,NOLVP,CPUDIV1 
.................... #USE        I2C(MASTER,SLOW,SDA=PIN_B0,SCL=PIN_B1) 
.................... #USE        DELAY(CLOCK=20000000) 
*
0392:  CLRF   FEA
0394:  MOVLW  67
0396:  MOVWF  FE9
0398:  MOVF   FEF,W
039A:  BZ    03B6
039C:  MOVLW  06
039E:  MOVWF  01
03A0:  CLRF   00
03A2:  DECFSZ 00,F
03A4:  BRA    03A2
03A6:  DECFSZ 01,F
03A8:  BRA    03A0
03AA:  MOVLW  7B
03AC:  MOVWF  00
03AE:  DECFSZ 00,F
03B0:  BRA    03AE
03B2:  DECFSZ FEF,F
03B4:  BRA    039C
03B6:  RETURN 0
.................... //#USE        rs232(baud=9600, xmit=PIN_C6,rcv=PIN_C7) 
.................... //NUT NHAN: 
.................... #DEFINE  BT0     PIN_B5 
.................... #DEFINE  BT1     PIN_B4 
.................... #DEFINE  BT2     PIN_B3 
.................... #DEFINE  BT3     PIN_B2 
....................  
.................... #DEFINE  ON      BT0       //DK LED DON, MOTOR 
.................... #DEFINE  OFF     BT1 
.................... #DEFINE  INV     BT2 
....................  
.................... #DEFINE  UP      BT0    //DK LED DON 
.................... #DEFINE  DW      BT1 
.................... #DEFINE  CLR     BT2 
.................... #DEFINE  MOD     BT3 
....................  
.................... #DEFINE  STOP    BT3 
....................  
.................... #DEFINE  ON1     BT0      
.................... #DEFINE  OFF1    BT1 
.................... #DEFINE  ON2     BT2        
.................... #DEFINE  OFF2    BT3 
....................  
....................  
.................... #DEFINE     TRIGGER      PIN_E2 
.................... #DEFINE     ECHO         PIN_E1 
.................... //   IC74138_A    PIN_B6   //OUTPUT GIAI MA 2 SANG 4 TICH CUC MUC 0 
.................... //   IC74138_B    PIN_B7   //OUTPUT GIAI MA 2 SANG 4 TICH CUC MUC 0 
....................  
.................... //          ENCODER  PIN_C0   //RC0/T13CKI 
....................  
.................... //          CB_KC    PIN_A2   //RA2/AN2 
.................... //          PIR      PIN_A3   //RA3/AN3 
.................... //          CBXUNG   PIN_A4   //RA4/T0CKI 
.................... //          LEDTHU   PIN_A4   //RA4/T0CKI//SW802 
....................  
.................... //          CB_KCSA_TRIGGER  PIN_E2   //RE2/SDO  DUNG CHUNG 
.................... //          CB_KCSA_RCHO     PIN_E1   //RE1 
....................  
.................... //          CB_TCS3200_OUT    PIN_E1   //RE1 //CAM BIEN MAU TCS3200 
.................... //          CB_TCS3200_S0     B12      //LAY TU MBI5026 
.................... //          CB_TCS3200_S1     B13      //LAY TU MBI5026 
.................... //          CB_TCS3200_S2     B14      //LAY TU MBI5026 
.................... //          CB_TCS3200_S3     B15      //LAY TU MBI5026 
....................  
.................... //          CB_POWER  SW803 
.................... //          CB_GAS      AIN3_PCF8591T   //RE1 
.................... //          CB_QUANG    AIN2_PCF8591T    
.................... //          CB_LM35B    AIN1_PCF8591T   //RA1/AN1 
.................... //          CB_LM35A    AIN0_PCF8591T   //RE1/AN0 
....................  
.................... //XXXXXXXXXXXXXXXXXXXXXXXXXXXXXXXXXXXXXXXXXXXXXXXXX 
.................... #DEFINE      ENABLE_573A      PIN_D1         //CS0 CUA A 
.................... #DEFINE      ENABLE_573B      PIN_D0         //CS1 CUA B 
.................... //XXXXXXXXXXXXXXXXXXXXXXXXXXXXXXXXXXXXXXXXXXXXXXXXX 
.................... #DEFINE      SSDO             PIN_E2         //CHUNG TAT CA 
.................... #DEFINE      SSCK             PIN_E0         //CHUNG TAT CA 
.................... //XXXXXXXXXXXXXXXXXXXXXXXXXXXXXXXXXXXXXXXXXXXXXXXXX 
.................... #DEFINE      RCK_4LED7DOAN    PIN_D7         //A - 4 BYTE 
.................... #DEFINE      G_4LED7DOAN      PIN_D6         //A - 4 BYTE 
.................... //XXXXXXXXXXXXXXXXXXXXXXXXXXXXXXXXXXXXXXXXXXXX     
.................... #DEFINE      RCK_MATRANLED    PIN_D7         //B - 3 BYTE DAO 
.................... #DEFINE      G_MATRANLED      PIN_D6         //B - 3 BYTE DAO 
.................... //XXXXXXXXXXXXXXXXXXXXXXXXXXXXXXXXXXXXXXXXXXXXXXXXX 
.................... #DEFINE      RCK_32LED        PIN_D5         //A - 4 BYTE 
.................... #DEFINE      G_32LED          PIN_D4         //A - 4 BYTE 
.................... //XXXXXXXXXXXXXXXXXXXXXXXXXXXXXXXXXXXXXXXXXXXX  
.................... #DEFINE      RCK_8LEDQUET     PIN_D5         //B - 2 BYTE DAO 
.................... #DEFINE      G_8LEDQUET       PIN_D4         //B - 2 BYTE DAO 
.................... //XXXXXXXXXXXXXXXXXXXXXXXXXXXXXXXXXXXXXXXXXXXXXXXXX 
.................... #DEFINE      RCK_LCD20X4      PIN_D3         //A - 2 BYTE DAO 
.................... #DEFINE      G_LCD20X4         PIN_D2         //A - 2 BYTE DAO 
.................... //XXXXXXXXXXXXXXXXXXXXXXXXXXXXXXXXXXXXXXXXXXXX  
.................... #DEFINE      RCK_BUZERELAY    PIN_D3     //B - 1 BYTE  
.................... #DEFINE      G_BUZERELAY      PIN_D2         //B - 1 BYTE  
....................  
.................... VOID XUAT_LCD20X4(UNSIGNED INT8 LCD_SIGNAL,LCD_INS_HTHI); 
....................  
.................... VOID XUAT_BUZZER_RELAY(); 
.................... //XXXXXXXXXXXXXXXXXXXXXXXXXXXXXXXXXXXXXXXXXXXX    
.................... #DEFINE     CHOT_2_IC_74573_A_B  OUTPUT_D(0XFC) 
....................  
.................... UNSIGNED INT8 TIN_HIEU_DK_74573_A; 
.................... #BIT G_4A         = TIN_HIEU_DK_74573_A.6 
.................... #BIT G_32A        = TIN_HIEU_DK_74573_A.4 
.................... #BIT G_LCDA       = TIN_HIEU_DK_74573_A.2 
.................... //XXXXXXXXXXXXXXXXXXXXXXXXXXXXXXXXXXXXXXXXXXXX          
.................... #DEFINE     MO_32_LED_DON        G_32A=0; //OUTPUT_LOW(G_32LED)  
.................... #DEFINE     TAT_32_LED_DON       G_32A=1; //OUTPUT_HIGH(G_32LED)  
.................... //XXXXXXXXXXXXXXXXXXXXXXXXXXXXXXXXXXXXXXXXXXXX          
.................... #DEFINE     MO_4_LED_7DOAN       G_4A=0;  //OUTPUT_LOW(G_4LED7DOAN) 
.................... #DEFINE     TAT_4_LED_7DOAN      G_4A=1;  //OUTPUT_HIGH(G_4LED7DOAN) 
.................... //XXXXXXXXXXXXXXXXXXXXXXXXXXXXXXXXXXXXXXXXXXXX  
.................... #DEFINE     MO_GLCD_LCD           G_LCDA=0;   //OUTPUT_LOW(G_LCD20X4) 
.................... #DEFINE     TAT_GLCD_LCD          G_LCDA=1;   // OUTPUT_LOW(G_LCD20X4) 
....................  
.................... UNSIGNED INT8 TIN_HIEU_DK_74573_B;   
.................... #BIT G_MTB        = TIN_HIEU_DK_74573_B.6 
.................... #BIT G_8B         = TIN_HIEU_DK_74573_B.4 
.................... #BIT G_RBDCB      = TIN_HIEU_DK_74573_B.2 
.................... //XXXXXXXXXXXXXXXXXXXXXXXXXXXXXXXXXXXXXXXXXXXX  
.................... #DEFINE     MO_LED_MATRAN        G_MTB=0; //OUTPUT_LOW(G_MATRANLED) 
.................... #DEFINE     TAT_LED_MATRAN       G_MTB=1; //OUTPUT_LOW(G_MATRANLED) 
.................... //XXXXXXXXXXXXXXXXXXXXXXXXXXXXXXXXXXXXXXXXXXXX        
.................... #DEFINE     MO_8_LED_QUET        G_8B=0;  //OUTPUT_LOW(G_8LEDQUET) 
.................... #DEFINE     TAT_8_LED_QUET       G_8B=1;  //OUTPUT_LOW(G_8LEDQUET) 
.................... //XXXXXXXXXXXXXXXXXXXXXXXXXXXXXXXXXXXXXXXXXXXX          
.................... #DEFINE     MO_RELAY_BUZZER_DC   G_RBDCB=0;  //OUTPUT_LOW(G_BUZERELAY) 
.................... #DEFINE     TAT_RELAY_BUZZER_DC  G_RBDCB=1;  //OUTPUT_LOW(G_BUZERELAY) 
....................  
.................... //XXXXXXXXXXXXXXXXXXXXXXXXXXXXXXXXXXXXXXXXXXXX 
.................... //CHUONG TRINH KIEM TRA PHIM BT1 
.................... //XXXXXXXXXXXXXXXXXXXXXXXXXXXXXXXXXXXXXXXXXXXX 
.................... UNSIGNED INT8 DL_BTN=0; 
.................... INT1 PHIM_BT0(UNSIGNED INT16 DL) 
.................... {   
....................     IF (!INPUT(BT0)) 
....................     {   
....................       DL_BTN++; 
....................        
....................       IF (DL_BTN>= DL) 
....................          { 
....................             DL_BTN =0; 
....................             RETURN(1); 
....................          } 
....................       ELSE RETURN(0); 
....................     } 
....................     ELSE    RETURN(0); 
.................... }  
.................... //XXXXXXXXXXXXXXXXXXXXXXXXXXXXXXXXXXXXXXXXXXXX 
.................... //CHUONG TRINH KIEM TRA PHIM BT1 
.................... //XXXXXXXXXXXXXXXXXXXXXXXXXXXXXXXXXXXXXXXXXXXX 
.................... INT1 PHIM_BT1(UNSIGNED INT16 DL ) 
.................... {   
....................     IF (!INPUT(BT1)) 
....................     {   
....................       DL_BTN++; 
....................        
....................       IF (DL_BTN>= DL) 
....................          { 
....................             DL_BTN =0; 
....................             RETURN(1); 
....................          } 
....................       ELSE RETURN(0); 
....................     } 
....................     ELSE    RETURN(0); 
.................... }  
.................... //XXXXXXXXXXXXXXXXXXXXXXXXXXXXXXXXXXXXXXXXXXXX 
.................... //CHUONG TRINH KIEM TRA PHIM BT2       
.................... //XXXXXXXXXXXXXXXXXXXXXXXXXXXXXXXXXXXXXXXXXXXX                                     
.................... INT1 PHIM_BT2(UNSIGNED INT16 DL ) 
.................... {                                         
....................     IF (!INPUT(BT2)) 
....................     {   
....................       DL_BTN++; 
....................        
....................       IF (DL_BTN>= DL) 
....................          { 
....................             DL_BTN =0; 
....................             RETURN(1); 
....................          } 
....................       ELSE RETURN(0); 
....................     } 
....................     ELSE    RETURN(0); 
....................                                           
.................... }       
....................  
.................... //XXXXXXXXXXXXXXXXXXXXXXXXXXXXXXXXXXXXXXXXXXXX 
.................... //CHUONG TRINH KIEM TRA PHIM BT3 
.................... //XXXXXXXXXXXXXXXXXXXXXXXXXXXXXXXXXXXXXXXXXXXX 
.................... INT1 PHIM_BT3(UNSIGNED INT16 DL,  UNSIGNED INT8 SOLAN  ) 
.................... {   
....................     IF (!INPUT(BT3)) 
....................     {   
....................       DL_BTN++; 
....................       IF(DL_BTN==1) RETURN(1); 
....................       ELSE 
....................       { 
....................          IF (DL_BTN>= DL) 
....................          DL_BTN =SOLAN; 
....................       } 
....................     } 
....................     ELSE    
....................     { 
....................       //DL_BTN =0; 
....................       RETURN(0); 
....................     } 
.................... }  
.................... //XXXXXXXXXXXXXXXXXXXXXXXXXXXXXXXXXXXXXXXXXXXX 
.................... //KHAI BAO DU LIEU 16 BIT CHO MODULE RELAY, TRIAC, BUZZER, DONG CO 
.................... //XXXXXXXXXXXXXXXXXXXXXXXXXXXXXXXXXXXXXXXXXXXX 
.................... UNSIGNED INT16 RBDC; 
.................... #BIT STEP_MOTOR_ENABLE  = RBDC.0    //1=ENA,0=DIS 
.................... #BIT STEP_MOTOR_IN1     = RBDC.1     
.................... #BIT STEP_MOTOR_IN2     = RBDC.2 
.................... #BIT STEP_MOTOR_IN3     = RBDC.3 
.................... #BIT STEP_MOTOR_IN4     = RBDC.4 
.................... #BIT DC_ENABLE          = RBDC.5    //1=ENA,0=DIS 
.................... #BIT PWRKEY             = RBDC.6    //KHOI TAO SIM900 
....................  
.................... #BIT BUZZER             = RBDC.8    //1=ON,0=OFF 
.................... #BIT TRIAC_1            = RBDC.9    //1=ON,0=OFF 
.................... #BIT TRIAC_2            = RBDC.10   //1=ON,0=OFF 
.................... #BIT RELAY_1            = RBDC.11   //0=ON,1=OFF 
.................... #BIT RELAY_2            = RBDC.12   //0=ON,1=OFF 
....................  
.................... //HAM 103 
.................... //XXXXXXXXXXXXXXXXXXXXXXXXXXXXXXXXXXXXXXXXXXXX 
.................... //CHUONG TRINH CON KHOI TAO IC CHOT 
.................... //XXXXXXXXXXXXXXXXXXXXXXXXXXXXXXXXXXXXXXXXXXXX          
.................... #DEFINE     CHO_IC_74573_A_GOI_DU_LIEU     OUTPUT_HIGH(ENABLE_573A) 
.................... #DEFINE     CHOT_IC_74573_A_GOI_DU_LIEU    OUTPUT_LOW(ENABLE_573A) 
....................  
.................... #DEFINE     CHO_IC_74573_B_GOI_DU_LIEU     OUTPUT_HIGH(ENABLE_573B) 
.................... #DEFINE     CHOT_IC_74573_B_GOI_DU_LIEU    OUTPUT_LOW(ENABLE_573B) 
.................... VOID MO_IC_74573_A_THONG_DL(); 
....................  
.................... //XXXXXXXXXXXXXXXXXXXXXXXXXXXXXXXXXXXXXXXXXXXX    
.................... CONST UNSIGNED CHAR MA7DOAN[16]= {0XC0,0XF9,0xA4,0XB0,0X99,0X92,0X82,0XF8, 
.................... 0X80,0X90,0x88, 0x83, 0xC6, 0xA1, 0x86, 0x8E}; 
.................... #DEFINE     MASO0    0XC0 
.................... #DEFINE     MASO1    0XF9 
.................... #DEFINE     MASO2    0XA4 
.................... #DEFINE     MASO3    0XB0 
.................... #DEFINE     MASO4    0X99 
.................... #DEFINE     MASO5    0X92 
.................... #DEFINE     MASO6    0X82 
.................... #DEFINE     MASO7    0XF8 
....................  
.................... //XXXXXXXXXXXXXXXXXXXXXXXXXXXXXXXXXXXXXXXXXXXX  
.................... //HAM 102 
.................... //XXXXXXXXXXXXXXXXXXXXXXXXXXXXXXXXXXXXXXXXXXXX     
.................... //XUAT 1 BYTE RA THANH GHI DICH 
.................... //XXXXXXXXXXXXXXXXXXXXXXXXXXXXXXXXXXXXXXXXXXXX     
.................... VOID XUAT_1BYTE(UNSIGNED INT8 BYTEXUAT) 
.................... { 
....................    UNSIGNED INT8   SB,X;    
....................    #BIT BSERI  = X.7 
....................    X = BYTEXUAT; 
*
0082:  MOVFF  78,7A
....................    FOR (SB=0;SB<8;SB++) 
0086:  CLRF   x79
0088:  MOVF   x79,W
008A:  SUBLW  07
008C:  BNC   00AA
....................       {                                                  
....................          OUTPUT_BIT(SSDO,BSERI);     
008E:  BTFSC  x7A.7
0090:  BRA    0096
0092:  BCF    F8D.2
0094:  BRA    0098
0096:  BSF    F8D.2
0098:  BCF    F96.2
....................          OUTPUT_LOW(SSCK); OUTPUT_HIGH(SSCK); 
009A:  BCF    F96.0
009C:  BCF    F8D.0
009E:  BCF    F96.0
00A0:  BSF    F8D.0
....................          X= X<<1;          
00A2:  BCF    FD8.0
00A4:  RLCF   x7A,F
00A6:  INCF   x79,F
00A8:  BRA    0088
....................      } 
00AA:  RETURN 0
.................... } 
.................... //XXXXXXXXXXXXXXXXXXXXXXXXXXXXXXXXXXXXXXXXXXXX  
.................... //HAM 301 
.................... //XXXXXXXXXXXXXXXXXXXXXXXXXXXXXXXXXXXXXXXXXXXX 
.................... //CHUONG TRINH CON XUAT 4 BYTE RA 32 LED DON 
.................... //XXXXXXXXXXXXXXXXXXXXXXXXXXXXXXXXXXXXXXXXXXXX 
.................... VOID XUAT_32LED_DON_4BYTE(UNSIGNED INT8 BLD3,BLD2,BLD1,BLD0) 
.................... {      
....................       XUAT_1BYTE(BLD3);           
*
0302:  MOVFF  74,78
0306:  RCALL  0082
....................       XUAT_1BYTE(BLD2); 
0308:  MOVFF  75,78
030C:  RCALL  0082
....................       XUAT_1BYTE(BLD1);           
030E:  MOVFF  76,78
0312:  RCALL  0082
....................       XUAT_1BYTE(BLD0);             
0314:  MOVFF  77,78
0318:  RCALL  0082
....................       MO_32_LED_DON;       
031A:  BCF    04.4
....................       MO_IC_74573_A_THONG_DL();             
031C:  RCALL  00AC
....................       OUTPUT_HIGH(RCK_32LED);    OUTPUT_LOW(RCK_32LED); 
031E:  BCF    F95.5
0320:  BSF    F8C.5
0322:  BCF    F95.5
0324:  BCF    F8C.5
....................       CHOT_IC_74573_A_GOI_DU_LIEU;       
0326:  BCF    F95.1
0328:  BCF    F8C.1
032A:  GOTO   0350 (RETURN)
.................... } 
.................... //HAM 302 
.................... //XXXXXXXXXXXXXXXXXXXXXXXXXXXXXXXXXXXXXXXXXXXX 
.................... //CHUONG TRINH CON XUAT 2 WORD 16 BITRA 32 LED DON 
.................... //XXXXXXXXXXXXXXXXXXXXXXXXXXXXXXXXXXXXXXXXXXXX 
.................... VOID XUAT_32LED_DON_2WORD(UNSIGNED INT16 WLD1, UNSIGNED INT16 WLD0) 
.................... {      
....................      UNSIGNED INT8  B3,B2,B1,B0; 
....................      B3 = WLD1>>8;  B2 = WLD1;  
032E:  MOVFF  6D,70
0332:  MOVFF  6C,71
....................      B1 = WLD0>>8;  B0 = WLD0; 
0336:  MOVFF  6F,72
033A:  MOVFF  6E,73
....................      XUAT_32LED_DON_4BYTE(B3,B2,B1,B0); 
033E:  MOVFF  70,74
0342:  MOVFF  71,75
0346:  MOVFF  72,76
034A:  MOVFF  73,77
034E:  BRA    0302
0350:  RETURN 0
.................... } 
.................... //HAM 303 
.................... //XXXXXXXXXXXXXXXXXXXXXXXXXXXXXXXXXXXXXXXXXXXX 
.................... //CHUONG TRINH CON XUAT 1 DOUBLE WORD RA 32 LED DON 
.................... //XXXXXXXXXXXXXXXXXXXXXXXXXXXXXXXXXXXXXXXXXXXX 
.................... VOID XUAT_32LED_DON_1DW(UNSIGNED LONG LONG DWLD) 
.................... {      
....................      UNSIGNED INT16  WD1,WD0; 
....................      WD1 = DWLD>>16;  WD0 = DWLD; 
0352:  MOVFF  66,68
0356:  MOVFF  67,69
035A:  MOVFF  65,6B
035E:  MOVFF  64,6A
....................      XUAT_32LED_DON_2WORD(WD1,WD0); 
0362:  MOVFF  69,6D
0366:  MOVFF  68,6C
036A:  MOVFF  6B,6F
036E:  MOVFF  6A,6E
0372:  RCALL  032E
0374:  RETURN 0
.................... } 
....................  
.................... //HAM 304 
.................... //XXXXXXXXXXXXXXXXXXXXXXXXXXXXXXXXXXXXXXXXXXXX 
.................... //CHUONG TRINH CON MO 32 LED DON SANG 
.................... //XXXXXXXXXXXXXXXXXXXXXXXXXXXXXXXXXXXXXXXXXXXX 
.................... VOID MO_32LED_DON() 
.................... {         
....................      XUAT_32LED_DON_1DW(0XFFFFFFFF); 
.................... } 
.................... //HAM 305 
.................... //XXXXXXXXXXXXXXXXXXXXXXXXXXXXXXXXXXXXXXXXXXXX 
.................... //CHUONG TRINH CON TAT 32 LED DON  
.................... //XXXXXXXXXXXXXXXXXXXXXXXXXXXXXXXXXXXXXXXXXXXX 
.................... VOID TAT_32LED_DON() 
.................... {         
....................      XUAT_32LED_DON_1DW(0); 
.................... } 
.................... //XXXXXXXXXXXXXXXXXXXXXXXXXXXXXXXXXXXXXXXXXXXX     
.................... //XUAT 1 BIT ROI TRA LAI KET QUA SAU KHI DICH DI 1 BIT 
.................... //XXXXXXXXXXXXXXXXXXXXXXXXXXXXXXXXXXXXXXXXXXXX     
.................... UNSIGNED  INT8 XUAT_1BIT(UNSIGNED INT8 BYTEXUAT) 
.................... { 
....................       UNSIGNED INT8   XBITX;    
....................       #BIT BSERIX  = XBITX.0 
....................       XBITX = BYTEXUAT; 
....................                                              
....................       OUTPUT_BIT(SSDO,BSERIX);     
....................       OUTPUT_LOW(SSCK); OUTPUT_HIGH(SSCK); 
....................       XBITX= XBITX>>1;    
....................       RETURN(XBITX);   
.................... } 
.................... //XXXXXXXXXXXXXXXXXXXXXXXXXXXXXXXXXXXXXXXXXXXX  
.................... //HAM 101 
.................... //XXXXXXXXXXXXXXXXXXXXXXXXXXXXXXXXXXXXXXXXXXXX     
.................... //HAM KHOI TAO CAC PORT VA IC CHOT 
.................... //XXXXXXXXXXXXXXXXXXXXXXXXXXXXXXXXXXXXXXXXXXXX     
.................... VOID SET_UP_PORT_IC_CHOT() 
.................... {      
....................       SET_TRIS_D(0x00);     
*
003C:  MOVLW  00
003E:  MOVWF  F95
....................       SET_TRIS_E(0X00); 
0040:  MOVWF  F96
....................       OUTPUT_D(0XFF); 
0042:  CLRF   F95
0044:  SETF   F8C
....................       TIN_HIEU_DK_74573_A=0XFF;   
0046:  SETF   04
....................       TIN_HIEU_DK_74573_B=0XFF;       
0048:  SETF   05
....................       CHOT_IC_74573_A_GOI_DU_LIEU; 
004A:  BCF    F95.1
004C:  BCF    F8C.1
....................       CHOT_IC_74573_B_GOI_DU_LIEU;   
004E:  BCF    F95.0
0050:  BCF    F8C.0
....................       RBDC=0; 
0052:  CLRF   08
0054:  CLRF   07
0056:  GOTO   09FE (RETURN)
.................... } 
.................... //HAM 104 
.................... //XXXXXXXXXXXXXXXXXXXXXXXXXXXXXXXXXXXXXXXXXXXX     
.................... //XUAT CÁC THIEU DIEU KHIEN  
.................... //GIU NGUYEN CAC TRANG THAI CUA 2 MODULE KHAC 
.................... //XXXXXXXXXXXXXXXXXXXXXXXXXXXXXXXXXXXXXXXXXXXX     
.................... VOID MO_IC_74573_A_THONG_DL() 
.................... {      
....................       OUTPUT_D(0X00); 
*
00AC:  CLRF   F95
00AE:  CLRF   F8C
....................       OUTPUT_BIT(G_32LED,G_32A); 
00B0:  BTFSC  04.4
00B2:  BRA    00B8
00B4:  BCF    F8C.4
00B6:  BRA    00BA
00B8:  BSF    F8C.4
00BA:  BCF    F95.4
....................       OUTPUT_BIT(G_4LED7DOAN,G_4A); 
00BC:  BTFSC  04.6
00BE:  BRA    00C4
00C0:  BCF    F8C.6
00C2:  BRA    00C6
00C4:  BSF    F8C.6
00C6:  BCF    F95.6
....................       OUTPUT_BIT(G_LCD20X4,G_LCDA);   
00C8:  BTFSC  04.2
00CA:  BRA    00D0
00CC:  BCF    F8C.2
00CE:  BRA    00D2
00D0:  BSF    F8C.2
00D2:  BCF    F95.2
....................       CHO_IC_74573_A_GOI_DU_LIEU; 
00D4:  BCF    F95.1
00D6:  BSF    F8C.1
00D8:  RETURN 0
.................... } 
.................... VOID MO_IC_74573_B_THONG_DL() 
.................... {      
....................       OUTPUT_D(0X00); 
*
03C8:  CLRF   F95
03CA:  CLRF   F8C
....................       OUTPUT_BIT(G_MATRANLED,G_MTB); 
03CC:  BTFSC  05.6
03CE:  BRA    03D4
03D0:  BCF    F8C.6
03D2:  BRA    03D6
03D4:  BSF    F8C.6
03D6:  BCF    F95.6
....................       OUTPUT_BIT(G_8LEDQUET,G_8B); 
03D8:  BTFSC  05.4
03DA:  BRA    03E0
03DC:  BCF    F8C.4
03DE:  BRA    03E2
03E0:  BSF    F8C.4
03E2:  BCF    F95.4
....................       OUTPUT_BIT(G_BUZERELAY,G_RBDCB);  
03E4:  BTFSC  05.2
03E6:  BRA    03EC
03E8:  BCF    F8C.2
03EA:  BRA    03EE
03EC:  BSF    F8C.2
03EE:  BCF    F95.2
....................       CHO_IC_74573_B_GOI_DU_LIEU; 
03F0:  BCF    F95.0
03F2:  BSF    F8C.0
03F4:  RETURN 0
.................... } 
.................... //ham 401 
.................... //XXXXXXXXXXXXXXXXXXXXXXXXXXXXXXXXXXXXXXXXXXXX 
.................... //CHUONG TRINH CON XUAT 4 BYTE RA 4 LED 7 DOAN 
.................... //XXXXXXXXXXXXXXXXXXXXXXXXXXXXXXXXXXXXXXXXXXXX 
.................... VOID XUAT_4LED_7DOAN_4SO(UNSIGNED INT BL743,BL742,BL741,BL740) 
.................... {      
....................       XUAT_1BYTE(BL740);   XUAT_1BYTE(BL741); 
*
00DA:  MOVFF  69,78
00DE:  RCALL  0082
00E0:  MOVFF  68,78
00E4:  RCALL  0082
....................       XUAT_1BYTE(BL742);   XUAT_1BYTE(BL743); 
00E6:  MOVFF  67,78
00EA:  RCALL  0082
00EC:  MOVFF  66,78
00F0:  RCALL  0082
....................        
....................       MO_4_LED_7DOAN; 
00F2:  BCF    04.6
....................       MO_IC_74573_A_THONG_DL(); 
00F4:  RCALL  00AC
....................         
....................       OUTPUT_LOW(RCK_4LED7DOAN);   OUTPUT_HIGH(RCK_4LED7DOAN);  
00F6:  BCF    F95.7
00F8:  BCF    F8C.7
00FA:  BCF    F95.7
00FC:  BSF    F8C.7
....................       CHOT_IC_74573_A_GOI_DU_LIEU; 
00FE:  BCF    F95.1
0100:  BCF    F8C.1
0102:  RETURN 0
.................... } 
.................... //ham 404 
.................... VOID XUAT_4LED_7DOAN_3SO(UNSIGNED INT BL742,BL741,BL740) 
.................... {      
....................      XUAT_4LED_7DOAN_4SO(0XFF,BL742,BL741,BL740); 
0104:  SETF   x66
0106:  MOVFF  63,67
010A:  MOVFF  64,68
010E:  MOVFF  65,69
0112:  RCALL  00DA
0114:  GOTO   0194 (RETURN)
.................... } 
.................... //ham 403 
.................... VOID XUAT_4LED_7DOAN_2SO(UNSIGNED INT BL741,BL740) 
.................... {      
....................      XUAT_4LED_7DOAN_4SO(0XFF,0XFF,BL741,BL740); 
.................... } 
.................... //ham 402 
.................... VOID XUAT_4LED_7DOAN_1SO(UNSIGNED INT BL740) 
.................... {      
....................      XUAT_4LED_7DOAN_4SO(0XFF,0XFF,0XFF,BL740); 
.................... } 
....................  
.................... //ham 405 
.................... //XXXXXXXXXXXXXXXXXXXXXXXXXXXXXXXXXXXXXXXXXXXXXXXXXXXXXXXXXXXXX 
.................... //CHUONG TRINH CON HIEN THI DU LIEU 16 BIT TREN 4 LED 7 DOAN 
.................... //XXXXXXXXXXXXXXXXXXXXXXXXXXXXXXXXXXXXXXXXXXXXXXXXXXXXXXXXXXXXX 
.................... UNSIGNED CHAR DONVI4,CHUC4,TRAM4,NGAN4; 
.................... VOID  XUAT_4LED_7DOAN_GIAIMA_XOA_SO0 (UNSIGNED INT16 TAM) 
.................... {          
....................       DONVI4 = MA7DOAN[TAM %10];          
*
01DA:  MOVFF  63,67
01DE:  MOVFF  62,66
01E2:  CLRF   x69
01E4:  MOVLW  0A
01E6:  MOVWF  x68
01E8:  RCALL  0198
01EA:  MOVFF  00,64
01EE:  MOVFF  03,65
01F2:  MOVFF  03,03
01F6:  MOVF   00,W
01F8:  MOVFF  FF2,66
01FC:  BCF    FF2.7
01FE:  RCALL  0004
0200:  BTFSC  x66.7
0202:  BSF    FF2.7
0204:  MOVWF  09
....................       CHUC4  = MA7DOAN[TAM/10%10]; 
0206:  MOVFF  63,67
020A:  MOVFF  62,66
020E:  CLRF   x69
0210:  MOVLW  0A
0212:  MOVWF  x68
0214:  RCALL  0198
0216:  MOVFF  02,65
021A:  MOVFF  01,64
021E:  MOVFF  02,67
0222:  MOVFF  01,66
0226:  CLRF   x69
0228:  MOVLW  0A
022A:  MOVWF  x68
022C:  RCALL  0198
022E:  MOVFF  00,64
0232:  MOVFF  03,65
0236:  MOVFF  03,03
023A:  MOVF   00,W
023C:  MOVFF  FF2,66
0240:  BCF    FF2.7
0242:  RCALL  0004
0244:  BTFSC  x66.7
0246:  BSF    FF2.7
0248:  MOVWF  0A
....................       TRAM4  = MA7DOAN[TAM/100%10];  
024A:  MOVFF  63,67
024E:  MOVFF  62,66
0252:  CLRF   x69
0254:  MOVLW  64
0256:  MOVWF  x68
0258:  RCALL  0198
025A:  MOVFF  02,65
025E:  MOVFF  01,64
0262:  MOVFF  02,67
0266:  MOVFF  01,66
026A:  CLRF   x69
026C:  MOVLW  0A
026E:  MOVWF  x68
0270:  RCALL  0198
0272:  MOVFF  00,64
0276:  MOVFF  03,65
027A:  MOVFF  03,03
027E:  MOVF   00,W
0280:  MOVFF  FF2,66
0284:  BCF    FF2.7
0286:  RCALL  0004
0288:  BTFSC  x66.7
028A:  BSF    FF2.7
028C:  MOVWF  0B
....................       NGAN4  = MA7DOAN[TAM/1000%10];        
028E:  MOVFF  63,67
0292:  MOVFF  62,66
0296:  MOVLW  03
0298:  MOVWF  x69
029A:  MOVLW  E8
029C:  MOVWF  x68
029E:  RCALL  0198
02A0:  MOVFF  02,65
02A4:  MOVFF  01,64
02A8:  MOVFF  02,67
02AC:  MOVFF  01,66
02B0:  CLRF   x69
02B2:  MOVLW  0A
02B4:  MOVWF  x68
02B6:  RCALL  0198
02B8:  MOVFF  00,64
02BC:  MOVFF  03,65
02C0:  MOVFF  03,03
02C4:  MOVF   00,W
02C6:  MOVFF  FF2,66
02CA:  BCF    FF2.7
02CC:  RCALL  0004
02CE:  BTFSC  x66.7
02D0:  BSF    FF2.7
02D2:  MOVWF  0C
....................       IF (NGAN4==0XC0) 
02D4:  MOVF   0C,W
02D6:  SUBLW  C0
02D8:  BNZ   02EC
....................       { 
....................          NGAN4=0XFF; 
02DA:  SETF   0C
....................          IF (TRAM4==0XC0) 
02DC:  MOVF   0B,W
02DE:  SUBLW  C0
02E0:  BNZ   02EC
....................          { 
....................             TRAM4=0XFF; 
02E2:  SETF   0B
....................             IF (CHUC4==0XC0)   CHUC4=0XFF; 
02E4:  MOVF   0A,W
02E6:  SUBLW  C0
02E8:  BNZ   02EC
02EA:  SETF   0A
....................          } 
....................       } 
....................       XUAT_4LED_7DOAN_4SO(NGAN4,TRAM4,CHUC4,DONVI4);    
02EC:  MOVFF  0C,66
02F0:  MOVFF  0B,67
02F4:  MOVFF  0A,68
02F8:  MOVFF  09,69
02FC:  RCALL  00DA
02FE:  GOTO   0A30 (RETURN)
.................... } 
.................... UNSIGNED INT8 LCDDATA=0;  
.................... UNSIGNED INT8 LCDCONTROL=0; 
.................... UNSIGNED INT8 GLCDDATA=0; 
.................... UNSIGNED INT8 GLCDCONTROL=0;  
.................... //HAM 701 
.................... //XXXXXXXXXXXXXXXXXXXXXXXXXXXXXXXXXXXXXXXXXXXXXXXXXXXXXXXXXXXXX 
.................... //CHUONG TRINH CON XUAT DU LIEU 4 BYTE RA GLCD VA LCD 
.................... //XXXXXXXXXXXXXXXXXXXXXXXXXXXXXXXXXXXXXXXXXXXXXXXXXXXXXXXXXXXXX 
.................... VOID XUAT_GLCD_LCD() 
.................... {       
....................     XUAT_1BYTE(GLCDCONTROL);              
....................     XUAT_1BYTE(GLCDDATA); 
....................     XUAT_1BYTE(LCDCONTROL);        
....................     XUAT_1BYTE(LCDDATA);       
....................        
....................     MO_GLCD_LCD; 
....................     MO_IC_74573_A_THONG_DL();             
....................     OUTPUT_HIGH(RCK_LCD20X4);      
....................     OUTPUT_LOW(RCK_LCD20X4); 
....................     CHOT_IC_74573_A_GOI_DU_LIEU; 
.................... } 
.................... //HAM 702 
.................... VOID XUAT_LCD20X4(UNSIGNED INT8 LCD_SIGNAL,LCD_INS_HTHI) 
.................... {      
....................     LCDCONTROL = ~LCD_SIGNAL; 
....................     LCDDATA    = ~LCD_INS_HTHI;       
....................     XUAT_GLCD_LCD(); 
.................... } 
.................... //HAM 703 
.................... VOID XUAT_GLCD128X64(UNSIGNED INT8 GLCD_SIGNAL,GLCD_INS_HTHI) 
.................... {      
....................     GLCDCONTROL = ~GLCD_SIGNAL; 
....................     GLCDDATA    = ~GLCD_INS_HTHI;      
....................     XUAT_GLCD_LCD(); 
.................... } 
.................... //HAM 501 
.................... //XXXXXXXXXXXXXXXXXXXXXXXXXXXXXXXXXXXXXXXXXXXX 
.................... //CHUONG TRINH CON XUAT 2 BYTE RA DK 1 LED QUET SANG 
.................... //XXXXXXXXXXXXXXXXXXXXXXXXXXXXXXXXXXXXXXXXXXXX 
.................... VOID XUAT_8LED_7DOAN_QUET_1(UNSIGNED INT MA,SO_HTHI) 
.................... {      
....................       XUAT_1BYTE(~MA);   XUAT_1BYTE(~SO_HTHI); 
*
0432:  MOVF   x68,W
0434:  MOVWF  x6A
0436:  COMF   x6A,F
0438:  MOVFF  6A,78
043C:  RCALL  0082
043E:  MOVFF  69,6A
0442:  COMF   x6A,F
0444:  MOVFF  6A,78
0448:  RCALL  0082
....................        
....................       MO_8_LED_QUET; 
044A:  BCF    05.4
....................       MO_IC_74573_B_THONG_DL(); 
044C:  RCALL  03C8
....................        
....................       OUTPUT_HIGH(RCK_8LEDQUET); OUTPUT_LOW(RCK_8LEDQUET); 
044E:  BCF    F95.5
0450:  BSF    F8C.5
0452:  BCF    F95.5
0454:  BCF    F8C.5
....................       CHOT_IC_74573_B_GOI_DU_LIEU; 
0456:  BCF    F95.0
0458:  BCF    F8C.0
045A:  GOTO   0464 (RETURN)
.................... } 
.................... //HAM 502 
.................... //XXXXXXXXXXXXXXXXXXXXXXXXXXXXXXXXXXXXXXXXXXXX 
.................... //CHUONG TRINH CON XUAT 2 BYTE RA TAT 8 LED QUET 
.................... //XXXXXXXXXXXXXXXXXXXXXXXXXXXXXXXXXXXXXXXXXXXX 
.................... VOID XUAT_8LED_7DOAN_QUET_TAT_LED() 
.................... { 
....................    XUAT_8LED_7DOAN_QUET_1(0XFF,0XFF); 
045E:  SETF   x68
0460:  SETF   x69
0462:  BRA    0432
0464:  GOTO   0498 (RETURN)
.................... } 
.................... //HAM 503 
.................... //XXXXXXXXXXXXXXXXXXXXXXXXXXXXXXXXXXXXXXXXXXXX 
.................... //CHUONG TRINH CON HIEN THI LED THEO THU TU 
.................... //XXXXXXXXXXXXXXXXXXXXXXXXXXXXXXXXXXXXXXXXXXXX 
.................... CONST UNSIGNED CHAR TTLEDQUET[8]= {0x7F,0xBF,0xDF,0xEF,0xF7,0xFB,0xFD,0xFE}; 
.................... VOID XUAT_8LED_7DOAN_QUET_2(UNSIGNED INT THUTULED,SO_HTHI) 
.................... {          
....................       XUAT_1BYTE(~ (TTLEDQUET[THUTULED]));   XUAT_1BYTE(~SO_HTHI);      
*
03F6:  CLRF   03
03F8:  MOVF   x69,W
03FA:  MOVFF  FF2,6B
03FE:  BCF    FF2.7
0400:  RCALL  0024
0402:  BTFSC  x6B.7
0404:  BSF    FF2.7
0406:  MOVWF  01
0408:  MOVWF  x6B
040A:  COMF   x6B,F
040C:  MOVFF  6B,78
0410:  RCALL  0082
0412:  MOVFF  6A,6B
0416:  COMF   x6B,F
0418:  MOVFF  6B,78
041C:  RCALL  0082
....................       MO_8_LED_QUET; 
041E:  BCF    05.4
....................       MO_IC_74573_B_THONG_DL(); 
0420:  RCALL  03C8
....................       OUTPUT_HIGH(RCK_8LEDQUET); OUTPUT_LOW(RCK_8LEDQUET); 
0422:  BCF    F95.5
0424:  BSF    F8C.5
0426:  BCF    F95.5
0428:  BCF    F8C.5
....................       CHOT_IC_74573_B_GOI_DU_LIEU; 
042A:  BCF    F95.0
042C:  BCF    F8C.0
042E:  GOTO   048C (RETURN)
.................... } 
.................... //HAM 504 
.................... //XXXXXXXXXXXXXXXXXXXXXXXXXXXXXXXXXXXXXXXXXXXX 
.................... //CHUONG TRINH CON HIEN THI 8 SO TREN 8 LED QUET - CO KIEM TRA 
.................... //XXXXXXXXXXXXXXXXXXXXXXXXXXXXXXXXXXXXXXXXXXXX 
.................... UNSIGNED INT8 LED_7DQ[8]={0XFF,0XFF,0XFF,0XFF,0XFF,0XFF,0XFF,0XFF}; 
.................... UNSIGNED INT8 TT8LED=0; 
.................... VOID HIEN_THI_8LED_7DOAN_QUET() 
.................... {      
....................       FOR(TT8LED=0;TT8LED<8;TT8LED++) 
....................          IF (LED_7DQ[TT8LED]!=0XFF) 
....................          {            
....................             XUAT_8LED_7DOAN_QUET_2(TT8LED, LED_7DQ[TT8LED]); 
....................             DELAY_US(100); 
....................             XUAT_8LED_7DOAN_QUET_TAT_LED();            
....................             } 
.................... } 
.................... //HAM 505 
.................... //XXXXXXXXXXXXXXXXXXXXXXXXXXXXXXXXXXXXXXXXXXXX 
.................... //CHUONG TRINH CON HIEN THI 8 SO TREN 8 LED QUET - KHONG KIEM TRA 
.................... //XXXXXXXXXXXXXXXXXXXXXXXXXXXXXXXXXXXXXXXXXXXX 
.................... VOID HIEN_THI_8LED_7DOAN_QUET_ALL() 
.................... {      
....................       FOR(TT8LED=0;TT8LED<8;TT8LED++)          
*
0468:  CLRF   19
046A:  MOVF   19,W
046C:  SUBLW  07
046E:  BNC   049C
....................          {            
....................             XUAT_8LED_7DOAN_QUET_2(TT8LED, LED_7DQ[TT8LED]); 
0470:  CLRF   03
0472:  MOVF   19,W
0474:  ADDLW  11
0476:  MOVWF  FE9
0478:  MOVLW  00
047A:  ADDWFC 03,W
047C:  MOVWF  FEA
047E:  MOVFF  FEF,68
0482:  MOVFF  19,69
0486:  MOVFF  68,6A
048A:  BRA    03F6
....................             DELAY_US(100); 
048C:  MOVLW  A6
048E:  MOVWF  00
0490:  DECFSZ 00,F
0492:  BRA    0490
0494:  NOP   
....................             XUAT_8LED_7DOAN_QUET_TAT_LED();            
0496:  BRA    045E
0498:  INCF   19,F
049A:  BRA    046A
....................             } 
049C:  GOTO   04AA (RETURN)
.................... } 
....................  
.................... VOID DELAY_QUET_8LED(UNSIGNED INT16 DL) 
.................... {  
....................       UNSIGNED INT8 I; 
....................       FOR (I=0; I<DL;I++) 
....................       HIEN_THI_8LED_7DOAN_QUET_ALL(); 
.................... }  
....................  
.................... VOID GIAI_MA_GAN_CHO_8LED_QUET_16_XOA(UNSIGNED INT16 X) 
.................... {      
....................       LED_7DQ[0]= MA7DOAN [X %10];     
....................       LED_7DQ[1]= MA7DOAN [X/10%10]; 
....................       LED_7DQ[2]= MA7DOAN [X/100%10];     
....................       LED_7DQ[3]= MA7DOAN [X/1000%10]; 
....................       LED_7DQ[4]= MA7DOAN [X/10000%10]; 
....................       IF (LED_7DQ[4]==MASO0)  
....................       { 
....................             LED_7DQ[4]=0XFF; 
....................             IF (LED_7DQ[3]==MASO0)  
....................             { 
....................                LED_7DQ[3]=0XFF; 
....................                IF (LED_7DQ[2]==MASO0)  
....................                { 
....................                   LED_7DQ[2]=0XFF; 
....................                   IF (LED_7DQ[1]==MASO0)  
....................                   { 
....................                      LED_7DQ[1]=0XFF; 
....................                   } 
....................                } 
....................             } 
....................       } 
....................              
.................... } 
.................... //XXXXXXXXXXXXXXXXXXXXXXXXXXXXXXXXXXXXXXXXXXXX          
.................... VOID XUAT_2BYTE(UNSIGNED INT16 BYTE2XUAT) 
.................... { 
....................    INT8 SBB; 
....................    UNSIGNED INT16   XX;   //SHORT  BSERI; 
....................    #BIT BSERIX  = XX.15 
....................    XX = BYTE2XUAT; 
....................    FOR (SBB=0;SBB<16;SBB++) 
....................       {                                                  
....................          OUTPUT_BIT(SSDO,BSERIX);     
....................          OUTPUT_LOW(SSCK);          
....................          OUTPUT_HIGH(SSCK); 
....................          XX= XX<<1;          
....................      } 
.................... } 
.................... //XXXXXXXXXXXXXXXXXXXXXXXXXXXXXXXXXXXXXXXXXXXX 
.................... //CHUONG TRINH CON XUAT RA LED MA TRAN 
.................... //XXXXXXXXXXXXXXXXXXXXXXXXXXXXXXXXXXXXXXXXXXXX 
.................... VOID XUAT_MATRANLED(UNSIGNED INT16 MAHANG,UNSIGNED INT16 MACOT1, 
.................... UNSIGNED INT16 MACOT2,UNSIGNED INT16 MACOT3) 
.................... {       
....................       XUAT_2BYTE(MACOT3); 
....................       XUAT_2BYTE(MACOT2); 
....................       XUAT_2BYTE(MACOT1); 
....................       XUAT_2BYTE(MAHANG); 
....................        
....................       MO_LED_MATRAN; 
....................       MO_IC_74573_B_THONG_DL(); 
....................        
....................       OUTPUT_HIGH(RCK_MATRANLED); OUTPUT_LOW(RCK_MATRANLED);  
....................       CHOT_IC_74573_B_GOI_DU_LIEU; 
.................... } 
.................... //XXXXXXXXXXXXXXXXXXXXXXXXXXXXXXXXXXXXXXXXXXXX 
.................... //CHUONG TRINH CON XUAT RA LED MA TRAN 
.................... //XXXXXXXXXXXXXXXXXXXXXXXXXXXXXXXXXXXXXXXXXXXX 
.................... VOID TAT_MATRANLED() 
.................... {       
....................       XUAT_2BYTE(0); 
....................       XUAT_2BYTE(0); 
....................       XUAT_2BYTE(0); 
....................       XUAT_2BYTE(0);            
....................       OUTPUT_HIGH(RCK_MATRANLED);  
....................       OUTPUT_LOW(RCK_MATRANLED); 
.................... } 
.................... UNSIGNED  INT8 HIEU_CHINH_4BIT_CAO(UNSIGNED INT8 XZY) 
.................... { 
....................       INT1  BTG; 
....................       UNSIGNED INT8   BX;    
....................       #BIT BIT4  = BX.4 
....................       #BIT BIT5  = BX.5 
....................       #BIT BIT6  = BX.6 
....................       #BIT BIT7  = BX.7 
....................       BX=XZY; 
....................       BTG=BIT4;   BIT4=BIT7;  BIT7=BTG; 
....................       BTG=BIT5;   BIT5=BIT6;  BIT6=BTG;       
....................       RETURN(BX);   
.................... } 
.................... //HAM 601 
.................... //XXXXXXXXXXXXXXXXXXXXXXXXXXXXXXXXXXXXXXXXXXXXXXXXXXXX 
.................... //MODULE DIEU KHIEN RELAY,TRIAC, BUZZER, DONG CO, SIM 
.................... //XXXXXXXXXXXXXXXXXXXXXXXXXXXXXXXXXXXXXXXXXXXXXXXXXXXX 
.................... VOID XUAT_BUZZER_RELAY() 
.................... {      
....................    UNSIGNED INT8 RBDC1,RBDC2; 
....................       RBDC1=RBDC; RBDC2=RBDC>>8;       
....................       XUAT_1BYTE(RBDC2);       
....................       XUAT_1BYTE(RBDC1); 
....................       MO_RELAY_BUZZER_DC; 
....................       MO_IC_74573_B_THONG_DL(); 
....................        
....................       OUTPUT_HIGH(RCK_BUZERELAY);   OUTPUT_LOW(RCK_BUZERELAY); 
....................       CHOT_IC_74573_B_GOI_DU_LIEU; 
.................... } 
.................... //HAM 602 
.................... //XXXXXXXXXXXXXXXXXXXXXXXXXXXXXXXXXXXXXXXXXXXXXXXXXXXX 
.................... VOID BUZZER_ON() 
.................... {     
....................       BUZZER=1; 
....................       XUAT_BUZZER_RELAY();          
.................... } 
.................... //HAM 603 
.................... //XXXXXXXXXXXXXXXXXXXXXXXXXXXXXXXXXXXXXXXXXXXXXXXXXXXX 
.................... VOID BUZZER_OFF() 
.................... {      
....................       BUZZER=0; 
....................       XUAT_BUZZER_RELAY(); 
.................... } 
.................... //HAM 604 
.................... //XXXXXXXXXXXXXXXXXXXXXXXXXXXXXXXXXXXXXXXXXXXXXXXXXXXX 
.................... VOID RELAY_1_ON() 
.................... {     
....................       RELAY_1=1; 
....................       XUAT_BUZZER_RELAY();          
.................... } 
.................... //HAM 603 
.................... //XXXXXXXXXXXXXXXXXXXXXXXXXXXXXXXXXXXXXXXXXXXXXXXXXXXX 
.................... VOID RELAY_1_OFF() 
.................... {     
....................       RELAY_1=0; 
....................       XUAT_BUZZER_RELAY();          
.................... } 
.................... //HAM 604 
.................... //XXXXXXXXXXXXXXXXXXXXXXXXXXXXXXXXXXXXXXXXXXXXXXXXXXXX 
.................... VOID RELAY_2_ON() 
.................... {     
....................       RELAY_2=1; 
....................       XUAT_BUZZER_RELAY();          
.................... } 
.................... //HAM 607 
.................... //XXXXXXXXXXXXXXXXXXXXXXXXXXXXXXXXXXXXXXXXXXXXXXXXXXXX 
.................... VOID RELAY_2_OFF() 
.................... {     
....................       RELAY_2=0; 
....................       XUAT_BUZZER_RELAY();          
.................... } 
.................... //HAM 608 
.................... //XXXXXXXXXXXXXXXXXXXXXXXXXXXXXXXXXXXXXXXXXXXXXXXXXXXX 
.................... VOID RELAY_1_RELAY_2_ON() 
.................... {     
....................       RELAY_1=1;  RELAY_2=1; 
....................       XUAT_BUZZER_RELAY();          
.................... } 
.................... //HAM 609 
.................... //XXXXXXXXXXXXXXXXXXXXXXXXXXXXXXXXXXXXXXXXXXXXXXXXXXXX 
.................... VOID RELAY_1_RELAY_2_OFF() 
.................... {     
....................       RELAY_1=0;  RELAY_2=0; 
....................       XUAT_BUZZER_RELAY();          
.................... } 
.................... //HAM 610 
.................... //XXXXXXXXXXXXXXXXXXXXXXXXXXXXXXXXXXXXXXXXXXXXXXXXXXXX 
.................... VOID TRIAC_1_ON() 
.................... {     
....................       TRIAC_1=1; 
....................       XUAT_BUZZER_RELAY();          
.................... } 
.................... //HAM 611 
.................... //XXXXXXXXXXXXXXXXXXXXXXXXXXXXXXXXXXXXXXXXXXXXXXXXXXXX 
.................... VOID TRIAC_1_OFF() 
.................... {     
....................       TRIAC_1=0; 
....................       XUAT_BUZZER_RELAY();          
.................... } 
.................... //HAM 612 
.................... //XXXXXXXXXXXXXXXXXXXXXXXXXXXXXXXXXXXXXXXXXXXXXXXXXXXX 
.................... VOID TRIAC_2_ON() 
.................... {     
....................       TRIAC_2=1; 
....................       XUAT_BUZZER_RELAY();          
.................... } 
.................... //HAM 613 
.................... //XXXXXXXXXXXXXXXXXXXXXXXXXXXXXXXXXXXXXXXXXXXXXXXXXXXX 
.................... VOID TRIAC_2_OFF() 
.................... {     
....................       TRIAC_2=0; 
....................       XUAT_BUZZER_RELAY();          
.................... } 
.................... //XXXXXXXXXXXXXXXXXXXXXXXXXXXXXXXXXXXXXXXXXXXX 
....................  
....................  
....................  
.................... UNSIGNED INT8 TTCT = 1,T0,T0_TAM; 
.................... UNSIGNED INT8 DONVI,CHUC,TRAM; 
.................... #INCLUDE <TV_PICKIT2_SHIFT_32LED_DON.C> 
.................... UNSIGNED INT32    Y=0,YP_CHAY=1,YT_CHAY=0X80000000,Y_CODINH=0; 
.................... UNSIGNED INT16 ZT,ZT_CHAY_T=0x8000,ZT_CHAY_P=1,ZT_CODINH=0; 
.................... UNSIGNED INT16 ZP,ZP_CHAY_T=0X8000,ZP_CHAY_P=1,ZP_CODINH=0; 
....................  
.................... UNSIGNED INT16 TGDLAY=0; 
.................... UNSIGNED INT8 DEM_LED=0;  
.................... SIGNED I32=32,J32=0,TTCT_TD=1,I16=16,J16=0; 
....................  
.................... UNSIGNED INT32    ZA=1,YA=1,XA=0XFFFFFFFE,ZB=0X80000000,YB=0X80000000,XB=0X7FFFFFFF;    
.................... SIGNED IA=1,JA=1;   
.................... VOID RESET_TOAN_BO_BIEN() 
.................... {  
....................       TTCT_TD++;     //CHUYEN CHUONG TRINH CHO TU DONG 
*
053A:  INCF   45,F
....................       Y=0;      YP_CHAY=1;      YT_CHAY=0X80000000;      Y_CODINH=0; 
053C:  CLRF   23
053E:  CLRF   22
0540:  CLRF   21
0542:  CLRF   20
0544:  CLRF   27
0546:  CLRF   26
0548:  CLRF   25
054A:  MOVLW  01
054C:  MOVWF  24
054E:  MOVLW  80
0550:  MOVWF  2B
0552:  CLRF   2A
0554:  CLRF   29
0556:  CLRF   28
0558:  CLRF   2F
055A:  CLRF   2E
055C:  CLRF   2D
055E:  CLRF   2C
....................       ZT_CHAY_T=0x8000;    ZT_CHAY_P=1;   ZT_CODINH=0; 
0560:  MOVWF  33
0562:  CLRF   32
0564:  CLRF   35
0566:  MOVLW  01
0568:  MOVWF  34
056A:  CLRF   37
056C:  CLRF   36
....................       ZP_CHAY_T=0X8000;    ZP_CHAY_P=1;   ZP_CODINH=0; 
056E:  MOVLW  80
0570:  MOVWF  3B
0572:  CLRF   3A
0574:  CLRF   3D
0576:  MOVLW  01
0578:  MOVWF  3C
057A:  CLRF   3F
057C:  CLRF   3E
....................       ZT=ZP=0; 
057E:  CLRF   39
0580:  CLRF   38
0582:  MOVFF  39,31
0586:  MOVFF  38,30
....................       I32=32;J32=0;I16=16,J16=0; 
058A:  MOVLW  20
058C:  MOVWF  43
058E:  CLRF   44
0590:  MOVLW  10
0592:  MOVWF  46
0594:  CLRF   47
....................       DEM_LED=0; 
0596:  CLRF   42
....................        
....................       ZA=1;    YA=1;    XA=0XFFFFFFFE;     IA=1;    JA=1; 
0598:  CLRF   4B
059A:  CLRF   4A
059C:  CLRF   49
059E:  MOVLW  01
05A0:  MOVWF  48
05A2:  CLRF   4F
05A4:  CLRF   4E
05A6:  CLRF   4D
05A8:  MOVWF  4C
05AA:  SETF   53
05AC:  SETF   52
05AE:  SETF   51
05B0:  MOVLW  FE
05B2:  MOVWF  50
05B4:  MOVLW  01
05B6:  MOVWF  x60
05B8:  MOVWF  x61
....................      ZB=0X80000000;    YB=0X80000000;    XB=0X7FFFFFFF; 
05BA:  MOVLW  80
05BC:  MOVWF  57
05BE:  CLRF   56
05C0:  CLRF   55
05C2:  CLRF   54
05C4:  MOVWF  5B
05C6:  CLRF   5A
05C8:  CLRF   59
05CA:  CLRF   58
05CC:  MOVLW  7F
05CE:  MOVWF  5F
05D0:  SETF   5E
05D2:  SETF   5D
05D4:  SETF   5C
05D6:  RETURN 0
.................... }  
....................  
.................... VOID TANG_DEM_LED_DELAY_1(UNSIGNED INT8 DL) 
.................... {  
....................       UNSIGNED INT8 I; 
....................       FOR (I=0; I<DL;I++) 
*
04A0:  CLRF   x67
04A2:  MOVF   x66,W
04A4:  SUBWF  x67,W
04A6:  BC    04AE
....................       HIEN_THI_8LED_7DOAN_QUET_ALL(); 
04A8:  BRA    0468
04AA:  INCF   x67,F
04AC:  BRA    04A2
....................       DEM_LED++; 
04AE:  INCF   42,F
04B0:  GOTO   04C6 (RETURN)
.................... }  
....................  
.................... VOID TANG_DEM_LED_DELAY_0(UNSIGNED INT8 DL) 
.................... {  
....................       IF (DL>0)      DELAY_MS(DL);  
*
03B8:  MOVF   x66,F
03BA:  BZ    03C2
03BC:  MOVFF  66,67
03C0:  RCALL  0392
....................       DEM_LED++; 
03C2:  INCF   42,F
03C4:  GOTO   04C6 (RETURN)
.................... }  
....................  
.................... VOID DELAY_CHON(UNSIGNED INT8 DL,CHONDELAY) 
.................... {     
....................    IF (!CHONDELAY)   TANG_DEM_LED_DELAY_0(DL); 
*
04B4:  MOVF   x65,F
04B6:  BNZ   04C0
04B8:  MOVFF  64,66
04BC:  BRA    03B8
04BE:  BRA    04C6
....................    ELSE              TANG_DEM_LED_DELAY_1(DL); 
04C0:  MOVFF  64,66
04C4:  BRA    04A0
04C6:  RETURN 0
.................... } 
.................... //XXXXXXXXXXXXXXXXXXXXXXXXXXXXXXXXXXXXXXXXXXXX 
.................... //32 LED: SANG DON  PHAI SANG TRAI 
.................... //XXXXXXXXXXXXXXXXXXXXXXXXXXXXXXXXXXXXXXXXXXXX 
.................... VOID DIEM_SANG_DICH_TRAI_MAT_DAN_32LED(UNSIGNED INT8 DL,CHONDELAY) 
.................... {        
....................    IF(IA<33) 
....................    { 
....................       IF(JA>0) 
....................       { 
....................          ZB = (ZB << 1); 
....................          Y = XB|ZB;         
....................          XUAT_32LED_DON_1DW(Y); 
....................          DELAY_CHON(DL,CHONDELAY); 
....................          JA--; 
....................       } 
....................       ELSE  
....................       { 
....................          IA++; 
....................          JA=IA;       
....................          YB = YB>>1; 
....................          XB = XB>>1; 
....................          ZB = YB; 
....................       } 
....................    } 
....................    ELSE RESET_TOAN_BO_BIEN(); 
.................... }   
.................... //XXXXXXXXXXXXXXXXXXXXXXXXXXXXXXXXXXXXXXXXXXXX 
.................... //32 LED: SANG DON  TRAI SANG PHAI 
.................... //XXXXXXXXXXXXXXXXXXXXXXXXXXXXXXXXXXXXXXXXXXXX 
.................... VOID DIEM_SANG_DICH_PHAI_MAT_DAN_32LED(UNSIGNED INT8 DL,CHONDELAY) 
.................... {        
....................    IF(IA<33) 
....................    { 
....................       IF(JA>0) 
....................       { 
....................          ZA = (ZA >> 1); 
....................          Y = XA|ZA;         
....................          XUAT_32LED_DON_1DW(Y); 
....................          DELAY_CHON(DL,CHONDELAY); 
....................          JA--; 
....................       } 
....................       ELSE  
....................       { 
....................          IA++; 
....................          JA=IA;       
....................          YA = YA<<1; 
....................          XA = XA <<1; 
....................          ZA = YA; 
....................       } 
....................    } 
....................    ELSE RESET_TOAN_BO_BIEN(); 
.................... }   
.................... //XXXXXXXXXXXXXXXXXXXXXXXXXXXXXXXXXXXXXXXXXXXX 
.................... //32 LED: CHOP TAT  
.................... //XXXXXXXXXXXXXXXXXXXXXXXXXXXXXXXXXXXXXXXXXXXX 
.................... VOID DAO_DL_32BIT_VA_XUAT() 
.................... { 
....................    Y=~Y; 
*
0376:  COMF   20,F
0378:  COMF   21,F
037A:  COMF   22,F
037C:  COMF   23,F
....................    XUAT_32LED_DON_1DW(Y);  
037E:  MOVFF  23,67
0382:  MOVFF  22,66
0386:  MOVFF  21,65
038A:  MOVFF  20,64
038E:  RCALL  0352
0390:  RETURN 0
.................... } 
.................... VOID SANG_TAT_32LED(UNSIGNED INT8 DL,CHONDELAY) 
.................... {         
....................       IF (TGDLAY==1)          XUAT_32LED_DON_1DW(Y);  
*
04C8:  DECFSZ 40,W
04CA:  BRA    04E4
04CC:  MOVF   41,F
04CE:  BNZ   04E4
04D0:  MOVFF  23,67
04D4:  MOVFF  22,66
04D8:  MOVFF  21,65
04DC:  MOVFF  20,64
04E0:  RCALL  0352
04E2:  BRA    0526
....................       ELSE IF (TGDLAY==50)    DAO_DL_32BIT_VA_XUAT(); 
04E4:  MOVF   40,W
04E6:  SUBLW  32
04E8:  BNZ   04F2
04EA:  MOVF   41,F
04EC:  BNZ   04F2
04EE:  RCALL  0376
04F0:  BRA    0526
....................       ELSE IF (TGDLAY==100)   DAO_DL_32BIT_VA_XUAT();           
04F2:  MOVF   40,W
04F4:  SUBLW  64
04F6:  BNZ   0500
04F8:  MOVF   41,F
04FA:  BNZ   0500
04FC:  RCALL  0376
04FE:  BRA    0526
....................       ELSE IF (TGDLAY==150)   DAO_DL_32BIT_VA_XUAT();                  
0500:  MOVF   40,W
0502:  SUBLW  96
0504:  BNZ   050E
0506:  MOVF   41,F
0508:  BNZ   050E
050A:  RCALL  0376
050C:  BRA    0526
....................       ELSE IF (TGDLAY==200)   
050E:  MOVF   40,W
0510:  SUBLW  C8
0512:  BNZ   0526
0514:  MOVF   41,F
0516:  BNZ   0526
....................       { 
....................          TTCT_TD++;   Y=0;        TGDLAY=0; 
0518:  INCF   45,F
051A:  CLRF   23
051C:  CLRF   22
051E:  CLRF   21
0520:  CLRF   20
0522:  CLRF   41
0524:  CLRF   40
....................       } 
....................       TGDLAY++; 
0526:  INCF   40,F
0528:  BTFSC  FD8.2
052A:  INCF   41,F
....................       DELAY_CHON(DL,CHONDELAY); 
052C:  MOVFF  62,64
0530:  MOVFF  63,65
0534:  RCALL  04B4
0536:  GOTO   0A48 (RETURN)
.................... } 
.................... //XXXXXXXXXXXXXXXXXXXXXXXXXXXXXXXXXXXXXXXXXXXX 
.................... //32 LED: SANG DAN ROI TAT DAN TU NGOAI VAO 
.................... //XXXXXXXXXXXXXXXXXXXXXXXXXXXXXXXXXXXXXXXXXXXX 
.................... VOID SANG_TAT_DAN_NGOAI_VAO_32LED(UNSIGNED INT8 DL,CHONDELAY) 
.................... {   
....................    IF (DEM_LED<16) 
*
06D2:  MOVF   42,W
06D4:  SUBLW  0F
06D6:  BNC   071C
....................    {   
....................       XUAT_32LED_DON_2WORD(ZP,ZT);         
06D8:  MOVFF  39,6D
06DC:  MOVFF  38,6C
06E0:  MOVFF  31,6F
06E4:  MOVFF  30,6E
06E8:  RCALL  032E
....................       ZP= (ZP<<1)+1;  
06EA:  BCF    FD8.0
06EC:  RLCF   38,W
06EE:  MOVWF  x64
06F0:  RLCF   39,W
06F2:  MOVWF  x65
06F4:  MOVLW  01
06F6:  ADDWF  x64,W
06F8:  MOVWF  38
06FA:  MOVLW  00
06FC:  ADDWFC x65,W
06FE:  MOVWF  39
....................       ZT= (ZT>>1)+0X8000; 
0700:  BCF    FD8.0
0702:  RRCF   31,W
0704:  MOVWF  x65
0706:  RRCF   30,W
0708:  MOVWF  30
070A:  MOVLW  80
070C:  ADDWF  x65,W
070E:  MOVWF  31
....................       DELAY_CHON(DL,CHONDELAY); 
0710:  MOVFF  62,64
0714:  MOVFF  63,65
0718:  RCALL  04B4
....................    } 
071A:  BRA    074E
....................    ELSE  IF (DEM_LED<32) 
071C:  MOVF   42,W
071E:  SUBLW  1F
0720:  BNC   074C
....................    {   
....................       XUAT_32LED_DON_2WORD(ZP,ZT); 
0722:  MOVFF  39,6D
0726:  MOVFF  38,6C
072A:  MOVFF  31,6F
072E:  MOVFF  30,6E
0732:  RCALL  032E
....................       ZP= (ZP<<1);  
0734:  BCF    FD8.0
0736:  RLCF   38,F
0738:  RLCF   39,F
....................       ZT= (ZT>>1); 
073A:  BCF    FD8.0
073C:  RRCF   31,F
073E:  RRCF   30,F
....................       DELAY_CHON(DL,CHONDELAY); 
0740:  MOVFF  62,64
0744:  MOVFF  63,65
0748:  RCALL  04B4
....................    } 
074A:  BRA    074E
....................    ELSE RESET_TOAN_BO_BIEN(); 
074C:  RCALL  053A
074E:  GOTO   0A72 (RETURN)
....................  
.................... }    
.................... //XXXXXXXXXXXXXXXXXXXXXXXXXXXXXXXXXXXXXXXXXXXX 
.................... //32 LED: SANG DAN ROI TAT DAN TU TRONG RA 
.................... //XXXXXXXXXXXXXXXXXXXXXXXXXXXXXXXXXXXXXXXXXXXX 
.................... VOID SANG_TAT_DAN_TRONG_RA_32LED(UNSIGNED INT8 DL,CHONDELAY) 
.................... {   
....................    IF (DEM_LED<16) 
0752:  MOVF   42,W
0754:  SUBLW  0F
0756:  BNC   079C
....................    {    
....................       XUAT_32LED_DON_2WORD(ZP,ZT);  
0758:  MOVFF  39,6D
075C:  MOVFF  38,6C
0760:  MOVFF  31,6F
0764:  MOVFF  30,6E
0768:  RCALL  032E
....................       ZP= (ZP>>1)+0X8000;  
076A:  BCF    FD8.0
076C:  RRCF   39,W
076E:  MOVWF  x65
0770:  RRCF   38,W
0772:  MOVWF  38
0774:  MOVLW  80
0776:  ADDWF  x65,W
0778:  MOVWF  39
....................       ZT= (ZT<<1)+1; 
077A:  BCF    FD8.0
077C:  RLCF   30,W
077E:  MOVWF  x64
0780:  RLCF   31,W
0782:  MOVWF  x65
0784:  MOVLW  01
0786:  ADDWF  x64,W
0788:  MOVWF  30
078A:  MOVLW  00
078C:  ADDWFC x65,W
078E:  MOVWF  31
....................       DELAY_CHON(DL,CHONDELAY); 
0790:  MOVFF  62,64
0794:  MOVFF  63,65
0798:  RCALL  04B4
....................    } 
079A:  BRA    07CE
....................    ELSE  IF (DEM_LED<32) 
079C:  MOVF   42,W
079E:  SUBLW  1F
07A0:  BNC   07CC
....................    {   
....................       XUAT_32LED_DON_2WORD(ZP,ZT); 
07A2:  MOVFF  39,6D
07A6:  MOVFF  38,6C
07AA:  MOVFF  31,6F
07AE:  MOVFF  30,6E
07B2:  RCALL  032E
....................       ZP= (ZP>>1);  
07B4:  BCF    FD8.0
07B6:  RRCF   39,F
07B8:  RRCF   38,F
....................       ZT= (ZT<<1); 
07BA:  BCF    FD8.0
07BC:  RLCF   30,F
07BE:  RLCF   31,F
....................       DELAY_CHON(DL,CHONDELAY); 
07C0:  MOVFF  62,64
07C4:  MOVFF  63,65
07C8:  RCALL  04B4
....................     } 
07CA:  BRA    07CE
....................    ELSE RESET_TOAN_BO_BIEN(); 
07CC:  RCALL  053A
07CE:  GOTO   0A80 (RETURN)
....................          
.................... }    
.................... //XXXXXXXXXXXXXXXXXXXXXXXXXXXXXXXXXXXXXXXXXXXX 
.................... //32 LED: 2NHOM 16 LED SANG DAN ROI TAT DAN TU PHAI SANG TRAI 
.................... //XXXXXXXXXXXXXXXXXXXXXXXXXXXXXXXXXXXXXXXXXXXX 
.................... VOID SANG_TAT_DAN_PHAI_SANG_TRAI_2X16LED(UNSIGNED INT8 DL,CHONDELAY) 
.................... {   
....................    IF (DEM_LED<16) 
....................    {    
....................       XUAT_32LED_DON_2WORD(ZP,ZP); 
....................       ZP= (ZP>>1)+0X8000; 
....................       DELAY_CHON(DL,CHONDELAY); 
....................    } 
....................    ELSE  IF (DEM_LED<32) 
....................    {   
....................       XUAT_32LED_DON_2WORD(ZP,ZP); 
....................       ZP= (ZP>>1); 
....................       DELAY_CHON(DL,CHONDELAY); 
....................     } 
....................    ELSE RESET_TOAN_BO_BIEN(); 
....................        
.................... }    
.................... //XXXXXXXXXXXXXXXXXXXXXXXXXXXXXXXXXXXXXXXXXXXX 
.................... //32 LED: 2NHOM 16 LED SANG DAN ROI TAT DAN TU TRAI SANG PHAI 
.................... //XXXXXXXXXXXXXXXXXXXXXXXXXXXXXXXXXXXXXXXXXXXX 
.................... VOID SANG_TAT_DAN_TRAI_SANG_PHAI_2X16LED(UNSIGNED INT8 DL,CHONDELAY) 
.................... {   
....................    IF (DEM_LED<16) 
....................    {    
....................       XUAT_32LED_DON_2WORD(ZT,ZT);   
....................       ZT= (ZT<<1)+1; 
....................       DELAY_CHON(DL,CHONDELAY); 
....................    } 
....................    ELSE  IF (DEM_LED<32) 
....................    {   
....................       XUAT_32LED_DON_2WORD(ZT,ZT); 
....................       ZT= (ZT<<1); 
....................       DELAY_CHON(DL,CHONDELAY); 
....................     } 
....................    ELSE RESET_TOAN_BO_BIEN(); 
....................          
.................... }    
.................... //XXXXXXXXXXXXXXXXXXXXXXXXXXXXXXXXXXXXXXXXXXXX 
.................... //32 LED: SANG DAN ROI TAT DAN TU PHAI SANG TRAI 
.................... //XXXXXXXXXXXXXXXXXXXXXXXXXXXXXXXXXXXXXXXXXXXX 
.................... VOID SANG_TAT_DAN_PST_32LED(UNSIGNED INT8 DL,CHONDELAY) 
.................... {         
....................    IF (DEM_LED<32) 
*
05D8:  MOVF   42,W
05DA:  SUBLW  1F
05DC:  BNC   0626
....................    {   
....................       XUAT_32LED_DON_1DW(Y); 
05DE:  MOVFF  23,67
05E2:  MOVFF  22,66
05E6:  MOVFF  21,65
05EA:  MOVFF  20,64
05EE:  RCALL  0352
....................       Y= (Y<<1)+1; 
05F0:  BCF    FD8.0
05F2:  RLCF   20,W
05F4:  MOVWF  x65
05F6:  RLCF   21,W
05F8:  MOVWF  x66
05FA:  RLCF   22,W
05FC:  MOVWF  x67
05FE:  RLCF   23,W
0600:  MOVWF  x68
0602:  MOVLW  01
0604:  ADDWF  x65,W
0606:  MOVWF  20
0608:  MOVLW  00
060A:  ADDWFC x66,W
060C:  MOVWF  21
060E:  MOVLW  00
0610:  ADDWFC x67,W
0612:  MOVWF  22
0614:  MOVLW  00
0616:  ADDWFC x68,W
0618:  MOVWF  23
....................       DELAY_CHON(DL,CHONDELAY); 
061A:  MOVFF  62,64
061E:  MOVFF  63,65
0622:  RCALL  04B4
....................    } 
0624:  BRA    0656
....................    ELSE  IF (DEM_LED<64) 
0626:  MOVF   42,W
0628:  SUBLW  3F
062A:  BNC   0654
....................    {   
....................       XUAT_32LED_DON_1DW(Y);    
062C:  MOVFF  23,67
0630:  MOVFF  22,66
0634:  MOVFF  21,65
0638:  MOVFF  20,64
063C:  RCALL  0352
....................       Y= (Y<<1);  
063E:  BCF    FD8.0
0640:  RLCF   20,F
0642:  RLCF   21,F
0644:  RLCF   22,F
0646:  RLCF   23,F
....................       DELAY_CHON(DL,CHONDELAY); 
0648:  MOVFF  62,64
064C:  MOVFF  63,65
0650:  RCALL  04B4
....................    }  
0652:  BRA    0656
....................    ELSE RESET_TOAN_BO_BIEN(); 
0654:  RCALL  053A
0656:  GOTO   0A56 (RETURN)
....................  
.................... }     
.................... //XXXXXXXXXXXXXXXXXXXXXXXXXXXXXXXXXXXXXXXXXXXX 
.................... //32 LED: SANG DAN ROI TAT DAN TU TRAI SANG PHAI 
.................... //XXXXXXXXXXXXXXXXXXXXXXXXXXXXXXXXXXXXXXXXXXXX 
.................... VOID SANG_TAT_DAN_TSP_32LED(UNSIGNED INT8 DL,CHONDELAY) 
.................... {            
....................       IF (DEM_LED<32) 
065A:  MOVF   42,W
065C:  SUBLW  1F
065E:  BNC   069E
....................       {   
....................          XUAT_32LED_DON_1DW(Y); 
0660:  MOVFF  23,67
0664:  MOVFF  22,66
0668:  MOVFF  21,65
066C:  MOVFF  20,64
0670:  RCALL  0352
....................          Y= (Y>>1)+0x80000000;  
0672:  BCF    FD8.0
0674:  RRCF   23,W
0676:  MOVWF  x68
0678:  RRCF   22,W
067A:  MOVWF  x67
067C:  RRCF   21,W
067E:  MOVWF  x66
0680:  RRCF   20,W
0682:  MOVWF  20
0684:  MOVFF  66,21
0688:  MOVFF  67,22
068C:  MOVLW  80
068E:  ADDWF  x68,W
0690:  MOVWF  23
....................          DELAY_CHON(DL,CHONDELAY);       
0692:  MOVFF  62,64
0696:  MOVFF  63,65
069A:  RCALL  04B4
....................       } 
069C:  BRA    06CE
....................       ELSE 
....................       IF (DEM_LED<64) 
069E:  MOVF   42,W
06A0:  SUBLW  3F
06A2:  BNC   06CC
....................       {   
....................          XUAT_32LED_DON_1DW(Y);  
06A4:  MOVFF  23,67
06A8:  MOVFF  22,66
06AC:  MOVFF  21,65
06B0:  MOVFF  20,64
06B4:  RCALL  0352
....................          Y= (Y>>1); 
06B6:  BCF    FD8.0
06B8:  RRCF   23,F
06BA:  RRCF   22,F
06BC:  RRCF   21,F
06BE:  RRCF   20,F
....................          DELAY_CHON(DL,CHONDELAY); 
06C0:  MOVFF  62,64
06C4:  MOVFF  63,65
06C8:  RCALL  04B4
....................       }  
06CA:  BRA    06CE
....................       ELSE RESET_TOAN_BO_BIEN(); 
06CC:  RCALL  053A
06CE:  GOTO   0A64 (RETURN)
....................      
.................... }          
.................... //XXXXXXXXXXXXXXXXXXXXXXXXXXXXXXXXXXXXXXXXXXXX 
.................... //32 LED: DIEM SANG DI CHUEYN TU PHAI SANG TRAI 
.................... //XXXXXXXXXXXXXXXXXXXXXXXXXXXXXXXXXXXXXXXXXXXX 
.................... VOID DIEM_SANG_DI_CHUYEN_PST_32LED(UNSIGNED INT8 DL,CHONDELAY) 
.................... {         
....................    IF (DEM_LED==0) 
....................    {   
....................       Y=1; 
....................       XUAT_32LED_DON_1DW(Y); 
....................       Y= (Y<<1); 
....................       DELAY_CHON(DL,CHONDELAY); 
....................    } 
....................    ELSE  IF (DEM_LED<33) 
....................    {   
....................       XUAT_32LED_DON_1DW(Y);    
....................       Y= (Y<<1);  
....................       DELAY_CHON(DL,CHONDELAY); 
....................    }  
....................    ELSE  RESET_TOAN_BO_BIEN(); 
.................... }     
....................  
.................... //XXXXXXXXXXXXXXXXXXXXXXXXXXXXXXXXXXXXXXXXXXXX 
.................... //32 LED: DIEM SANG DI CHUEYN TU TRAI SANG PHAI 
.................... //XXXXXXXXXXXXXXXXXXXXXXXXXXXXXXXXXXXXXXXXXXXX 
.................... VOID DIEM_SANG_DI_CHUYEN_TSP_32LED(UNSIGNED INT8 DL,CHONDELAY) 
.................... {         
....................    IF (DEM_LED==0) 
....................    {   
....................       Y=0X80000000; 
....................       XUAT_32LED_DON_1DW(Y); 
....................       Y= (Y>>1); 
....................       DELAY_CHON(DL,CHONDELAY); 
....................    } 
....................    ELSE  IF (DEM_LED<33) 
....................    {   
....................       XUAT_32LED_DON_1DW(Y);    
....................       Y= (Y>>1);  
....................       DELAY_CHON(DL,CHONDELAY); 
....................    }  
....................    ELSE RESET_TOAN_BO_BIEN(); 
....................  
.................... }  
.................... //XXXXXXXXXXXXXXXXXXXXXXXXXXXXXXXXXXXXXXXXXXXX 
.................... //32 LED: SANG DON  PHAI SANG TRAI 
.................... //XXXXXXXXXXXXXXXXXXXXXXXXXXXXXXXXXXXXXXXXXXXX 
.................... VOID SANG_DON_PST_32LED(UNSIGNED INT8 DL,CHONDELAY) 
.................... {        
....................    IF(I32>0) 
*
07D2:  BTFSC  43.7
07D4:  BRA    0850
07D6:  MOVF   43,W
07D8:  SUBLW  00
07DA:  BC    0850
....................    { 
....................       IF(J32<I32) 
07DC:  MOVF   44,W
07DE:  XORLW  80
07E0:  MOVWF  00
07E2:  MOVF   43,W
07E4:  XORLW  80
07E6:  SUBWF  00,W
07E8:  BC    082A
....................       { 
....................          Y = Y_CODINH|YP_CHAY; 
07EA:  MOVF   2C,W
07EC:  IORWF  24,W
07EE:  MOVWF  20
07F0:  MOVF   2D,W
07F2:  IORWF  25,W
07F4:  MOVWF  21
07F6:  MOVF   2E,W
07F8:  IORWF  26,W
07FA:  MOVWF  22
07FC:  MOVF   2F,W
07FE:  IORWF  27,W
0800:  MOVWF  23
....................          XUAT_32LED_DON_1DW(Y); 
0802:  MOVFF  23,67
0806:  MOVFF  22,66
080A:  MOVFF  21,65
080E:  MOVFF  20,64
0812:  RCALL  0352
....................          DELAY_CHON(DL,CHONDELAY);        
0814:  MOVFF  62,64
0818:  MOVFF  63,65
081C:  RCALL  04B4
....................          YP_CHAY = YP_CHAY <<1; 
081E:  BCF    FD8.0
0820:  RLCF   24,F
0822:  RLCF   25,F
0824:  RLCF   26,F
0826:  RLCF   27,F
....................          J32++; 
0828:  INCF   44,F
....................       } 
....................       IF (J32==I32)  
082A:  MOVF   43,W
082C:  SUBWF  44,W
082E:  BNZ   084E
....................       { 
....................          I32--; 
0830:  DECF   43,F
....................          J32=0;          
0832:  CLRF   44
....................          Y_CODINH=Y; 
0834:  MOVFF  23,2F
0838:  MOVFF  22,2E
083C:  MOVFF  21,2D
0840:  MOVFF  20,2C
....................          YP_CHAY = 1; 
0844:  CLRF   27
0846:  CLRF   26
0848:  CLRF   25
084A:  MOVLW  01
084C:  MOVWF  24
....................       } 
....................    } 
084E:  BRA    0852
....................    ELSE RESET_TOAN_BO_BIEN(); 
0850:  RCALL  053A
0852:  GOTO   0A8E (RETURN)
.................... }    
.................... //XXXXXXXXXXXXXXXXXXXXXXXXXXXXXXXXXXXXXXXXXXXX 
.................... //32 LED: SANG DON  PHAI SANG TRAI 
.................... //XXXXXXXXXXXXXXXXXXXXXXXXXXXXXXXXXXXXXXXXXXXX 
.................... VOID SANG_DON_TSP_32LED(UNSIGNED INT8 DL,CHONDELAY) 
.................... {        
....................    IF(I32>0) 
0856:  BTFSC  43.7
0858:  BRA    08D4
085A:  MOVF   43,W
085C:  SUBLW  00
085E:  BC    08D4
....................    { 
....................       IF(J32<I32) 
0860:  MOVF   44,W
0862:  XORLW  80
0864:  MOVWF  00
0866:  MOVF   43,W
0868:  XORLW  80
086A:  SUBWF  00,W
086C:  BC    08AE
....................       { 
....................          Y = Y_CODINH|YT_CHAY; 
086E:  MOVF   2C,W
0870:  IORWF  28,W
0872:  MOVWF  20
0874:  MOVF   2D,W
0876:  IORWF  29,W
0878:  MOVWF  21
087A:  MOVF   2E,W
087C:  IORWF  2A,W
087E:  MOVWF  22
0880:  MOVF   2F,W
0882:  IORWF  2B,W
0884:  MOVWF  23
....................          XUAT_32LED_DON_1DW(Y); 
0886:  MOVFF  23,67
088A:  MOVFF  22,66
088E:  MOVFF  21,65
0892:  MOVFF  20,64
0896:  RCALL  0352
....................          DELAY_CHON(DL,CHONDELAY); 
0898:  MOVFF  62,64
089C:  MOVFF  63,65
08A0:  RCALL  04B4
....................          YT_CHAY = YT_CHAY >>1; 
08A2:  BCF    FD8.0
08A4:  RRCF   2B,F
08A6:  RRCF   2A,F
08A8:  RRCF   29,F
08AA:  RRCF   28,F
....................          J32++; 
08AC:  INCF   44,F
....................       } 
....................       IF (J32==I32)  
08AE:  MOVF   43,W
08B0:  SUBWF  44,W
08B2:  BNZ   08D2
....................       { 
....................          I32--; 
08B4:  DECF   43,F
....................          J32=0;          
08B6:  CLRF   44
....................          Y_CODINH=Y; 
08B8:  MOVFF  23,2F
08BC:  MOVFF  22,2E
08C0:  MOVFF  21,2D
08C4:  MOVFF  20,2C
....................          YT_CHAY = 0X80000000; 
08C8:  MOVLW  80
08CA:  MOVWF  2B
08CC:  CLRF   2A
08CE:  CLRF   29
08D0:  CLRF   28
....................       } 
....................    } 
08D2:  BRA    08D6
....................    ELSE RESET_TOAN_BO_BIEN(); 
08D4:  RCALL  053A
08D6:  GOTO   0A9C (RETURN)
....................  
.................... }   
.................... //XXXXXXXXXXXXXXXXXXXXXXXXXXXXXXXXXXXXXXXXXXXX 
.................... //32 LED: SANG DON  TU NGOAI VAO 
.................... //XXXXXXXXXXXXXXXXXXXXXXXXXXXXXXXXXXXXXXXXXXXX 
.................... VOID SANG_DON_TNT_32LED(UNSIGNED INT8 DL,CHONDELAY) 
.................... {        
....................    IF(I16>0) 
....................    { 
....................       IF(J16<I16) 
....................       { 
....................          ZP = ZP_CODINH|ZP_CHAY_P; 
....................          ZT = ZT_CODINH|ZT_CHAY_T; 
....................          XUAT_32LED_DON_2WORD(ZT,ZP); 
....................          DELAY_CHON(DL,CHONDELAY); 
....................  
....................          ZP_CHAY_P = ZP_CHAY_P <<1;          
....................          ZT_CHAY_T = ZT_CHAY_T >>1; 
....................          J16++; 
....................       } 
....................       IF (J16==I16)  
....................       { 
....................          I16--; 
....................          J16=0;          
....................          ZT_CODINH=ZT;  ZP_CODINH=ZP;          
....................          ZP_CHAY_P = 1;   ZT_CHAY_T = 0X8000; 
....................       } 
....................    } 
....................    ELSE RESET_TOAN_BO_BIEN(); 
....................  
.................... }    
....................  
.................... //XXXXXXXXXXXXXXXXXXXXXXXXXXXXXXXXXXXXXXXXXXXX 
.................... //32 LED: SANG DON  TU NGOAI VAO 
.................... //XXXXXXXXXXXXXXXXXXXXXXXXXXXXXXXXXXXXXXXXXXXX 
.................... VOID SANG_DON_TTR_32LED(UNSIGNED INT8 DL,CHONDELAY) 
.................... {        
....................    IF(I16>0) 
....................    { 
....................       IF(J16<I16) 
....................       { 
....................          ZP = ZP_CODINH|ZP_CHAY_T; 
....................          ZT = ZT_CODINH|ZT_CHAY_P; 
....................          XUAT_32LED_DON_2WORD(ZT,ZP); 
....................          DELAY_CHON(DL,CHONDELAY); 
....................          ZP_CHAY_T = ZP_CHAY_T >>1;          
....................          ZT_CHAY_P = ZT_CHAY_P <<1; 
....................          J16++; 
....................       } 
....................       IF (J16==I16)  
....................       { 
....................          I16--; 
....................          J16=0;          
....................          ZT_CODINH=ZT;   
....................          ZP_CODINH=ZP; 
....................          ZP_CHAY_T = 0X8000;   ZT_CHAY_P = 1; 
....................       } 
....................    } 
....................    ELSE RESET_TOAN_BO_BIEN(); 
.................... }    
....................  
.................... //#INCLUDE <TV_PICKIT2_SHIFT_32LED_DON_TUDONG.C> 
.................... VOID GIAI_MA_HIEN_THI(T0) 
.................... { 
....................    DONVI = MA7DOAN[T0%10]; 
*
0118:  MOVFF  62,64
011C:  MOVLW  0A
011E:  MOVWF  x65
0120:  RCALL  005A
0122:  CLRF   03
0124:  MOVF   00,W
0126:  MOVFF  FF2,63
012A:  BCF    FF2.7
012C:  RCALL  0004
012E:  BTFSC  x63.7
0130:  BSF    FF2.7
0132:  MOVWF  1D
....................    CHUC  = MA7DOAN[T0/10%10]; 
0134:  MOVFF  62,64
0138:  MOVLW  0A
013A:  MOVWF  x65
013C:  RCALL  005A
013E:  MOVFF  01,64
0142:  MOVLW  0A
0144:  MOVWF  x65
0146:  RCALL  005A
0148:  CLRF   03
014A:  MOVF   00,W
014C:  MOVFF  FF2,63
0150:  BCF    FF2.7
0152:  RCALL  0004
0154:  BTFSC  x63.7
0156:  BSF    FF2.7
0158:  MOVWF  1E
....................    TRAM  = MA7DOAN[T0/100]; 
015A:  MOVFF  62,64
015E:  MOVLW  64
0160:  MOVWF  x65
0162:  RCALL  005A
0164:  CLRF   03
0166:  MOVF   01,W
0168:  MOVFF  FF2,63
016C:  BCF    FF2.7
016E:  RCALL  0004
0170:  BTFSC  x63.7
0172:  BSF    FF2.7
0174:  MOVWF  1F
....................    IF (TRAM==0XC0) 
0176:  MOVF   1F,W
0178:  SUBLW  C0
017A:  BNZ   0186
....................    { 
....................       TRAM = 0XFF; 
017C:  SETF   1F
....................       IF (CHUC==0XC0) CHUC=0XFF; 
017E:  MOVF   1E,W
0180:  SUBLW  C0
0182:  BNZ   0186
0184:  SETF   1E
....................    } 
....................    XUAT_4LED_7DOAN_3SO(TRAM,CHUC,DONVI); 
0186:  MOVFF  1F,63
018A:  MOVFF  1E,64
018E:  MOVFF  1D,65
0192:  BRA    0104
0194:  GOTO   0A18 (RETURN)
.................... } 
.................... VOID PHIM_UP() 
.................... { 
....................    IF (!INPUT(UP) && (TTCT<7)) 
*
08FE:  BSF    F93.5
0900:  BTFSC  F81.5
0902:  BRA    091E
0904:  MOVF   1A,W
0906:  SUBLW  06
0908:  BNC   091E
....................    { 
....................       DELAY_MS(10); 
090A:  MOVLW  0A
090C:  MOVWF  x67
090E:  RCALL  0392
....................       IF (!INPUT(UP)) 
0910:  BSF    F93.5
0912:  BTFSC  F81.5
0914:  BRA    091E
....................       { 
....................          TTCT++; 
0916:  INCF   1A,F
....................          WHILE(!INPUT(UP)); 
0918:  BSF    F93.5
091A:  BTFSS  F81.5
091C:  BRA    0918
....................           
....................       } 
....................    } 
091E:  GOTO   0AA0 (RETURN)
.................... } 
....................  
.................... VOID PHIM_DW() 
.................... { 
....................    IF (!INPUT(DW) && (TTCT>1)) 
*
08DA:  BSF    F93.4
08DC:  BTFSC  F81.4
08DE:  BRA    08FA
08E0:  MOVF   1A,W
08E2:  SUBLW  01
08E4:  BC    08FA
....................    { 
....................       DELAY_MS(10); 
08E6:  MOVLW  0A
08E8:  MOVWF  x67
08EA:  RCALL  0392
....................       IF (!INPUT(DW)) 
08EC:  BSF    F93.4
08EE:  BTFSC  F81.4
08F0:  BRA    08FA
....................       { 
....................          TTCT--; 
08F2:  DECF   1A,F
....................          WHILE(!INPUT(DW)); 
08F4:  BSF    F93.4
08F6:  BTFSS  F81.4
08F8:  BRA    08F4
....................           
....................       } 
....................    } 
08FA:  GOTO   0A9E (RETURN)
.................... } 
....................  
.................... VOID PHIM_CLR() 
.................... { 
....................    IF (!INPUT(CLR) && (TTCT>1))     TTCT=1; 
*
0922:  BSF    F93.3
0924:  BTFSC  F81.3
0926:  BRA    0932
0928:  MOVF   1A,W
092A:  SUBLW  01
092C:  BC    0932
092E:  MOVLW  01
0930:  MOVWF  1A
0932:  GOTO   0AA2 (RETURN)
.................... } 
....................  
.................... VOID MAIN() 
0936:  CLRF   FF8
0938:  BCF    FD0.7
093A:  CLRF   06
093C:  CLRF   0D
093E:  CLRF   0E
0940:  CLRF   0F
0942:  CLRF   10
0944:  CLRF   19
0946:  MOVLW  01
0948:  MOVWF  1A
094A:  CLRF   23
094C:  CLRF   22
094E:  CLRF   21
0950:  CLRF   20
0952:  CLRF   27
0954:  CLRF   26
0956:  CLRF   25
0958:  MOVWF  24
095A:  MOVLW  80
095C:  MOVWF  2B
095E:  CLRF   2A
0960:  CLRF   29
0962:  CLRF   28
0964:  CLRF   2F
0966:  CLRF   2E
0968:  CLRF   2D
096A:  CLRF   2C
096C:  MOVWF  33
096E:  CLRF   32
0970:  CLRF   35
0972:  MOVLW  01
0974:  MOVWF  34
0976:  CLRF   37
0978:  CLRF   36
097A:  MOVLW  80
097C:  MOVWF  3B
097E:  CLRF   3A
0980:  CLRF   3D
0982:  MOVLW  01
0984:  MOVWF  3C
0986:  CLRF   3F
0988:  CLRF   3E
098A:  CLRF   41
098C:  CLRF   40
098E:  CLRF   42
0990:  MOVLW  20
0992:  MOVWF  43
0994:  CLRF   44
0996:  MOVLW  01
0998:  MOVWF  45
099A:  MOVLW  10
099C:  MOVWF  46
099E:  CLRF   47
09A0:  CLRF   4B
09A2:  CLRF   4A
09A4:  CLRF   49
09A6:  MOVLW  01
09A8:  MOVWF  48
09AA:  CLRF   4F
09AC:  CLRF   4E
09AE:  CLRF   4D
09B0:  MOVWF  4C
09B2:  SETF   53
09B4:  SETF   52
09B6:  SETF   51
09B8:  MOVLW  FE
09BA:  MOVWF  50
09BC:  MOVLW  80
09BE:  MOVWF  57
09C0:  CLRF   56
09C2:  CLRF   55
09C4:  CLRF   54
09C6:  MOVWF  5B
09C8:  CLRF   5A
09CA:  CLRF   59
09CC:  CLRF   58
09CE:  MOVLW  7F
09D0:  MOVWF  5F
09D2:  SETF   5E
09D4:  SETF   5D
09D6:  SETF   5C
09D8:  MOVLW  01
09DA:  MOVWF  x60
09DC:  MOVWF  x61
09DE:  MOVF   FC1,W
09E0:  ANDLW  C0
09E2:  IORLW  0F
09E4:  MOVWF  FC1
09E6:  MOVLW  07
09E8:  MOVWF  FB4
09EA:  SETF   11
09EC:  SETF   12
09EE:  SETF   13
09F0:  SETF   14
09F2:  SETF   15
09F4:  SETF   16
09F6:  SETF   17
09F8:  SETF   18
.................... { 
....................    SET_UP_PORT_IC_CHOT(); 
09FA:  GOTO   003C
....................    SETUP_TIMER_0 (T0_EXT_L_TO_H|T0_DIV_1|T0_8_BIT); 
09FE:  MOVLW  E8
0A00:  MOVWF  FD5
....................    SET_TIMER0(0); 
0A02:  CLRF   FD7
0A04:  CLRF   FD6
....................    SET_TRIS_B(0X3C); 
0A06:  MOVLW  3C
0A08:  MOVWF  F93
....................    T0_TAM = T0 = 0; 
0A0A:  CLRF   1B
0A0C:  MOVFF  1B,1C
....................    GIAI_MA_HIEN_THI(T0); 
0A10:  MOVFF  1B,62
0A14:  GOTO   0118
....................    WHILE(TRUE) 
....................    { 
....................       T0 = GET_TIMER0(); 
0A18:  MOVF   FD6,W
0A1A:  MOVWF  1B
....................       IF (T0!=T0_TAM) 
0A1C:  MOVF   1C,W
0A1E:  SUBWF  1B,W
0A20:  BZ    0A3C
....................       { 
....................          T0_TAM = T0; 
0A22:  MOVFF  1B,1C
....................          XUAT_4LED_7DOAN_GIAIMA_XOA_SO0(T0); 
0A26:  CLRF   x63
0A28:  MOVFF  1B,62
0A2C:  GOTO   01DA
....................          IF (T0>=101)  SET_TIMER0(1); 
0A30:  MOVF   1B,W
0A32:  SUBLW  64
0A34:  BC    0A3C
0A36:  CLRF   FD7
0A38:  MOVLW  01
0A3A:  MOVWF  FD6
....................       } 
....................       IF (TTCT == 1) SANG_TAT_32LED(10,0); 
0A3C:  DECFSZ 1A,W
0A3E:  BRA    0A48
0A40:  MOVLW  0A
0A42:  MOVWF  x62
0A44:  CLRF   x63
0A46:  BRA    04C8
....................       IF (TTCT == 2) SANG_TAT_DAN_PST_32LED(10,0); 
0A48:  MOVF   1A,W
0A4A:  SUBLW  02
0A4C:  BNZ   0A56
0A4E:  MOVLW  0A
0A50:  MOVWF  x62
0A52:  CLRF   x63
0A54:  BRA    05D8
....................       IF (TTCT == 3) SANG_TAT_DAN_TSP_32LED(10,0); 
0A56:  MOVF   1A,W
0A58:  SUBLW  03
0A5A:  BNZ   0A64
0A5C:  MOVLW  0A
0A5E:  MOVWF  x62
0A60:  CLRF   x63
0A62:  BRA    065A
....................       IF (TTCT == 4) SANG_TAT_DAN_NGOAI_VAO_32LED(10,0); 
0A64:  MOVF   1A,W
0A66:  SUBLW  04
0A68:  BNZ   0A72
0A6A:  MOVLW  0A
0A6C:  MOVWF  x62
0A6E:  CLRF   x63
0A70:  BRA    06D2
....................       IF (TTCT == 5) SANG_TAT_DAN_TRONG_RA_32LED(10,0); 
0A72:  MOVF   1A,W
0A74:  SUBLW  05
0A76:  BNZ   0A80
0A78:  MOVLW  0A
0A7A:  MOVWF  x62
0A7C:  CLRF   x63
0A7E:  BRA    0752
....................       IF (TTCT == 6) SANG_DON_PST_32LED(10,0); 
0A80:  MOVF   1A,W
0A82:  SUBLW  06
0A84:  BNZ   0A8E
0A86:  MOVLW  0A
0A88:  MOVWF  x62
0A8A:  CLRF   x63
0A8C:  BRA    07D2
....................       IF (TTCT == 7) SANG_DON_TSP_32LED(10,0); 
0A8E:  MOVF   1A,W
0A90:  SUBLW  07
0A92:  BNZ   0A9C
0A94:  MOVLW  0A
0A96:  MOVWF  x62
0A98:  CLRF   x63
0A9A:  BRA    0856
....................       PHIM_DW(); 
0A9C:  BRA    08DA
....................       PHIM_UP(); 
0A9E:  BRA    08FE
....................       PHIM_CLR(); 
0AA0:  BRA    0922
0AA2:  BRA    0A18
....................     } 
....................     
.................... } 
0AA4:  SLEEP 

Configuration Fuses:
   Word  1: CC27   PLL12 CPUDIV1 USBDIV HS FCMEN IESO
   Word  2: 1E3E   PUT BROWNOUT BORV21 VREGEN NOWDT WDT32768
   Word  3: 8700   CCP2C1 PBADEN LPT1OSC MCLR
   Word  4: 00A1   STVREN NOLVP ICSP2 NOXINST NODEBUG
   Word  5: C00F   NOPROTECT NOCPB NOCPD
   Word  6: E00F   NOWRT NOWRTC NOWRTB NOWRTD
   Word  7: 400F   NOEBTR NOEBTRB
