CCS PCH C Compiler, Version 5.015, 5967               06-Jul-20 15:44

               Filename:   C:\Users\tsqua\OneDrive - student.mtsac.edu\Desktop\BAI_TAP_VXL_NEW_3\BTC4_BOXUNG_T2.lst

               ROM used:   3612 bytes (11%)
                           Largest free fragment is 29156
               RAM used:   1079 (53%) at main() level
                           1092 (53%) worst case
               Stack used: 8 locations
               Stack size: 31

*
0000:  GOTO   0C5E
....................  
.................... #INCLUDE <TV_PICKIT2_SHIFT_1.c> 
.................... #INCLUDE    <18F4550.H> 
.................... //////////// Standard Header file for the PIC18F4550 device //////////////// 
.................... /////////////////////////////////////////////////////////////////////////// 
.................... ////        (C) Copyright 1996, 2013 Custom Computer Services          //// 
.................... //// This source code may only be used by licensed users of the CCS C  //// 
.................... //// compiler.  This source code may only be distributed to other      //// 
.................... //// licensed users of the CCS C compiler.  No other use, reproduction //// 
.................... //// or distribution is permitted without written permission.          //// 
.................... //// Derivative programs created using this software in object code    //// 
.................... //// form are not restricted in any way.                               //// 
.................... /////////////////////////////////////////////////////////////////////////// 
.................... #device PIC18F4550 
0004:  CLRF   FF7
0006:  ADDLW  14
0008:  MOVWF  FF6
000A:  MOVLW  00
000C:  ADDWFC FF7,F
000E:  TBLRD*+
0010:  MOVF   FF5,W
0012:  RETURN 0
0014:  DATA C0,F9
0016:  DATA A4,B0
0018:  DATA 99,92
001A:  DATA 82,F8
001C:  DATA 80,90
001E:  DATA 88,83
0020:  DATA C6,A1
0022:  DATA 86,8E
0024:  CLRF   FF7
0026:  ADDLW  34
0028:  MOVWF  FF6
002A:  MOVLW  00
002C:  ADDWFC FF7,F
002E:  TBLRD*+
0030:  MOVF   FF5,W
0032:  RETURN 0
0034:  DATA 7F,BF
0036:  DATA DF,EF
0038:  DATA F7,FB
003A:  DATA FD,FE
003C:  CLRF   FF7
003E:  ADDLW  4C
0040:  MOVWF  FF6
0042:  MOVLW  00
0044:  ADDWFC FF7,F
0046:  TBLRD*+
0048:  MOVF   FF5,W
004A:  RETURN 0
004C:  DATA 00,01
004E:  DATA 02,05
0050:  DATA 03,04
0052:  DATA 01,02
0054:  DATA 20,03
0056:  DATA 07,03
0058:  DATA 06,06
005A:  DATA 02,05
005C:  DATA 03,03
005E:  DATA 06,06
0060:  DATA 02,03
0062:  DATA 03,04
0064:  DATA 07,03
0066:  DATA 07,20
0068:  DATA 20,07
006A:  DATA 07,06
006C:  DATA 06,03
006E:  DATA 03,04
0070:  DATA 00,06
0072:  DATA 06,05
0074:  DATA 03,04
0076:  DATA 01,01
0078:  DATA 07,20
007A:  DATA 20,07
007C:  DATA 00,06
007E:  DATA 02,05
0080:  DATA 03,04
0082:  DATA 00,06
0084:  DATA 02,03
0086:  DATA 03,04
0088:  DATA 20,20
008A:  DATA 20,20
008C:  DATA 20,20
008E:  DATA 00,06
0090:  DATA 02,05
0092:  DATA 20,20
0094:  CLRF   FF7
0096:  ADDLW  A4
0098:  MOVWF  FF6
009A:  MOVLW  00
009C:  ADDWFC FF7,F
009E:  TBLRD*+
00A0:  MOVF   FF5,W
00A2:  RETURN 0
00A4:  DATA 07,0F
00A6:  DATA 1F,1F
00A8:  DATA 1F,1F
00AA:  DATA 1F,1F
00AC:  DATA 1F,1F
00AE:  DATA 1F,00
00B0:  DATA 00,00
00B2:  DATA 00,00
00B4:  DATA 1C,1E
00B6:  DATA 1F,1F
00B8:  DATA 1F,1F
00BA:  DATA 1F,1F
00BC:  DATA 00,00
00BE:  DATA 00,00
00C0:  DATA 00,1F
00C2:  DATA 1F,1F
00C4:  DATA 1F,1F
00C6:  DATA 1F,1F
00C8:  DATA 1F,1F
00CA:  DATA 1E,1C
00CC:  DATA 1F,1F
00CE:  DATA 1F,1F
00D0:  DATA 1F,1F
00D2:  DATA 0F,07
00D4:  DATA 1F,1F
00D6:  DATA 1F,00
00D8:  DATA 00,00
00DA:  DATA 1F,1F
00DC:  DATA 1F,1F
00DE:  DATA 1F,1F
00E0:  DATA 1F,1F
00E2:  DATA 1F,1F
00E4:  CLRF   FF7
00E6:  ADDLW  F4
00E8:  MOVWF  FF6
00EA:  MOVLW  00
00EC:  ADDWFC FF7,F
00EE:  TBLRD*+
00F0:  MOVF   FF5,W
00F2:  RETURN 0
00F4:  DATA 80,C0
00F6:  DATA 94,D4
00F8:  DATA 20,53
00FA:  DATA 50,00
00FC:  DATA 20,53
00FE:  DATA 50,00
0100:  DATA 20,53
0102:  DATA 50,00
0104:  DATA 20,53
0106:  DATA 50,00
0108:  DATA 44,45
010A:  DATA 4D,20
010C:  DATA 53,41
010E:  DATA 4E,20
0110:  DATA 50,48
0112:  DATA 41,4D
0114:  DATA 3A,00
0116:  DATA 44,45
0118:  DATA 4D,20
011A:  DATA 53,41
011C:  DATA 4E,20
011E:  DATA 50,48
0120:  DATA 41,4D
0122:  DATA 3A,00
0124:  DATA 4D,6F
0126:  DATA 64,65
0128:  DATA 20,3D
012A:  DATA 20,00
012C:  DATA 44,61
012E:  DATA 6F,20
0130:  DATA 48,54
0132:  DATA 20,3D
0134:  DATA 20,00
*
02DA:  TBLRD*+
02DC:  MOVF   FF5,F
02DE:  BZ    02F8
02E0:  MOVFF  FF6,436
02E4:  MOVFF  FF7,437
02E8:  MOVFF  FF5,43A
02EC:  RCALL  02C4
02EE:  MOVFF  436,FF6
02F2:  MOVFF  437,FF7
02F6:  BRA    02DA
02F8:  RETURN 0
*
0394:  TBLRD*+
0396:  MOVF   FF5,F
0398:  BZ    03B2
039A:  MOVFF  FF6,436
039E:  MOVFF  FF7,437
03A2:  MOVFF  FF5,439
03A6:  RCALL  038A
03A8:  MOVFF  436,FF6
03AC:  MOVFF  437,FF7
03B0:  BRA    0394
03B2:  RETURN 0
03B4:  MOVLB  4
03B6:  MOVF   x36,W
03B8:  MULWF  x38
03BA:  MOVFF  FF3,01
03BE:  MOVFF  FF4,00
03C2:  MULWF  x39
03C4:  MOVF   FF3,W
03C6:  ADDWF  00,F
03C8:  MOVF   x37,W
03CA:  MULWF  x38
03CC:  MOVF   FF3,W
03CE:  ADDWFC 00,W
03D0:  MOVWF  02
03D2:  MOVLB  0
03D4:  RETURN 0
*
04BA:  CLRF   01
04BC:  CLRF   02
04BE:  CLRF   00
04C0:  CLRF   03
04C2:  MOVLB  4
04C4:  MOVF   x3B,W
04C6:  BNZ   04CC
04C8:  MOVF   x3A,W
04CA:  BZ    04FC
04CC:  MOVLW  10
04CE:  MOVWF  x3C
04D0:  BCF    FD8.0
04D2:  RLCF   x38,F
04D4:  RLCF   x39,F
04D6:  RLCF   00,F
04D8:  RLCF   03,F
04DA:  MOVF   x3B,W
04DC:  SUBWF  03,W
04DE:  BNZ   04E4
04E0:  MOVF   x3A,W
04E2:  SUBWF  00,W
04E4:  BNC   04F4
04E6:  MOVF   x3A,W
04E8:  SUBWF  00,F
04EA:  BTFSS  FD8.0
04EC:  DECF   03,F
04EE:  MOVF   x3B,W
04F0:  SUBWF  03,F
04F2:  BSF    FD8.0
04F4:  RLCF   01,F
04F6:  RLCF   02,F
04F8:  DECFSZ x3C,F
04FA:  BRA    04D0
04FC:  MOVLB  0
04FE:  RETURN 0
*
06A0:  CLRF   00
06A2:  CLRF   01
06A4:  MOVLB  4
06A6:  MOVF   x39,W
06A8:  BCF    FD8.0
06AA:  BTFSC  x3A.0
06AC:  ADDWF  00,F
06AE:  RRCF   00,F
06B0:  RRCF   01,F
06B2:  BTFSC  x3A.1
06B4:  ADDWF  00,F
06B6:  RRCF   00,F
06B8:  RRCF   01,F
06BA:  BTFSC  x3A.2
06BC:  ADDWF  00,F
06BE:  RRCF   00,F
06C0:  RRCF   01,F
06C2:  BTFSC  x3A.3
06C4:  ADDWF  00,F
06C6:  RRCF   00,F
06C8:  RRCF   01,F
06CA:  BTFSC  x3A.4
06CC:  ADDWF  00,F
06CE:  RRCF   00,F
06D0:  RRCF   01,F
06D2:  BTFSC  x3A.5
06D4:  ADDWF  00,F
06D6:  RRCF   00,F
06D8:  RRCF   01,F
06DA:  BTFSC  x3A.6
06DC:  ADDWF  00,F
06DE:  RRCF   00,F
06E0:  RRCF   01,F
06E2:  BTFSC  x3A.7
06E4:  ADDWF  00,F
06E6:  RRCF   00,F
06E8:  RRCF   01,F
06EA:  MOVLB  0
06EC:  GOTO   0728 (RETURN)
*
0A00:  MOVLB  4
0A02:  MOVF   x37,W
0A04:  ANDLW  07
0A06:  MOVWF  00
0A08:  RRCF   x37,W
0A0A:  MOVWF  01
0A0C:  RRCF   01,F
0A0E:  RRCF   01,F
0A10:  MOVLW  1F
0A12:  ANDWF  01,F
0A14:  MOVF   01,W
0A16:  ADDWF  x39,W
0A18:  MOVWF  FE9
0A1A:  MOVLW  00
0A1C:  ADDWFC x3A,W
0A1E:  MOVWF  FEA
0A20:  CLRF   01
0A22:  INCF   01,F
0A24:  INCF   00,F
0A26:  BRA    0A2A
0A28:  RLCF   01,F
0A2A:  DECFSZ 00,F
0A2C:  BRA    0A28
0A2E:  MOVF   x38,F
0A30:  BZ    0A38
0A32:  MOVF   01,W
0A34:  IORWF  FEF,F
0A36:  BRA    0A3E
0A38:  COMF   01,F
0A3A:  MOVF   01,W
0A3C:  ANDWF  FEF,F
0A3E:  MOVLB  0
0A40:  RETURN 0
0A42:  MOVLB  4
0A44:  MOVF   x37,W
0A46:  ANDLW  07
0A48:  MOVWF  00
0A4A:  RRCF   x37,W
0A4C:  MOVWF  01
0A4E:  RRCF   01,F
0A50:  RRCF   01,F
0A52:  MOVLW  1F
0A54:  ANDWF  01,F
0A56:  MOVF   01,W
0A58:  ADDWF  x38,W
0A5A:  MOVWF  FE9
0A5C:  MOVLW  00
0A5E:  ADDWFC x39,W
0A60:  MOVWF  FEA
0A62:  MOVFF  FEF,01
0A66:  INCF   00,F
0A68:  BRA    0A6C
0A6A:  RRCF   01,F
0A6C:  DECFSZ 00,F
0A6E:  BRA    0A6A
0A70:  MOVLB  0
0A72:  RETURN 0
....................  
.................... #list 
....................  
.................... #DEVICE     ADC=10 
.................... #FUSES      NOWDT,PUT,HS,NOPROTECT,NOLVP,CPUDIV1 
.................... #USE        I2C(MASTER,SLOW,SDA=PIN_B0,SCL=PIN_B1) 
.................... #USE        DELAY(CLOCK=20000000) 
*
021E:  MOVLW  04
0220:  MOVWF  FEA
0222:  MOVLW  37
0224:  MOVWF  FE9
0226:  MOVF   FEF,W
0228:  BZ    0244
022A:  MOVLW  06
022C:  MOVWF  01
022E:  CLRF   00
0230:  DECFSZ 00,F
0232:  BRA    0230
0234:  DECFSZ 01,F
0236:  BRA    022E
0238:  MOVLW  7B
023A:  MOVWF  00
023C:  DECFSZ 00,F
023E:  BRA    023C
0240:  DECFSZ FEF,F
0242:  BRA    022A
0244:  RETURN 0
.................... //#USE        rs232(baud=9600, xmit=PIN_C6,rcv=PIN_C7) 
.................... //NUT NHAN: 
.................... #DEFINE  BT0     PIN_B5 
.................... #DEFINE  BT1     PIN_B4 
.................... #DEFINE  BT2     PIN_B3 
.................... #DEFINE  BT3     PIN_B2 
....................  
.................... #DEFINE  ON      BT0       //DK LED DON, MOTOR 
.................... #DEFINE  OFF     BT1 
.................... #DEFINE  INV     BT2 
....................  
.................... #DEFINE  UP      BT0    //DK LED DON 
.................... #DEFINE  DW      BT1 
.................... #DEFINE  CLR     BT2 
.................... #DEFINE  MOD     BT3 
....................  
.................... #DEFINE  STOP    BT3 
....................  
.................... #DEFINE  ON1     BT0      
.................... #DEFINE  OFF1    BT1 
.................... #DEFINE  ON2     BT2        
.................... #DEFINE  OFF2    BT3 
....................  
....................  
.................... #DEFINE     TRIGGER      PIN_E2 
.................... #DEFINE     ECHO         PIN_E1 
.................... //   IC74138_A    PIN_B6   //OUTPUT GIAI MA 2 SANG 4 TICH CUC MUC 0 
.................... //   IC74138_B    PIN_B7   //OUTPUT GIAI MA 2 SANG 4 TICH CUC MUC 0 
....................  
.................... //          ENCODER  PIN_C0   //RC0/T13CKI 
....................  
.................... //          CB_KC    PIN_A2   //RA2/AN2 
.................... //          PIR      PIN_A3   //RA3/AN3 
.................... //          CBXUNG   PIN_A4   //RA4/T0CKI 
.................... //          LEDTHU   PIN_A4   //RA4/T0CKI//SW802 
....................  
.................... //          CB_KCSA_TRIGGER  PIN_E2   //RE2/SDO  DUNG CHUNG 
.................... //          CB_KCSA_RCHO     PIN_E1   //RE1 
....................  
.................... //          CB_TCS3200_OUT    PIN_E1   //RE1 //CAM BIEN MAU TCS3200 
.................... //          CB_TCS3200_S0     B12      //LAY TU MBI5026 
.................... //          CB_TCS3200_S1     B13      //LAY TU MBI5026 
.................... //          CB_TCS3200_S2     B14      //LAY TU MBI5026 
.................... //          CB_TCS3200_S3     B15      //LAY TU MBI5026 
....................  
.................... //          CB_POWER  SW803 
.................... //          CB_GAS      AIN3_PCF8591T   //RE1 
.................... //          CB_QUANG    AIN2_PCF8591T    
.................... //          CB_LM35B    AIN1_PCF8591T   //RA1/AN1 
.................... //          CB_LM35A    AIN0_PCF8591T   //RE1/AN0 
....................  
.................... //XXXXXXXXXXXXXXXXXXXXXXXXXXXXXXXXXXXXXXXXXXXXXXXXX 
.................... #DEFINE      ENABLE_573A      PIN_D1         //CS0 CUA A 
.................... #DEFINE      ENABLE_573B      PIN_D0         //CS1 CUA B 
.................... //XXXXXXXXXXXXXXXXXXXXXXXXXXXXXXXXXXXXXXXXXXXXXXXXX 
.................... #DEFINE      SSDO             PIN_E2         //CHUNG TAT CA 
.................... #DEFINE      SSCK             PIN_E0         //CHUNG TAT CA 
.................... //XXXXXXXXXXXXXXXXXXXXXXXXXXXXXXXXXXXXXXXXXXXXXXXXX 
.................... #DEFINE      RCK_4LED7DOAN    PIN_D7         //A - 4 BYTE 
.................... #DEFINE      G_4LED7DOAN      PIN_D6         //A - 4 BYTE 
.................... //XXXXXXXXXXXXXXXXXXXXXXXXXXXXXXXXXXXXXXXXXXXX     
.................... #DEFINE      RCK_MATRANLED    PIN_D7         //B - 3 BYTE DAO 
.................... #DEFINE      G_MATRANLED      PIN_D6         //B - 3 BYTE DAO 
.................... //XXXXXXXXXXXXXXXXXXXXXXXXXXXXXXXXXXXXXXXXXXXXXXXXX 
.................... #DEFINE      RCK_32LED        PIN_D5         //A - 4 BYTE 
.................... #DEFINE      G_32LED          PIN_D4         //A - 4 BYTE 
.................... //XXXXXXXXXXXXXXXXXXXXXXXXXXXXXXXXXXXXXXXXXXXX  
.................... #DEFINE      RCK_8LEDQUET     PIN_D5         //B - 2 BYTE DAO 
.................... #DEFINE      G_8LEDQUET       PIN_D4         //B - 2 BYTE DAO 
.................... //XXXXXXXXXXXXXXXXXXXXXXXXXXXXXXXXXXXXXXXXXXXXXXXXX 
.................... #DEFINE      RCK_LCD20X4      PIN_D3         //A - 2 BYTE DAO 
.................... #DEFINE      G_LCD20X4         PIN_D2         //A - 2 BYTE DAO 
.................... //XXXXXXXXXXXXXXXXXXXXXXXXXXXXXXXXXXXXXXXXXXXX  
.................... #DEFINE      RCK_BUZERELAY    PIN_D3     //B - 1 BYTE  
.................... #DEFINE      G_BUZERELAY      PIN_D2         //B - 1 BYTE  
....................  
.................... VOID XUAT_LCD20X4(UNSIGNED INT8 LCD_SIGNAL,LCD_INS_HTHI); 
....................  
.................... VOID XUAT_BUZZER_RELAY(); 
.................... //XXXXXXXXXXXXXXXXXXXXXXXXXXXXXXXXXXXXXXXXXXXX    
.................... #DEFINE     CHOT_2_IC_74573_A_B  OUTPUT_D(0XFC) 
....................  
.................... UNSIGNED INT8 TIN_HIEU_DK_74573_A; 
.................... #BIT G_4A         = TIN_HIEU_DK_74573_A.6 
.................... #BIT G_32A        = TIN_HIEU_DK_74573_A.4 
.................... #BIT G_LCDA       = TIN_HIEU_DK_74573_A.2 
.................... //XXXXXXXXXXXXXXXXXXXXXXXXXXXXXXXXXXXXXXXXXXXX          
.................... #DEFINE     MO_32_LED_DON        G_32A=0; //OUTPUT_LOW(G_32LED)  
.................... #DEFINE     TAT_32_LED_DON       G_32A=1; //OUTPUT_HIGH(G_32LED)  
.................... //XXXXXXXXXXXXXXXXXXXXXXXXXXXXXXXXXXXXXXXXXXXX          
.................... #DEFINE     MO_4_LED_7DOAN       G_4A=0;  //OUTPUT_LOW(G_4LED7DOAN) 
.................... #DEFINE     TAT_4_LED_7DOAN      G_4A=1;  //OUTPUT_HIGH(G_4LED7DOAN) 
.................... //XXXXXXXXXXXXXXXXXXXXXXXXXXXXXXXXXXXXXXXXXXXX  
.................... #DEFINE     MO_GLCD_LCD           G_LCDA=0;   //OUTPUT_LOW(G_LCD20X4) 
.................... #DEFINE     TAT_GLCD_LCD          G_LCDA=1;   // OUTPUT_LOW(G_LCD20X4) 
....................  
.................... UNSIGNED INT8 TIN_HIEU_DK_74573_B;   
.................... #BIT G_MTB        = TIN_HIEU_DK_74573_B.6 
.................... #BIT G_8B         = TIN_HIEU_DK_74573_B.4 
.................... #BIT G_RBDCB      = TIN_HIEU_DK_74573_B.2 
.................... //XXXXXXXXXXXXXXXXXXXXXXXXXXXXXXXXXXXXXXXXXXXX  
.................... #DEFINE     MO_LED_MATRAN        G_MTB=0; //OUTPUT_LOW(G_MATRANLED) 
.................... #DEFINE     TAT_LED_MATRAN       G_MTB=1; //OUTPUT_LOW(G_MATRANLED) 
.................... //XXXXXXXXXXXXXXXXXXXXXXXXXXXXXXXXXXXXXXXXXXXX        
.................... #DEFINE     MO_8_LED_QUET        G_8B=0;  //OUTPUT_LOW(G_8LEDQUET) 
.................... #DEFINE     TAT_8_LED_QUET       G_8B=1;  //OUTPUT_LOW(G_8LEDQUET) 
.................... //XXXXXXXXXXXXXXXXXXXXXXXXXXXXXXXXXXXXXXXXXXXX          
.................... #DEFINE     MO_RELAY_BUZZER_DC   G_RBDCB=0;  //OUTPUT_LOW(G_BUZERELAY) 
.................... #DEFINE     TAT_RELAY_BUZZER_DC  G_RBDCB=1;  //OUTPUT_LOW(G_BUZERELAY) 
....................  
.................... //XXXXXXXXXXXXXXXXXXXXXXXXXXXXXXXXXXXXXXXXXXXX 
.................... //CHUONG TRINH KIEM TRA PHIM BT1 
.................... //XXXXXXXXXXXXXXXXXXXXXXXXXXXXXXXXXXXXXXXXXXXX 
.................... UNSIGNED INT8 DL_BTN=0; 
.................... INT1 PHIM_BT0(UNSIGNED INT16 DL) 
.................... {   
....................     IF (!INPUT(BT0)) 
....................     {   
....................       DL_BTN++; 
....................        
....................       IF (DL_BTN>= DL) 
....................          { 
....................             DL_BTN =0; 
....................             RETURN(1); 
....................          } 
....................       ELSE RETURN(0); 
....................     } 
....................     ELSE    RETURN(0); 
.................... }  
.................... //XXXXXXXXXXXXXXXXXXXXXXXXXXXXXXXXXXXXXXXXXXXX 
.................... //CHUONG TRINH KIEM TRA PHIM BT1 
.................... //XXXXXXXXXXXXXXXXXXXXXXXXXXXXXXXXXXXXXXXXXXXX 
.................... INT1 PHIM_BT1(UNSIGNED INT16 DL ) 
.................... {   
....................     IF (!INPUT(BT1)) 
....................     {   
....................       DL_BTN++; 
....................        
....................       IF (DL_BTN>= DL) 
....................          { 
....................             DL_BTN =0; 
....................             RETURN(1); 
....................          } 
....................       ELSE RETURN(0); 
....................     } 
....................     ELSE    RETURN(0); 
.................... }  
.................... //XXXXXXXXXXXXXXXXXXXXXXXXXXXXXXXXXXXXXXXXXXXX 
.................... //CHUONG TRINH KIEM TRA PHIM BT2       
.................... //XXXXXXXXXXXXXXXXXXXXXXXXXXXXXXXXXXXXXXXXXXXX                                     
.................... INT1 PHIM_BT2(UNSIGNED INT16 DL ) 
.................... {                                         
....................     IF (!INPUT(BT2)) 
....................     {   
....................       DL_BTN++; 
....................        
....................       IF (DL_BTN>= DL) 
....................          { 
....................             DL_BTN =0; 
....................             RETURN(1); 
....................          } 
....................       ELSE RETURN(0); 
....................     } 
....................     ELSE    RETURN(0); 
....................                                           
.................... }       
....................  
.................... //XXXXXXXXXXXXXXXXXXXXXXXXXXXXXXXXXXXXXXXXXXXX 
.................... //CHUONG TRINH KIEM TRA PHIM BT3 
.................... //XXXXXXXXXXXXXXXXXXXXXXXXXXXXXXXXXXXXXXXXXXXX 
.................... INT1 PHIM_BT3(UNSIGNED INT16 DL,  UNSIGNED INT8 SOLAN  ) 
.................... {   
....................     IF (!INPUT(BT3)) 
....................     {   
....................       DL_BTN++; 
....................       IF(DL_BTN==1) RETURN(1); 
....................       ELSE 
....................       { 
....................          IF (DL_BTN>= DL) 
....................          DL_BTN =SOLAN; 
....................       } 
....................     } 
....................     ELSE    
....................     { 
....................       //DL_BTN =0; 
....................       RETURN(0); 
....................     } 
.................... }  
.................... //XXXXXXXXXXXXXXXXXXXXXXXXXXXXXXXXXXXXXXXXXXXX 
.................... //KHAI BAO DU LIEU 16 BIT CHO MODULE RELAY, TRIAC, BUZZER, DONG CO 
.................... //XXXXXXXXXXXXXXXXXXXXXXXXXXXXXXXXXXXXXXXXXXXX 
.................... UNSIGNED INT16 RBDC; 
.................... #BIT STEP_MOTOR_ENABLE  = RBDC.0    //1=ENA,0=DIS 
.................... #BIT STEP_MOTOR_IN1     = RBDC.1     
.................... #BIT STEP_MOTOR_IN2     = RBDC.2 
.................... #BIT STEP_MOTOR_IN3     = RBDC.3 
.................... #BIT STEP_MOTOR_IN4     = RBDC.4 
.................... #BIT DC_ENABLE          = RBDC.5    //1=ENA,0=DIS 
.................... #BIT PWRKEY             = RBDC.6    //KHOI TAO SIM900 
....................  
.................... #BIT BUZZER             = RBDC.8    //1=ON,0=OFF 
.................... #BIT TRIAC_1            = RBDC.9    //1=ON,0=OFF 
.................... #BIT TRIAC_2            = RBDC.10   //1=ON,0=OFF 
.................... #BIT RELAY_1            = RBDC.11   //0=ON,1=OFF 
.................... #BIT RELAY_2            = RBDC.12   //0=ON,1=OFF 
....................  
.................... //HAM 103 
.................... //XXXXXXXXXXXXXXXXXXXXXXXXXXXXXXXXXXXXXXXXXXXX 
.................... //CHUONG TRINH CON KHOI TAO IC CHOT 
.................... //XXXXXXXXXXXXXXXXXXXXXXXXXXXXXXXXXXXXXXXXXXXX          
.................... #DEFINE     CHO_IC_74573_A_GOI_DU_LIEU     OUTPUT_HIGH(ENABLE_573A) 
.................... #DEFINE     CHOT_IC_74573_A_GOI_DU_LIEU    OUTPUT_LOW(ENABLE_573A) 
....................  
.................... #DEFINE     CHO_IC_74573_B_GOI_DU_LIEU     OUTPUT_HIGH(ENABLE_573B) 
.................... #DEFINE     CHOT_IC_74573_B_GOI_DU_LIEU    OUTPUT_LOW(ENABLE_573B) 
.................... VOID MO_IC_74573_A_THONG_DL(); 
....................  
.................... //XXXXXXXXXXXXXXXXXXXXXXXXXXXXXXXXXXXXXXXXXXXX    
.................... CONST UNSIGNED CHAR MA7DOAN[16]= {0XC0,0XF9,0xA4,0XB0,0X99,0X92,0X82,0XF8, 
.................... 0X80,0X90,0x88, 0x83, 0xC6, 0xA1, 0x86, 0x8E}; 
.................... #DEFINE     MASO0    0XC0 
.................... #DEFINE     MASO1    0XF9 
.................... #DEFINE     MASO2    0XA4 
.................... #DEFINE     MASO3    0XB0 
.................... #DEFINE     MASO4    0X99 
.................... #DEFINE     MASO5    0X92 
.................... #DEFINE     MASO6    0X82 
.................... #DEFINE     MASO7    0XF8 
....................  
.................... //XXXXXXXXXXXXXXXXXXXXXXXXXXXXXXXXXXXXXXXXXXXX  
.................... //HAM 102 
.................... //XXXXXXXXXXXXXXXXXXXXXXXXXXXXXXXXXXXXXXXXXXXX     
.................... //XUAT 1 BYTE RA THANH GHI DICH 
.................... //XXXXXXXXXXXXXXXXXXXXXXXXXXXXXXXXXXXXXXXXXXXX     
.................... VOID XUAT_1BYTE(UNSIGNED INT8 BYTEXUAT) 
.................... { 
....................    UNSIGNED INT8   SB,X;    
....................    #BIT BSERI  = X.7 
....................    X = BYTEXUAT; 
*
0154:  MOVFF  441,443
....................    FOR (SB=0;SB<8;SB++) 
0158:  MOVLB  4
015A:  CLRF   x42
015C:  MOVF   x42,W
015E:  SUBLW  07
0160:  BNC   017E
....................       {                                                  
....................          OUTPUT_BIT(SSDO,BSERI);     
0162:  BTFSC  x43.7
0164:  BRA    016A
0166:  BCF    F8D.2
0168:  BRA    016C
016A:  BSF    F8D.2
016C:  BCF    F96.2
....................          OUTPUT_LOW(SSCK); OUTPUT_HIGH(SSCK); 
016E:  BCF    F96.0
0170:  BCF    F8D.0
0172:  BCF    F96.0
0174:  BSF    F8D.0
....................          X= X<<1;          
0176:  BCF    FD8.0
0178:  RLCF   x43,F
017A:  INCF   x42,F
017C:  BRA    015C
....................      } 
017E:  MOVLB  0
0180:  RETURN 0
.................... } 
.................... //XXXXXXXXXXXXXXXXXXXXXXXXXXXXXXXXXXXXXXXXXXXX  
.................... //HAM 301 
.................... //XXXXXXXXXXXXXXXXXXXXXXXXXXXXXXXXXXXXXXXXXXXX 
.................... //CHUONG TRINH CON XUAT 4 BYTE RA 32 LED DON 
.................... //XXXXXXXXXXXXXXXXXXXXXXXXXXXXXXXXXXXXXXXXXXXX 
.................... VOID XUAT_32LED_DON_4BYTE(UNSIGNED INT8 BLD3,BLD2,BLD1,BLD0) 
.................... {      
....................       XUAT_1BYTE(BLD3);           
....................       XUAT_1BYTE(BLD2); 
....................       XUAT_1BYTE(BLD1);           
....................       XUAT_1BYTE(BLD0);             
....................       MO_32_LED_DON;       
....................       MO_IC_74573_A_THONG_DL();             
....................       OUTPUT_HIGH(RCK_32LED);    OUTPUT_LOW(RCK_32LED); 
....................       CHOT_IC_74573_A_GOI_DU_LIEU;       
.................... } 
.................... //HAM 302 
.................... //XXXXXXXXXXXXXXXXXXXXXXXXXXXXXXXXXXXXXXXXXXXX 
.................... //CHUONG TRINH CON XUAT 2 WORD 16 BITRA 32 LED DON 
.................... //XXXXXXXXXXXXXXXXXXXXXXXXXXXXXXXXXXXXXXXXXXXX 
.................... VOID XUAT_32LED_DON_2WORD(UNSIGNED INT16 WLD1, UNSIGNED INT16 WLD0) 
.................... {      
....................      UNSIGNED INT8  B3,B2,B1,B0; 
....................      B3 = WLD1>>8;  B2 = WLD1;  
....................      B1 = WLD0>>8;  B0 = WLD0; 
....................      XUAT_32LED_DON_4BYTE(B3,B2,B1,B0); 
.................... } 
.................... //HAM 303 
.................... //XXXXXXXXXXXXXXXXXXXXXXXXXXXXXXXXXXXXXXXXXXXX 
.................... //CHUONG TRINH CON XUAT 1 DOUBLE WORD RA 32 LED DON 
.................... //XXXXXXXXXXXXXXXXXXXXXXXXXXXXXXXXXXXXXXXXXXXX 
.................... VOID XUAT_32LED_DON_1DW(UNSIGNED LONG LONG DWLD) 
.................... {      
....................      UNSIGNED INT16  WD1,WD0; 
....................      WD1 = DWLD>>16;  WD0 = DWLD; 
....................      XUAT_32LED_DON_2WORD(WD1,WD0); 
.................... } 
....................  
.................... //HAM 304 
.................... //XXXXXXXXXXXXXXXXXXXXXXXXXXXXXXXXXXXXXXXXXXXX 
.................... //CHUONG TRINH CON MO 32 LED DON SANG 
.................... //XXXXXXXXXXXXXXXXXXXXXXXXXXXXXXXXXXXXXXXXXXXX 
.................... VOID MO_32LED_DON() 
.................... {         
....................      XUAT_32LED_DON_1DW(0XFFFFFFFF); 
.................... } 
.................... //HAM 305 
.................... //XXXXXXXXXXXXXXXXXXXXXXXXXXXXXXXXXXXXXXXXXXXX 
.................... //CHUONG TRINH CON TAT 32 LED DON  
.................... //XXXXXXXXXXXXXXXXXXXXXXXXXXXXXXXXXXXXXXXXXXXX 
.................... VOID TAT_32LED_DON() 
.................... {         
....................      XUAT_32LED_DON_1DW(0); 
.................... } 
.................... //XXXXXXXXXXXXXXXXXXXXXXXXXXXXXXXXXXXXXXXXXXXX     
.................... //XUAT 1 BIT ROI TRA LAI KET QUA SAU KHI DICH DI 1 BIT 
.................... //XXXXXXXXXXXXXXXXXXXXXXXXXXXXXXXXXXXXXXXXXXXX     
.................... UNSIGNED  INT8 XUAT_1BIT(UNSIGNED INT8 BYTEXUAT) 
.................... { 
....................       UNSIGNED INT8   XBITX;    
....................       #BIT BSERIX  = XBITX.0 
....................       XBITX = BYTEXUAT; 
....................                                              
....................       OUTPUT_BIT(SSDO,BSERIX);     
....................       OUTPUT_LOW(SSCK); OUTPUT_HIGH(SSCK); 
....................       XBITX= XBITX>>1;    
....................       RETURN(XBITX);   
.................... } 
.................... //XXXXXXXXXXXXXXXXXXXXXXXXXXXXXXXXXXXXXXXXXXXX  
.................... //HAM 101 
.................... //XXXXXXXXXXXXXXXXXXXXXXXXXXXXXXXXXXXXXXXXXXXX     
.................... //HAM KHOI TAO CAC PORT VA IC CHOT 
.................... //XXXXXXXXXXXXXXXXXXXXXXXXXXXXXXXXXXXXXXXXXXXX     
.................... VOID SET_UP_PORT_IC_CHOT() 
.................... {      
....................       SET_TRIS_D(0x00);     
*
0136:  MOVLW  00
0138:  MOVWF  F95
....................       SET_TRIS_E(0X00); 
013A:  MOVWF  F96
....................       OUTPUT_D(0XFF); 
013C:  CLRF   F95
013E:  SETF   F8C
....................       TIN_HIEU_DK_74573_A=0XFF;   
0140:  SETF   04
....................       TIN_HIEU_DK_74573_B=0XFF;       
0142:  SETF   05
....................       CHOT_IC_74573_A_GOI_DU_LIEU; 
0144:  BCF    F95.1
0146:  BCF    F8C.1
....................       CHOT_IC_74573_B_GOI_DU_LIEU;   
0148:  BCF    F95.0
014A:  BCF    F8C.0
....................       RBDC=0; 
014C:  CLRF   08
014E:  CLRF   07
0150:  GOTO   0C9A (RETURN)
.................... } 
.................... //HAM 104 
.................... //XXXXXXXXXXXXXXXXXXXXXXXXXXXXXXXXXXXXXXXXXXXX     
.................... //XUAT CÁC THIEU DIEU KHIEN  
.................... //GIU NGUYEN CAC TRANG THAI CUA 2 MODULE KHAC 
.................... //XXXXXXXXXXXXXXXXXXXXXXXXXXXXXXXXXXXXXXXXXXXX     
.................... VOID MO_IC_74573_A_THONG_DL() 
.................... {      
....................       OUTPUT_D(0X00); 
*
0182:  CLRF   F95
0184:  CLRF   F8C
....................       OUTPUT_BIT(G_32LED,G_32A); 
0186:  BTFSC  04.4
0188:  BRA    018E
018A:  BCF    F8C.4
018C:  BRA    0190
018E:  BSF    F8C.4
0190:  BCF    F95.4
....................       OUTPUT_BIT(G_4LED7DOAN,G_4A); 
0192:  BTFSC  04.6
0194:  BRA    019A
0196:  BCF    F8C.6
0198:  BRA    019C
019A:  BSF    F8C.6
019C:  BCF    F95.6
....................       OUTPUT_BIT(G_LCD20X4,G_LCDA);   
019E:  BTFSC  04.2
01A0:  BRA    01A6
01A2:  BCF    F8C.2
01A4:  BRA    01A8
01A6:  BSF    F8C.2
01A8:  BCF    F95.2
....................       CHO_IC_74573_A_GOI_DU_LIEU; 
01AA:  BCF    F95.1
01AC:  BSF    F8C.1
01AE:  RETURN 0
.................... } 
.................... VOID MO_IC_74573_B_THONG_DL() 
.................... {      
....................       OUTPUT_D(0X00); 
*
0A74:  CLRF   F95
0A76:  CLRF   F8C
....................       OUTPUT_BIT(G_MATRANLED,G_MTB); 
0A78:  BTFSC  05.6
0A7A:  BRA    0A80
0A7C:  BCF    F8C.6
0A7E:  BRA    0A82
0A80:  BSF    F8C.6
0A82:  BCF    F95.6
....................       OUTPUT_BIT(G_8LEDQUET,G_8B); 
0A84:  BTFSC  05.4
0A86:  BRA    0A8C
0A88:  BCF    F8C.4
0A8A:  BRA    0A8E
0A8C:  BSF    F8C.4
0A8E:  BCF    F95.4
....................       OUTPUT_BIT(G_BUZERELAY,G_RBDCB);  
0A90:  BTFSC  05.2
0A92:  BRA    0A98
0A94:  BCF    F8C.2
0A96:  BRA    0A9A
0A98:  BSF    F8C.2
0A9A:  BCF    F95.2
....................       CHO_IC_74573_B_GOI_DU_LIEU; 
0A9C:  BCF    F95.0
0A9E:  BSF    F8C.0
0AA0:  RETURN 0
.................... } 
.................... //ham 401 
.................... //XXXXXXXXXXXXXXXXXXXXXXXXXXXXXXXXXXXXXXXXXXXX 
.................... //CHUONG TRINH CON XUAT 4 BYTE RA 4 LED 7 DOAN 
.................... //XXXXXXXXXXXXXXXXXXXXXXXXXXXXXXXXXXXXXXXXXXXX 
.................... VOID XUAT_4LED_7DOAN_4SO(UNSIGNED INT BL743,BL742,BL741,BL740) 
.................... {      
....................       XUAT_1BYTE(BL740);   XUAT_1BYTE(BL741); 
*
05B2:  MOVFF  43A,441
05B6:  RCALL  0154
05B8:  MOVFF  439,441
05BC:  RCALL  0154
....................       XUAT_1BYTE(BL742);   XUAT_1BYTE(BL743); 
05BE:  MOVFF  438,441
05C2:  RCALL  0154
05C4:  MOVFF  437,441
05C8:  RCALL  0154
....................        
....................       MO_4_LED_7DOAN; 
05CA:  BCF    04.6
....................       MO_IC_74573_A_THONG_DL(); 
05CC:  RCALL  0182
....................         
....................       OUTPUT_LOW(RCK_4LED7DOAN);   OUTPUT_HIGH(RCK_4LED7DOAN);  
05CE:  BCF    F95.7
05D0:  BCF    F8C.7
05D2:  BCF    F95.7
05D4:  BSF    F8C.7
....................       CHOT_IC_74573_A_GOI_DU_LIEU; 
05D6:  BCF    F95.1
05D8:  BCF    F8C.1
05DA:  RETURN 0
.................... } 
.................... //ham 404 
.................... VOID XUAT_4LED_7DOAN_3SO(UNSIGNED INT BL742,BL741,BL740) 
.................... {      
....................      XUAT_4LED_7DOAN_4SO(0XFF,BL742,BL741,BL740); 
.................... } 
.................... //ham 403 
.................... VOID XUAT_4LED_7DOAN_2SO(UNSIGNED INT BL741,BL740) 
.................... {      
....................      XUAT_4LED_7DOAN_4SO(0XFF,0XFF,BL741,BL740); 
.................... } 
.................... //ham 402 
.................... VOID XUAT_4LED_7DOAN_1SO(UNSIGNED INT BL740) 
.................... {      
....................      XUAT_4LED_7DOAN_4SO(0XFF,0XFF,0XFF,BL740); 
.................... } 
....................  
.................... //ham 405 
.................... //XXXXXXXXXXXXXXXXXXXXXXXXXXXXXXXXXXXXXXXXXXXXXXXXXXXXXXXXXXXXX 
.................... //CHUONG TRINH CON HIEN THI DU LIEU 16 BIT TREN 4 LED 7 DOAN 
.................... //XXXXXXXXXXXXXXXXXXXXXXXXXXXXXXXXXXXXXXXXXXXXXXXXXXXXXXXXXXXXX 
.................... UNSIGNED CHAR DONVI4,CHUC4,TRAM4,NGAN4; 
.................... VOID  XUAT_4LED_7DOAN_GIAIMA_XOA_SO0 (UNSIGNED INT16 TAM) 
.................... {          
....................       DONVI4 = MA7DOAN[TAM %10];          
....................       CHUC4  = MA7DOAN[TAM/10%10]; 
....................       TRAM4  = MA7DOAN[TAM/100%10];  
....................       NGAN4  = MA7DOAN[TAM/1000%10];        
....................       IF (NGAN4==0XC0) 
....................       { 
....................          NGAN4=0XFF; 
....................          IF (TRAM4==0XC0) 
....................          { 
....................             TRAM4=0XFF; 
....................             IF (CHUC4==0XC0)   CHUC4=0XFF; 
....................          } 
....................       } 
....................       XUAT_4LED_7DOAN_4SO(NGAN4,TRAM4,CHUC4,DONVI4);    
.................... } 
.................... UNSIGNED INT8 LCDDATA=0;  
.................... UNSIGNED INT8 LCDCONTROL=0; 
.................... UNSIGNED INT8 GLCDDATA=0; 
.................... UNSIGNED INT8 GLCDCONTROL=0;  
.................... //HAM 701 
.................... //XXXXXXXXXXXXXXXXXXXXXXXXXXXXXXXXXXXXXXXXXXXXXXXXXXXXXXXXXXXXX 
.................... //CHUONG TRINH CON XUAT DU LIEU 4 BYTE RA GLCD VA LCD 
.................... //XXXXXXXXXXXXXXXXXXXXXXXXXXXXXXXXXXXXXXXXXXXXXXXXXXXXXXXXXXXXX 
.................... VOID XUAT_GLCD_LCD() 
.................... {       
....................     XUAT_1BYTE(GLCDCONTROL);              
*
01B0:  MOVFF  10,441
01B4:  RCALL  0154
....................     XUAT_1BYTE(GLCDDATA); 
01B6:  MOVFF  0F,441
01BA:  RCALL  0154
....................     XUAT_1BYTE(LCDCONTROL);        
01BC:  MOVFF  0E,441
01C0:  RCALL  0154
....................     XUAT_1BYTE(LCDDATA);       
01C2:  MOVFF  0D,441
01C6:  RCALL  0154
....................        
....................     MO_GLCD_LCD; 
01C8:  BCF    04.2
....................     MO_IC_74573_A_THONG_DL();             
01CA:  RCALL  0182
....................     OUTPUT_HIGH(RCK_LCD20X4);      
01CC:  BCF    F95.3
01CE:  BSF    F8C.3
....................     OUTPUT_LOW(RCK_LCD20X4); 
01D0:  BCF    F95.3
01D2:  BCF    F8C.3
....................     CHOT_IC_74573_A_GOI_DU_LIEU; 
01D4:  BCF    F95.1
01D6:  BCF    F8C.1
01D8:  RETURN 0
.................... } 
.................... //HAM 702 
.................... VOID XUAT_LCD20X4(UNSIGNED INT8 LCD_SIGNAL,LCD_INS_HTHI) 
.................... {      
....................     LCDCONTROL = ~LCD_SIGNAL; 
01DA:  MOVLB  4
01DC:  MOVFF  43F,0E
01E0:  COMF   0E,F
....................     LCDDATA    = ~LCD_INS_HTHI;       
01E2:  MOVFF  440,0D
01E6:  COMF   0D,F
....................     XUAT_GLCD_LCD(); 
01E8:  MOVLB  0
01EA:  RCALL  01B0
01EC:  RETURN 0
.................... } 
.................... //HAM 703 
.................... VOID XUAT_GLCD128X64(UNSIGNED INT8 GLCD_SIGNAL,GLCD_INS_HTHI) 
.................... {      
....................     GLCDCONTROL = ~GLCD_SIGNAL; 
*
02FA:  MOVLB  4
02FC:  MOVFF  43B,10
0300:  COMF   10,F
....................     GLCDDATA    = ~GLCD_INS_HTHI;      
0302:  MOVFF  43C,0F
0306:  COMF   0F,F
....................     XUAT_GLCD_LCD(); 
0308:  MOVLB  0
030A:  RCALL  01B0
030C:  RETURN 0
.................... } 
.................... //HAM 501 
.................... //XXXXXXXXXXXXXXXXXXXXXXXXXXXXXXXXXXXXXXXXXXXX 
.................... //CHUONG TRINH CON XUAT 2 BYTE RA DK 1 LED QUET SANG 
.................... //XXXXXXXXXXXXXXXXXXXXXXXXXXXXXXXXXXXXXXXXXXXX 
.................... VOID XUAT_8LED_7DOAN_QUET_1(UNSIGNED INT MA,SO_HTHI) 
.................... {      
....................       XUAT_1BYTE(~MA);   XUAT_1BYTE(~SO_HTHI); 
*
0AF0:  MOVLB  4
0AF2:  MOVFF  437,439
0AF6:  COMF   x39,F
0AF8:  MOVFF  439,441
0AFC:  MOVLB  0
0AFE:  CALL   0154
0B02:  MOVLB  4
0B04:  MOVFF  438,439
0B08:  COMF   x39,F
0B0A:  MOVFF  439,441
0B0E:  MOVLB  0
0B10:  CALL   0154
....................        
....................       MO_8_LED_QUET; 
0B14:  BCF    05.4
....................       MO_IC_74573_B_THONG_DL(); 
0B16:  RCALL  0A74
....................        
....................       OUTPUT_HIGH(RCK_8LEDQUET); OUTPUT_LOW(RCK_8LEDQUET); 
0B18:  BCF    F95.5
0B1A:  BSF    F8C.5
0B1C:  BCF    F95.5
0B1E:  BCF    F8C.5
....................       CHOT_IC_74573_B_GOI_DU_LIEU; 
0B20:  BCF    F95.0
0B22:  BCF    F8C.0
0B24:  GOTO   0B32 (RETURN)
.................... } 
.................... //HAM 502 
.................... //XXXXXXXXXXXXXXXXXXXXXXXXXXXXXXXXXXXXXXXXXXXX 
.................... //CHUONG TRINH CON XUAT 2 BYTE RA TAT 8 LED QUET 
.................... //XXXXXXXXXXXXXXXXXXXXXXXXXXXXXXXXXXXXXXXXXXXX 
.................... VOID XUAT_8LED_7DOAN_QUET_TAT_LED() 
.................... { 
....................    XUAT_8LED_7DOAN_QUET_1(0XFF,0XFF); 
0B28:  MOVLB  4
0B2A:  SETF   x37
0B2C:  SETF   x38
0B2E:  MOVLB  0
0B30:  BRA    0AF0
0B32:  GOTO   0B7A (RETURN)
.................... } 
.................... //HAM 503 
.................... //XXXXXXXXXXXXXXXXXXXXXXXXXXXXXXXXXXXXXXXXXXXX 
.................... //CHUONG TRINH CON HIEN THI LED THEO THU TU 
.................... //XXXXXXXXXXXXXXXXXXXXXXXXXXXXXXXXXXXXXXXXXXXX 
.................... CONST UNSIGNED CHAR TTLEDQUET[8]= {0x7F,0xBF,0xDF,0xEF,0xF7,0xFB,0xFD,0xFE}; 
.................... VOID XUAT_8LED_7DOAN_QUET_2(UNSIGNED INT THUTULED,SO_HTHI) 
.................... {          
....................       XUAT_1BYTE(~ (TTLEDQUET[THUTULED]));   XUAT_1BYTE(~SO_HTHI);      
*
0AA2:  CLRF   03
0AA4:  MOVLB  4
0AA6:  MOVF   x38,W
0AA8:  MOVFF  FF2,43A
0AAC:  BCF    FF2.7
0AAE:  MOVLB  0
0AB0:  CALL   0024
0AB4:  MOVLB  4
0AB6:  BTFSC  x3A.7
0AB8:  BSF    FF2.7
0ABA:  MOVWF  01
0ABC:  MOVWF  x3A
0ABE:  COMF   x3A,F
0AC0:  MOVFF  43A,441
0AC4:  MOVLB  0
0AC6:  CALL   0154
0ACA:  MOVLB  4
0ACC:  MOVFF  439,43A
0AD0:  COMF   x3A,F
0AD2:  MOVFF  43A,441
0AD6:  MOVLB  0
0AD8:  CALL   0154
....................       MO_8_LED_QUET; 
0ADC:  BCF    05.4
....................       MO_IC_74573_B_THONG_DL(); 
0ADE:  RCALL  0A74
....................       OUTPUT_HIGH(RCK_8LEDQUET); OUTPUT_LOW(RCK_8LEDQUET); 
0AE0:  BCF    F95.5
0AE2:  BSF    F8C.5
0AE4:  BCF    F95.5
0AE6:  BCF    F8C.5
....................       CHOT_IC_74573_B_GOI_DU_LIEU; 
0AE8:  BCF    F95.0
0AEA:  BCF    F8C.0
0AEC:  GOTO   0B6E (RETURN)
.................... } 
.................... //HAM 504 
.................... //XXXXXXXXXXXXXXXXXXXXXXXXXXXXXXXXXXXXXXXXXXXX 
.................... //CHUONG TRINH CON HIEN THI 8 SO TREN 8 LED QUET - CO KIEM TRA 
.................... //XXXXXXXXXXXXXXXXXXXXXXXXXXXXXXXXXXXXXXXXXXXX 
.................... UNSIGNED INT8 LED_7DQ[8]={0XFF,0XFF,0XFF,0XFF,0XFF,0XFF,0XFF,0XFF}; 
.................... UNSIGNED INT8 TT8LED=0; 
.................... VOID HIEN_THI_8LED_7DOAN_QUET() 
.................... {      
....................       FOR(TT8LED=0;TT8LED<8;TT8LED++) 
*
0B36:  CLRF   19
0B38:  MOVF   19,W
0B3A:  SUBLW  07
0B3C:  BNC   0B7E
....................          IF (LED_7DQ[TT8LED]!=0XFF) 
0B3E:  CLRF   03
0B40:  MOVF   19,W
0B42:  ADDLW  11
0B44:  MOVWF  FE9
0B46:  MOVLW  00
0B48:  ADDWFC 03,W
0B4A:  MOVWF  FEA
0B4C:  INCFSZ FEF,W
0B4E:  BRA    0B52
0B50:  BRA    0B7A
....................          {            
....................             XUAT_8LED_7DOAN_QUET_2(TT8LED, LED_7DQ[TT8LED]); 
0B52:  CLRF   03
0B54:  MOVF   19,W
0B56:  ADDLW  11
0B58:  MOVWF  FE9
0B5A:  MOVLW  00
0B5C:  ADDWFC 03,W
0B5E:  MOVWF  FEA
0B60:  MOVFF  FEF,437
0B64:  MOVFF  19,438
0B68:  MOVFF  437,439
0B6C:  BRA    0AA2
....................             DELAY_US(100); 
0B6E:  MOVLW  A6
0B70:  MOVWF  00
0B72:  DECFSZ 00,F
0B74:  BRA    0B72
0B76:  NOP   
....................             XUAT_8LED_7DOAN_QUET_TAT_LED();            
0B78:  BRA    0B28
0B7A:  INCF   19,F
0B7C:  BRA    0B38
....................             } 
0B7E:  RETURN 0
.................... } 
.................... //HAM 505 
.................... //XXXXXXXXXXXXXXXXXXXXXXXXXXXXXXXXXXXXXXXXXXXX 
.................... //CHUONG TRINH CON HIEN THI 8 SO TREN 8 LED QUET - KHONG KIEM TRA 
.................... //XXXXXXXXXXXXXXXXXXXXXXXXXXXXXXXXXXXXXXXXXXXX 
.................... VOID HIEN_THI_8LED_7DOAN_QUET_ALL() 
.................... {      
....................       FOR(TT8LED=0;TT8LED<8;TT8LED++)          
....................          {            
....................             XUAT_8LED_7DOAN_QUET_2(TT8LED, LED_7DQ[TT8LED]); 
....................             DELAY_US(100); 
....................             XUAT_8LED_7DOAN_QUET_TAT_LED();            
....................             } 
.................... } 
....................  
.................... VOID DELAY_QUET_8LED(UNSIGNED INT16 DL) 
.................... {  
....................       UNSIGNED INT8 I; 
....................       FOR (I=0; I<DL;I++) 
....................       HIEN_THI_8LED_7DOAN_QUET_ALL(); 
.................... }  
....................  
.................... VOID GIAI_MA_GAN_CHO_8LED_QUET_16_XOA(UNSIGNED INT16 X) 
.................... {      
....................       LED_7DQ[0]= MA7DOAN [X %10];     
....................       LED_7DQ[1]= MA7DOAN [X/10%10]; 
....................       LED_7DQ[2]= MA7DOAN [X/100%10];     
....................       LED_7DQ[3]= MA7DOAN [X/1000%10]; 
....................       LED_7DQ[4]= MA7DOAN [X/10000%10]; 
....................       IF (LED_7DQ[4]==MASO0)  
....................       { 
....................             LED_7DQ[4]=0XFF; 
....................             IF (LED_7DQ[3]==MASO0)  
....................             { 
....................                LED_7DQ[3]=0XFF; 
....................                IF (LED_7DQ[2]==MASO0)  
....................                { 
....................                   LED_7DQ[2]=0XFF; 
....................                   IF (LED_7DQ[1]==MASO0)  
....................                   { 
....................                      LED_7DQ[1]=0XFF; 
....................                   } 
....................                } 
....................             } 
....................       } 
....................              
.................... } 
.................... //XXXXXXXXXXXXXXXXXXXXXXXXXXXXXXXXXXXXXXXXXXXX          
.................... VOID XUAT_2BYTE(UNSIGNED INT16 BYTE2XUAT) 
.................... { 
....................    INT8 SBB; 
....................    UNSIGNED INT16   XX;   //SHORT  BSERI; 
....................    #BIT BSERIX  = XX.15 
....................    XX = BYTE2XUAT; 
....................    FOR (SBB=0;SBB<16;SBB++) 
....................       {                                                  
....................          OUTPUT_BIT(SSDO,BSERIX);     
....................          OUTPUT_LOW(SSCK);          
....................          OUTPUT_HIGH(SSCK); 
....................          XX= XX<<1;          
....................      } 
.................... } 
.................... //XXXXXXXXXXXXXXXXXXXXXXXXXXXXXXXXXXXXXXXXXXXX 
.................... //CHUONG TRINH CON XUAT RA LED MA TRAN 
.................... //XXXXXXXXXXXXXXXXXXXXXXXXXXXXXXXXXXXXXXXXXXXX 
.................... VOID XUAT_MATRANLED(UNSIGNED INT16 MAHANG,UNSIGNED INT16 MACOT1, 
.................... UNSIGNED INT16 MACOT2,UNSIGNED INT16 MACOT3) 
.................... {       
....................       XUAT_2BYTE(MACOT3); 
....................       XUAT_2BYTE(MACOT2); 
....................       XUAT_2BYTE(MACOT1); 
....................       XUAT_2BYTE(MAHANG); 
....................        
....................       MO_LED_MATRAN; 
....................       MO_IC_74573_B_THONG_DL(); 
....................        
....................       OUTPUT_HIGH(RCK_MATRANLED); OUTPUT_LOW(RCK_MATRANLED);  
....................       CHOT_IC_74573_B_GOI_DU_LIEU; 
.................... } 
.................... //XXXXXXXXXXXXXXXXXXXXXXXXXXXXXXXXXXXXXXXXXXXX 
.................... //CHUONG TRINH CON XUAT RA LED MA TRAN 
.................... //XXXXXXXXXXXXXXXXXXXXXXXXXXXXXXXXXXXXXXXXXXXX 
.................... VOID TAT_MATRANLED() 
.................... {       
....................       XUAT_2BYTE(0); 
....................       XUAT_2BYTE(0); 
....................       XUAT_2BYTE(0); 
....................       XUAT_2BYTE(0);            
....................       OUTPUT_HIGH(RCK_MATRANLED);  
....................       OUTPUT_LOW(RCK_MATRANLED); 
.................... } 
.................... UNSIGNED  INT8 HIEU_CHINH_4BIT_CAO(UNSIGNED INT8 XZY) 
.................... { 
....................       INT1  BTG; 
....................       UNSIGNED INT8   BX;    
....................       #BIT BIT4  = BX.4 
....................       #BIT BIT5  = BX.5 
....................       #BIT BIT6  = BX.6 
....................       #BIT BIT7  = BX.7 
....................       BX=XZY; 
....................       BTG=BIT4;   BIT4=BIT7;  BIT7=BTG; 
....................       BTG=BIT5;   BIT5=BIT6;  BIT6=BTG;       
....................       RETURN(BX);   
.................... } 
.................... //HAM 601 
.................... //XXXXXXXXXXXXXXXXXXXXXXXXXXXXXXXXXXXXXXXXXXXXXXXXXXXX 
.................... //MODULE DIEU KHIEN RELAY,TRIAC, BUZZER, DONG CO, SIM 
.................... //XXXXXXXXXXXXXXXXXXXXXXXXXXXXXXXXXXXXXXXXXXXXXXXXXXXX 
.................... VOID XUAT_BUZZER_RELAY() 
.................... {      
....................    UNSIGNED INT8 RBDC1,RBDC2; 
....................       RBDC1=RBDC; RBDC2=RBDC>>8;       
....................       XUAT_1BYTE(RBDC2);       
....................       XUAT_1BYTE(RBDC1); 
....................       MO_RELAY_BUZZER_DC; 
....................       MO_IC_74573_B_THONG_DL(); 
....................        
....................       OUTPUT_HIGH(RCK_BUZERELAY);   OUTPUT_LOW(RCK_BUZERELAY); 
....................       CHOT_IC_74573_B_GOI_DU_LIEU; 
.................... } 
.................... //HAM 602 
.................... //XXXXXXXXXXXXXXXXXXXXXXXXXXXXXXXXXXXXXXXXXXXXXXXXXXXX 
.................... VOID BUZZER_ON() 
.................... {     
....................       BUZZER=1; 
....................       XUAT_BUZZER_RELAY();          
.................... } 
.................... //HAM 603 
.................... //XXXXXXXXXXXXXXXXXXXXXXXXXXXXXXXXXXXXXXXXXXXXXXXXXXXX 
.................... VOID BUZZER_OFF() 
.................... {      
....................       BUZZER=0; 
....................       XUAT_BUZZER_RELAY(); 
.................... } 
.................... //HAM 604 
.................... //XXXXXXXXXXXXXXXXXXXXXXXXXXXXXXXXXXXXXXXXXXXXXXXXXXXX 
.................... VOID RELAY_1_ON() 
.................... {     
....................       RELAY_1=1; 
....................       XUAT_BUZZER_RELAY();          
.................... } 
.................... //HAM 603 
.................... //XXXXXXXXXXXXXXXXXXXXXXXXXXXXXXXXXXXXXXXXXXXXXXXXXXXX 
.................... VOID RELAY_1_OFF() 
.................... {     
....................       RELAY_1=0; 
....................       XUAT_BUZZER_RELAY();          
.................... } 
.................... //HAM 604 
.................... //XXXXXXXXXXXXXXXXXXXXXXXXXXXXXXXXXXXXXXXXXXXXXXXXXXXX 
.................... VOID RELAY_2_ON() 
.................... {     
....................       RELAY_2=1; 
....................       XUAT_BUZZER_RELAY();          
.................... } 
.................... //HAM 607 
.................... //XXXXXXXXXXXXXXXXXXXXXXXXXXXXXXXXXXXXXXXXXXXXXXXXXXXX 
.................... VOID RELAY_2_OFF() 
.................... {     
....................       RELAY_2=0; 
....................       XUAT_BUZZER_RELAY();          
.................... } 
.................... //HAM 608 
.................... //XXXXXXXXXXXXXXXXXXXXXXXXXXXXXXXXXXXXXXXXXXXXXXXXXXXX 
.................... VOID RELAY_1_RELAY_2_ON() 
.................... {     
....................       RELAY_1=1;  RELAY_2=1; 
....................       XUAT_BUZZER_RELAY();          
.................... } 
.................... //HAM 609 
.................... //XXXXXXXXXXXXXXXXXXXXXXXXXXXXXXXXXXXXXXXXXXXXXXXXXXXX 
.................... VOID RELAY_1_RELAY_2_OFF() 
.................... {     
....................       RELAY_1=0;  RELAY_2=0; 
....................       XUAT_BUZZER_RELAY();          
.................... } 
.................... //HAM 610 
.................... //XXXXXXXXXXXXXXXXXXXXXXXXXXXXXXXXXXXXXXXXXXXXXXXXXXXX 
.................... VOID TRIAC_1_ON() 
.................... {     
....................       TRIAC_1=1; 
....................       XUAT_BUZZER_RELAY();          
.................... } 
.................... //HAM 611 
.................... //XXXXXXXXXXXXXXXXXXXXXXXXXXXXXXXXXXXXXXXXXXXXXXXXXXXX 
.................... VOID TRIAC_1_OFF() 
.................... {     
....................       TRIAC_1=0; 
....................       XUAT_BUZZER_RELAY();          
.................... } 
.................... //HAM 612 
.................... //XXXXXXXXXXXXXXXXXXXXXXXXXXXXXXXXXXXXXXXXXXXXXXXXXXXX 
.................... VOID TRIAC_2_ON() 
.................... {     
....................       TRIAC_2=1; 
....................       XUAT_BUZZER_RELAY();          
.................... } 
.................... //HAM 613 
.................... //XXXXXXXXXXXXXXXXXXXXXXXXXXXXXXXXXXXXXXXXXXXXXXXXXXXX 
.................... VOID TRIAC_2_OFF() 
.................... {     
....................       TRIAC_2=0; 
....................       XUAT_BUZZER_RELAY();          
.................... } 
.................... //XXXXXXXXXXXXXXXXXXXXXXXXXXXXXXXXXXXXXXXXXXXX 
....................  
....................  
....................  
.................... #INCLUDE <TV_PICKIT2_SHIFT_LCD.C> 
.................... UNSIGNED INT8 LCD_CONTROL;   
.................... #bit LCD_P = LCD_CONTROL.3 
.................... #bit LCD_RS = LCD_CONTROL.2 
.................... #bit LCD_RW = LCD_CONTROL.1 
.................... #bit LCD_E  = LCD_CONTROL.0 
....................  
.................... #DEFINE LCD_FUNCTION_SET       0X38 
.................... #DEFINE LCD_DISPLAY_CONTROL    0X0C 
.................... #DEFINE LCD_CLEAR_DISPLAY      0X01 
.................... #DEFINE LCD_ENTRY_MODE         0X06 
.................... #DEFINE LCD_SHIFT_LEFT         0X18 
.................... #DEFINE LCD_SHIFT_RIGHT        0X1C 
....................  
.................... #DEFINE LCD_ADDR_LINE1         0X80 
.................... #DEFINE LCD_ADDR_LINE2         0XC0 
.................... #DEFINE LCD_ADDR_LINE3         0X94 
.................... #DEFINE LCD_ADDR_LINE4         0XD4 
....................  
.................... VOID LCD_XUAT_8BIT(INT8 LCD_DATA_X) 
.................... { 
....................       LCD_E=1; XUAT_LCD20X4(LCD_CONTROL,LCD_DATA_X);      
*
01EE:  BSF    1A.0
01F0:  MOVFF  1A,43F
01F4:  MOVFF  43E,440
01F8:  RCALL  01DA
....................       LCD_E=0; XUAT_LCD20X4(LCD_CONTROL,LCD_DATA_X);  
01FA:  BCF    1A.0
01FC:  MOVFF  1A,43F
0200:  MOVFF  43E,440
0204:  RCALL  01DA
0206:  RETURN 0
.................... } 
.................... void LCD_COMMAND(INT8 LCD_DATA_X)    
....................   { 
....................       LCD_RS = 0; 
0208:  BCF    1A.2
....................       LCD_XUAT_8BIT(LCD_DATA_X); 
020A:  MOVFF  43D,43E
020E:  RCALL  01EE
....................       DELAY_US(20); 
0210:  MOVLW  20
0212:  MOVWF  00
0214:  DECFSZ 00,F
0216:  BRA    0214
0218:  BRA    021A
021A:  NOP   
021C:  RETURN 0
....................   } 
.................... void LCD_DATA(INT8 LCD_DATA_X)        
....................   { 
....................       LCD_RS = 1;      
*
02C4:  BSF    1A.2
....................       LCD_XUAT_8BIT(LCD_DATA_X); 
02C6:  MOVFF  43A,43E
02CA:  RCALL  01EE
....................       DELAY_US(20); 
02CC:  MOVLW  20
02CE:  MOVWF  00
02D0:  DECFSZ 00,F
02D2:  BRA    02D0
02D4:  BRA    02D6
02D6:  NOP   
02D8:  RETURN 0
....................   } 
....................    
.................... VOID SETUP_LCD () 
.................... {                      
....................          LCD_E  = 0;  
*
0246:  BCF    1A.0
....................          LCD_RW = 0;  
0248:  BCF    1A.1
....................          LCD_RS = 1;  
024A:  BSF    1A.2
....................          LCD_P =0; 
024C:  BCF    1A.3
....................          LCD_COMMAND(LCD_FUNCTION_SET);          
024E:  MOVLW  38
0250:  MOVLB  4
0252:  MOVWF  x3D
0254:  MOVLB  0
0256:  RCALL  0208
....................          DELAY_US(40); 
0258:  MOVLW  42
025A:  MOVWF  00
025C:  DECFSZ 00,F
025E:  BRA    025C
0260:  NOP   
....................          LCD_COMMAND(LCD_DISPLAY_CONTROL);    
0262:  MOVLW  0C
0264:  MOVLB  4
0266:  MOVWF  x3D
0268:  MOVLB  0
026A:  RCALL  0208
....................          DELAY_US(40); 
026C:  MOVLW  42
026E:  MOVWF  00
0270:  DECFSZ 00,F
0272:  BRA    0270
0274:  NOP   
....................          LCD_COMMAND(LCD_CLEAR_DISPLAY);       
0276:  MOVLW  01
0278:  MOVLB  4
027A:  MOVWF  x3D
027C:  MOVLB  0
027E:  RCALL  0208
....................          DELAY_MS(2); 
0280:  MOVLW  02
0282:  MOVLB  4
0284:  MOVWF  x37
0286:  MOVLB  0
0288:  RCALL  021E
....................          LCD_COMMAND(LCD_ENTRY_MODE);        
028A:  MOVLW  06
028C:  MOVLB  4
028E:  MOVWF  x3D
0290:  MOVLB  0
0292:  RCALL  0208
....................          DELAY_US(40);                 
0294:  MOVLW  42
0296:  MOVWF  00
0298:  DECFSZ 00,F
029A:  BRA    0298
029C:  NOP   
029E:  GOTO   0CA2 (RETURN)
.................... } 
....................  
.................... CONST UNSIGNED CHAR LCD_SO_X[10+1+1][6] ={ 
....................                   0,1,2,5,3,4,               // SO 0 
....................                   1,2,32,3,7,3,              // SO 1 
....................                   6,6,2,5,3,3,               // SO 2 
....................                   6,6,2,3,3,4,               // SO 3 
....................                   7,3,7,32,32,7,             // SO 4 
....................                   7,6,6,3,3,4,               // SO 5 
....................                   0,6,6,5,3,4,               // SO 6 
....................                   1,1,7,32,32,7,             // SO 7 
....................                   0,6,2,5,3,4,               // SO 8 
....................                   0,6,2,3,3,4,               // SO 9 
....................                   32,32,32,32,32,32,         // KHOANG TRANG 0x20 tai vi tri 10 
....................                   0,6,2,5,32,32,              // CHU "P" tai vi tri 11 
....................                   }; 
....................                    
....................                    
.................... CONST UNSIGNED CHAR LCD_MA_8DOAN[] = { 
....................    0x07,0x0F,0x1F,0x1F,0x1F,0x1F,0x1F,0x1F,  //DOAN F - 0 
....................    0x1F,0x1F,0x1F,0X00,0X00,0X00,0X00,0X00,  //DOAN A - 1 
....................    0x1C,0x1E,0x1F,0x1F,0x1F,0x1F,0x1F,0x1F,  //DOAN B - 2 
....................    0X00,0X00,0X00,0X00,0X00,0x1F,0x1F,0x1F,  //DOAN D - 3 
....................    0x1F,0x1F,0x1F,0x1F,0x1F,0x1F,0x1E,0x1C,  //DOAN C - 4 
....................    0x1F,0x1F,0x1F,0x1F,0x1F,0x1F,0x0F,0x07,  //DOAN E - 5 
....................    0x1F,0x1F,0x1F,0X00,0X00,0X00,0x1F,0x1F,  //DOAN G+D-6  
....................    0x1F,0x1F,0x1F,0x1F,0x1F,0x1F,0x1F,0x1F}; //DOAN I  -7 
....................     
.................... VOID LCD_GOTO_XY(SIGNED INT8 X, SIGNED INT8 Y) 
.................... {  
....................    CONST UNSIGNED INT8 LCD_VITRI[]={0x80,0xC0,0x94,0xD4}; 
....................    LCD_COMMAND(LCD_VITRI[X]+Y); 
02A2:  CLRF   03
02A4:  MOVLB  4
02A6:  MOVF   x3A,W
02A8:  MOVFF  FF2,43C
02AC:  BCF    FF2.7
02AE:  MOVLB  0
02B0:  RCALL  00E4
02B2:  MOVLB  4
02B4:  BTFSC  x3C.7
02B6:  BSF    FF2.7
02B8:  ADDWF  x3B,W
02BA:  MOVWF  x3C
02BC:  MOVWF  x3D
02BE:  MOVLB  0
02C0:  RCALL  0208
02C2:  RETURN 0
.................... } 
....................  
.................... VOID XXX() 
.................... {  
....................    SIGNED INT8 X; 
....................    X= LCD_SO_X[0][0]; 
....................    X= LCD_MA_8DOAN[0]; 
.................... } 
....................  
.................... #INCLUDE  <TV_PICKIT2_SHIFT_GLCD128X64.C> 
.................... UNSIGNED INT8 GLCD_CONTROL;   
.................... #bit GLCD_P    = GLCD_CONTROL.5 
.................... #bit GLCD_RS   = GLCD_CONTROL.4 
.................... #bit GLCD_RW   = GLCD_CONTROL.3 
.................... #bit GLCD_E    = GLCD_CONTROL.2 
.................... #bit GLCD_CS2  = GLCD_CONTROL.1 
.................... #bit GLCD_CS1  = GLCD_CONTROL.0 
....................  
.................... //#DEFINE GLCD_FUNCTION_SET       0X30 
.................... #DEFINE GLCD_TEXT_MODE          0x30 
.................... #DEFINE GLCD_GRAPHIC_MODE       0x36  
....................  
.................... #DEFINE GLCD_CLEAR_DISPLAY      0X01 
.................... #DEFINE GLCD_CURSOR_DISPLAY     0X0C 
.................... #DEFINE GLCD_ENTRY_MODE         0X06 
....................  
....................  
.................... #DEFINE GLCD_ADDR_LINE1         0X80 
.................... #DEFINE GLCD_ADDR_LINE2         0X90 
.................... #DEFINE GLCD_ADDR_LINE3         0X88 
.................... #DEFINE GLCD_ADDR_LINE4         0X98 
....................  
.................... VOID GLCD_XUAT_8BIT(INT8 GLCD_DATA1) 
.................... { 
....................       GLCD_E=1; XUAT_GLCD128X64(GLCD_CONTROL,GLCD_DATA1);      
*
030E:  BSF    1B.2
0310:  MOVFF  1B,43B
0314:  MOVFF  43A,43C
0318:  RCALL  02FA
....................       GLCD_E=0; XUAT_GLCD128X64(GLCD_CONTROL,GLCD_DATA1);  
031A:  BCF    1B.2
031C:  MOVFF  1B,43B
0320:  MOVFF  43A,43C
0324:  RCALL  02FA
0326:  RETURN 0
.................... } 
....................  
.................... void GLCD_COMMAND(INT8 GLCD_DATA2)    
....................   { 
....................       GLCD_RS = 0; 
0328:  BCF    1B.4
....................       GLCD_XUAT_8BIT(GLCD_DATA2);       
032A:  MOVFF  437,43A
032E:  RCALL  030E
0330:  RETURN 0
....................   } 
.................... void GLCD_DATA(INT8 GLCD_DATA3)        
....................   { 
....................       GLCD_RS = 1;      
*
038A:  BSF    1B.4
....................       GLCD_XUAT_8BIT(GLCD_DATA3);      
038C:  MOVFF  439,43A
0390:  RCALL  030E
0392:  RETURN 0
....................   } 
....................    
....................   VOID GLCD_DATA_X(INT8 GLCD_DATA3) 
.................... { 
....................       GLCD_RS = 1;      
....................       GLCD_XUAT_8BIT(0XA1); 
....................       GLCD_XUAT_8BIT(0X40);   
.................... } 
.................... VOID SETUP_GLCD (INT8 GLCD_FUNCTION_SET_MODE) 
.................... {                      
....................          GLCD_CS1 = 1; 
*
0332:  BSF    1B.0
....................          GLCD_CS2 = 1; 
0334:  BSF    1B.1
....................          GLCD_E  = 0; 
0336:  BCF    1B.2
....................          GLCD_RW = 0;           
0338:  BCF    1B.3
....................          GLCD_P =0;          
033A:  BCF    1B.5
....................          GLCD_COMMAND(GLCD_FUNCTION_SET_MODE);          
033C:  MOVFF  436,437
0340:  RCALL  0328
....................          DELAY_US(10); 
0342:  MOVLW  10
0344:  MOVWF  00
0346:  DECFSZ 00,F
0348:  BRA    0346
034A:  NOP   
....................          GLCD_COMMAND(GLCD_CURSOR_DISPLAY);        
034C:  MOVLW  0C
034E:  MOVLB  4
0350:  MOVWF  x37
0352:  MOVLB  0
0354:  RCALL  0328
....................          DELAY_US(10);     
0356:  MOVLW  10
0358:  MOVWF  00
035A:  DECFSZ 00,F
035C:  BRA    035A
035E:  NOP   
....................          GLCD_COMMAND(GLCD_CLEAR_DISPLAY);       
0360:  MOVLW  01
0362:  MOVLB  4
0364:  MOVWF  x37
0366:  MOVLB  0
0368:  RCALL  0328
....................          DELAY_MS(2); 
036A:  MOVLW  02
036C:  MOVLB  4
036E:  MOVWF  x37
0370:  MOVLB  0
0372:  RCALL  021E
....................          GLCD_COMMAND(GLCD_ENTRY_MODE);       
0374:  MOVLW  06
0376:  MOVLB  4
0378:  MOVWF  x37
037A:  MOVLB  0
037C:  RCALL  0328
....................          DELAY_US(10);                           
037E:  MOVLW  10
0380:  MOVWF  00
0382:  DECFSZ 00,F
0384:  BRA    0382
0386:  NOP   
0388:  RETURN 0
.................... } 
....................  
.................... #DEFINE GLCD_NGANG     16 //256 PIXEL 
.................... #DEFINE GLCD_DOC       32 //32 HANG 
.................... #DEFINE GLCD_WIDTH     128 //DANH CHO THU VIEN GRAPHIC.C 
.................... int8 DOC, NGANG; 
....................  
.................... typedef union  
.................... {  
....................   unsigned int16 word;  
....................   unsigned int8 nbyte[2];  
.................... } Dots;  
....................  
.................... typedef struct  
.................... {  
....................   int1 refresh;  
....................   Dots PIXEL[GLCD_DOC][GLCD_NGANG];     
....................   } GD_RAM;     
....................  
.................... GD_RAM gdram_vdk;  
....................  
....................  
.................... void GLCD_MAU_NEN(int1 GLCD_COLOR)  
.................... {   
....................   int16 d;  
....................   if(GLCD_COLOR)  d=0xffff; else d=0; 
....................   for (DOC=0; DOC < GLCD_DOC; DOC++)  
....................   {  
....................     for (NGANG=0; NGANG < GLCD_NGANG; NGANG++)  
....................     {  
....................       gdram_vdk.PIXEL[DOC][NGANG].word = d;  
....................     }  
....................   }  
....................   gdram_vdk.refresh = TRUE;  
.................... }  
....................  
.................... void glcd_pixel(int8 x, int8 y, int1 color)  
.................... {  
....................   int8  b;  
....................   if(y>31){x += 128; y-= 32;};  
....................   DOC = y;  
....................   NGANG = x/16;  
....................   b = 15 - (x % 16);  
....................    
....................   if (color == 1) bit_set (gdram_vdk.PIXEL[DOC][NGANG].word, b);  
....................   else bit_clear (gdram_vdk.PIXEL[DOC][NGANG].word, b);  
....................   gdram_vdk.refresh = TRUE;  
.................... }  
....................  
....................  
.................... void GDRAM_VDK_TO_GDRAM_GLCD_ALL()  
.................... {  
....................   if (gdram_vdk.refresh)  
*
03D6:  BTFSS  1E.0
03D8:  BRA    04B8
....................   {  
....................     for (DOC = 0; DOC <GLCD_DOC; DOC++)  
03DA:  CLRF   1C
03DC:  MOVF   1C,W
03DE:  SUBLW  1F
03E0:  BNC   04B6
....................     {  
....................       GLCD_COMMAND( 0x80 | DOC);   // Set Vertical Address.  
03E2:  MOVF   1C,W
03E4:  IORLW  80
03E6:  MOVLB  4
03E8:  MOVWF  x36
03EA:  MOVWF  x37
03EC:  MOVLB  0
03EE:  RCALL  0328
....................       GLCD_COMMAND( 0x80 | 0);   // Set Horizontal Address.  
03F0:  MOVLW  80
03F2:  MOVLB  4
03F4:  MOVWF  x37
03F6:  MOVLB  0
03F8:  RCALL  0328
....................  
....................       for (NGANG=0; NGANG <GLCD_NGANG; NGANG++)  
03FA:  CLRF   1D
03FC:  MOVF   1D,W
03FE:  SUBLW  0F
0400:  BNC   04B2
....................       {  
....................         GLCD_DATA( gdram_vdk.PIXEL[DOC][NGANG].nbyte[1]);   // Write High Byte.  
0402:  MOVLB  4
0404:  CLRF   x37
0406:  MOVFF  1C,436
040A:  CLRF   x39
040C:  MOVLW  20
040E:  MOVWF  x38
0410:  MOVLB  0
0412:  RCALL  03B4
0414:  MOVFF  02,03
0418:  MOVF   01,W
041A:  ADDLW  01
041C:  MOVLB  4
041E:  MOVWF  x36
0420:  MOVLW  00
0422:  ADDWFC 02,W
0424:  MOVWF  x37
0426:  CLRF   03
0428:  MOVFF  1D,02
042C:  BCF    FD8.0
042E:  RLCF   02,F
0430:  RLCF   03,F
0432:  MOVF   02,W
0434:  ADDWF  x36,F
0436:  MOVF   03,W
0438:  ADDWFC x37,F
043A:  MOVLW  01
043C:  ADDWF  x36,W
043E:  MOVWF  01
0440:  MOVLW  00
0442:  ADDWFC x37,W
0444:  MOVWF  03
0446:  MOVF   01,W
0448:  ADDLW  1E
044A:  MOVWF  FE9
044C:  MOVLW  00
044E:  ADDWFC 03,W
0450:  MOVWF  FEA
0452:  MOVFF  FEF,436
0456:  MOVFF  436,439
045A:  MOVLB  0
045C:  RCALL  038A
....................         GLCD_DATA( gdram_vdk.PIXEL[DOC][NGANG].nbyte[0]);   // Write Low Byte.  
045E:  MOVLB  4
0460:  CLRF   x37
0462:  MOVFF  1C,436
0466:  CLRF   x39
0468:  MOVLW  20
046A:  MOVWF  x38
046C:  MOVLB  0
046E:  RCALL  03B4
0470:  MOVFF  02,03
0474:  MOVF   01,W
0476:  ADDLW  01
0478:  MOVLB  4
047A:  MOVWF  x36
047C:  MOVLW  00
047E:  ADDWFC 02,W
0480:  MOVWF  x37
0482:  CLRF   03
0484:  MOVFF  1D,02
0488:  BCF    FD8.0
048A:  RLCF   02,F
048C:  RLCF   03,F
048E:  MOVF   02,W
0490:  ADDWF  x36,F
0492:  MOVF   03,W
0494:  ADDWFC x37,F
0496:  MOVLW  1E
0498:  ADDWF  x36,W
049A:  MOVWF  FE9
049C:  MOVLW  00
049E:  ADDWFC x37,W
04A0:  MOVWF  FEA
04A2:  MOVFF  FEF,438
04A6:  MOVFF  438,439
04AA:  MOVLB  0
04AC:  RCALL  038A
04AE:  INCF   1D,F
04B0:  BRA    03FC
....................       }  
04B2:  INCF   1C,F
04B4:  BRA    03DC
....................     }  
....................     gdram_vdk.refresh = FALSE;  
04B6:  BCF    1E.0
....................   }  
04B8:  RETURN 0
.................... }  
....................  
.................... void GDRAM_VDK_TO_GDRAM_GLCD_AREA (int8 x,int8 y,int8 rong, int8 cao) 
.................... { 
....................   int8 hesox,hesoy;  
....................   if (gdram_vdk.refresh)  
....................   {  
....................       if((x/16)!=(x + rong)/16) 
....................             rong=((rong+15)/16)+1; 
....................       else rong=((rong+15)/16);  
....................        
....................       x = x/16; 
....................       for (DOC = y; DOC <(y+cao); DOC++)  
....................       {  
....................          if(DOC>31) 
....................             {   
....................                hesox = 8+x; 
....................                hesoy = DOC-32; 
....................                } 
....................          else {hesox = x; hesoy = DOC;} 
....................          GLCD_COMMAND( 0x80 |hesoy);    
....................          GLCD_COMMAND( 0x80 |hesox);   
....................        
....................          for (NGANG=hesox; NGANG <(hesox+rong); NGANG++)  
....................          {  
....................             GLCD_DATA( gdram_vdk.PIXEL[hesoy][NGANG].nbyte[1]);   // Write High Byte.  
....................             GLCD_DATA( gdram_vdk.PIXEL[hesoy][NGANG].nbyte[0]);   // Write Low Byte.  
....................          }  
....................        }  
....................     gdram_vdk.refresh = FALSE;  
....................   }       
.................... } 
....................  
....................  
.................... //!const unsigned char Logo_DHSPKTTP []= { 0X00,0X01,0X2E,0X00,0X39,0X00, 
.................... //!0X00,0X00,0X00,0X00,0X00,0X00,0X00,0X00,0X00,0X00,0X00,0X00,0X00,0X00,0X00,0X00, 
.................... //!0X00,0X00,0X00,0X00,0X00,0X00,0X00,0X00,0X00,0X00,0X00,0X00,0X00,0X00,0X00,0X00, 
.................... //!0X00,0X00,0X00,0X00,0X00,0X00,0X00,0X00,0X00,0X00,0X00,0X00,0X02,0X00,0X00,0X00, 
.................... //!0X00,0X00,0X02,0X00,0X00,0X00,0X00,0X00,0X02,0X04,0X00,0X00,0X00,0X01,0X02,0X0C, 
.................... //!0X00,0X00,0X00,0X01,0X82,0X0C,0X00,0X00,0X00,0X00,0X80,0X08,0X00,0X00,0X00,0X00, 
.................... //!0X80,0X00,0X00,0X00,0X00,0X00,0X0F,0X80,0X00,0X00,0X00,0X00,0X3F,0XC0,0X00,0X00, 
.................... //!0X00,0X70,0X70,0X70,0X70,0X00,0X00,0X38,0XC8,0X18,0XE0,0X00,0X00,0X18,0XD8,0X18, 
.................... //!0XC0,0X00,0X00,0X01,0XB0,0X0C,0X00,0X00,0X00,0X01,0XA0,0X0C,0X00,0X00,0X00,0X01, 
.................... //!0X60,0X0C,0X00,0X00,0X00,0X01,0X00,0X04,0X00,0X00,0X00,0X01,0X00,0X04,0X00,0X00, 
.................... //!0X00,0X31,0X00,0X04,0X00,0X00,0X00,0X79,0X80,0X0C,0XF0,0X00,0X00,0X71,0X80,0X0C, 
.................... //!0X70,0X00,0X00,0X01,0X80,0X0C,0X00,0X00,0X00,0X00,0XC0,0X18,0X00,0X00,0X00,0X00, 
.................... //!0XC0,0X18,0X00,0X00,0X00,0X00,0X60,0X30,0X00,0X00,0X00,0X00,0X60,0X30,0X00,0X00, 
.................... //!0X00,0X00,0X20,0X20,0X00,0X00,0X00,0X00,0X30,0X60,0X00,0X00,0X00,0X00,0X30,0X60, 
.................... //!0X00,0X00,0X00,0X00,0X3F,0XE0,0X00,0X00,0X00,0X00,0X3F,0XE0,0X00,0X00,0X00,0X00, 
.................... //!0X3F,0XE0,0X00,0X00,0X00,0X00,0X3F,0XE0,0X00,0X00,0X00,0X00,0X1F,0X80,0X00,0X00, 
.................... //!0X00,0X00,0X3E,0X60,0X00,0X00,0X00,0X00,0X39,0XE0,0X00,0X00,0X00,0X00,0X07,0XE0, 
.................... //!0X00,0X00,0X00,0X00,0X1F,0X80,0X00,0X00,0X00,0X00,0X3E,0X60,0X00,0X00,0X00,0X00, 
.................... //!0X3D,0XE0,0X00,0X00,0X00,0X00,0X3F,0XE0,0X00,0X00,0X00,0X00,0X1F,0XC0,0X00,0X00, 
.................... //!0X00,0X00,0X0F,0X80,0X00,0X00,0X00,0X00,0X02,0X00,0X00,0X00,0X00,0X00,0X00,0X00, 
.................... //!0X00,0X00,0X00,0X00,0X00,0X00,0X00,0X00,0X00,0X00,0X00,0X00,0X00,0X00,0X00,0X00, 
.................... //!0X00,0X00,0X00,0X00,0X00,0X00,0X00,0X00,0X00,0X00,0X00,0X00,0X00,0X00,0X00,0X00, 
.................... //!0X00,0X00,0X00,0X00,0X00,0X00,}; 
.................... //! 
.................... const unsigned char Logo_DHSPKTTP [] = { 
.................... 0x00, 0x00, 0x00, 0x00, 0x00, 0x00, 0x00, 0x00, 0x00, 0x00, 0x00, 0x00, 0x00, 0x00, 0x00, 0x00, 
.................... 0x00, 0x00, 0x00, 0x00, 0x00, 0x00, 0x00, 0x00, 0x00, 0x00, 0x00, 0x01, 0x80, 0x00, 0x00, 0x00, 
.................... 0x00, 0x00, 0x00, 0x01, 0x80, 0x00, 0x00, 0x00, 0x00, 0x00, 0x00, 0x01, 0x80, 0x00, 0x00, 0x00, 
.................... 0x00, 0x00, 0x00, 0x07, 0xE0, 0x00, 0x00, 0x00, 0x00, 0x00, 0x00, 0x07, 0xA0, 0x00, 0x00, 0x00, 
.................... 0x00, 0x00, 0x00, 0x03, 0x20, 0x00, 0x00, 0x00, 0x00, 0x00, 0x00, 0x03, 0x20, 0x00, 0x00, 0x00, 
.................... 0x00, 0x00, 0x00, 0x02, 0x20, 0x00, 0x00, 0x00, 0x00, 0x00, 0x00, 0x02, 0x30, 0x00, 0x00, 0x00, 
.................... 0x00, 0x00, 0x00, 0x02, 0x30, 0x00, 0x00, 0x00, 0x00, 0x7F, 0x00, 0x00, 0x30, 0x00, 0x7E, 0x00, 
.................... 0x00, 0xFE, 0x00, 0x07, 0xE0, 0x00, 0x3F, 0x00, 0x01, 0xF8, 0x00, 0x03, 0xE0, 0x00, 0x1F, 0x80, 
.................... 0x03, 0xF0, 0x00, 0x01, 0xC0, 0x00, 0x0F, 0xC0, 0x03, 0xE0, 0x00, 0x01, 0xC0, 0x00, 0x07, 0xE0, 
.................... 0x07, 0xC0, 0x00, 0x03, 0xC0, 0x00, 0x03, 0xF0, 0x0F, 0xC0, 0x00, 0x17, 0xF4, 0x00, 0x01, 0xF0, 
.................... 0x0F, 0x80, 0x00, 0x1D, 0x98, 0x00, 0x00, 0xF8, 0x1F, 0x00, 0x00, 0x11, 0x8C, 0x00, 0x00, 0xF8, 
.................... 0x1F, 0x01, 0x00, 0x31, 0x84, 0x00, 0x80, 0x7C, 0x3E, 0x06, 0x00, 0x31, 0x86, 0x00, 0x20, 0x7C, 
.................... 0x3E, 0x18, 0x00, 0x71, 0x86, 0x00, 0x1C, 0x3E, 0x3C, 0x43, 0x00, 0x31, 0x84, 0x00, 0xC3, 0x3E, 
.................... 0x7C, 0x0C, 0x00, 0x11, 0x8C, 0x00, 0x38, 0x1E, 0x7C, 0x31, 0x00, 0x1D, 0x98, 0x00, 0x86, 0x1F, 
.................... 0x78, 0xC6, 0x00, 0x1F, 0xFC, 0x00, 0x63, 0x1F, 0x78, 0x18, 0x00, 0x03, 0xC0, 0x00, 0x0C, 0x1F, 
.................... 0xF8, 0x63, 0x80, 0x01, 0x80, 0x00, 0xC7, 0x0F, 0xF9, 0x8E, 0x00, 0x00, 0x00, 0x00, 0x38, 0x8F, 
.................... 0xF8, 0x38, 0x80, 0x00, 0x00, 0x01, 0x0C, 0x0F, 0xF8, 0xC3, 0x80, 0x00, 0x00, 0x00, 0xE3, 0x8F, 
.................... 0xF9, 0x8E, 0x00, 0x00, 0x00, 0x00, 0x30, 0xCF, 0xF8, 0x38, 0xF8, 0x00, 0x00, 0x1F, 0x9E, 0x0F, 
.................... 0xF8, 0xE3, 0xFE, 0x00, 0x00, 0x7F, 0xE3, 0x8F, 0xF9, 0x9F, 0xFF, 0xC0, 0x03, 0xFF, 0xF9, 0xCF, 
.................... 0x78, 0xFF, 0xFF, 0xE0, 0x07, 0xFF, 0xFF, 0x0F, 0x78, 0x1F, 0xFF, 0xE0, 0x07, 0xFF, 0xFC, 0x1F, 
.................... 0x7C, 0x07, 0xFF, 0xE0, 0x07, 0xFF, 0xE0, 0x1F, 0x7C, 0x00, 0xFF, 0xE0, 0x07, 0xFF, 0x80, 0x1E, 
.................... 0x7C, 0x00, 0x1F, 0xE0, 0x07, 0xFC, 0x00, 0x3E, 0x3E, 0x01, 0xCF, 0xE0, 0x07, 0xF3, 0x80, 0x3E, 
.................... 0x3E, 0x01, 0xFF, 0xE0, 0x03, 0xFF, 0x80, 0x7C, 0x1F, 0x01, 0xFF, 0xE0, 0x03, 0xFF, 0xC0, 0x7C, 
.................... 0x1F, 0x01, 0xFF, 0xC0, 0x03, 0xFF, 0xC0, 0xF8, 0x0F, 0x83, 0xFF, 0xC0, 0x01, 0xFF, 0xC0, 0xF8, 
.................... 0x0F, 0x83, 0xFF, 0xC0, 0x01, 0xFF, 0xC1, 0xF0, 0x07, 0xC3, 0xFF, 0x80, 0x01, 0xFF, 0xE3, 0xF0, 
.................... 0x03, 0xE3, 0xFF, 0x80, 0x01, 0xFF, 0xE7, 0xE0, 0x03, 0xF7, 0xFF, 0x80, 0x00, 0xFF, 0xEF, 0xC0, 
.................... 0x01, 0xFF, 0xFF, 0x80, 0x00, 0xFF, 0xFF, 0x80, 0x00, 0xFF, 0xFF, 0x00, 0x00, 0xFF, 0xFF, 0x80, 
.................... 0x00, 0x7F, 0xFF, 0x00, 0x00, 0xFF, 0xFF, 0x00, 0x00, 0x3F, 0xFF, 0x00, 0x00, 0xFF, 0xFE, 0x00, 
.................... 0x00, 0x1F, 0xFF, 0x00, 0x00, 0x7F, 0xF8, 0x00, 0x00, 0x0F, 0xFE, 0x00, 0x00, 0x7F, 0xF0, 0x00, 
.................... 0x00, 0x03, 0xFF, 0x00, 0x00, 0x7F, 0xE0, 0x00, 0x00, 0x00, 0xFF, 0xFC, 0x1F, 0xFF, 0x80, 0x00, 
.................... 0x00, 0x00, 0x7F, 0xFF, 0xFF, 0xFE, 0x00, 0x00, 0x00, 0x00, 0x0F, 0xFF, 0xFF, 0xF8, 0x00, 0x00, 
.................... 0x00, 0x00, 0x01, 0xFF, 0xFF, 0xC0, 0x00, 0x00, 0x00, 0x00, 0x00, 0x0F, 0xF0, 0x00, 0x00, 0x00 
.................... }; 
....................  
....................  
.................... void GLCD_XUAT_ANH(int width,int height,int x,int y)  
.................... {  
....................    unsigned int i=0, j=0, k=0;  
....................    unsigned int16 count=0;  
....................    for(j=0;j<height;j++)  
....................       {     
....................          for(;i<width;)  
....................          {  
....................             for(k=8;k>0;k--) 
....................             { 
....................                glcd_pixel(i+x,j+y,bit_test(Logo_DHSPKTTP[count],(k-1)));  
....................                i++;  
....................             }  
....................             count++;  
....................          }  
....................       i=0;  
....................       }  
.................... }  
....................  
.................... #include <tv_pickit2_shift_key4x4_138.c> 
.................... CONST UNSIGNED CHAR MAQUETKEY[4]= {0x3F,0x7F,0xBF,0xFF}; 
.................... UNSIGNED INT8  MPT1=0,MPT2=0;   
.................... UNSIGNED INT KEY_NHAN() 
.................... {     SIGNED INT8 MAPHIM,HANG,COT; 
....................       MAPHIM=HANG=0XFF; 
....................       FOR(COT=0;COT<4;COT++) 
....................             {    
....................                OUTPUT_B(MAQUETKEY[COT]); 
....................                IF         (!INPUT(PIN_B2))      {HANG=3;   BREAK;} 
....................                ELSE    IF (!INPUT(PIN_B3))      {HANG=2;   BREAK;} 
....................                ELSE    IF (!INPUT(PIN_B4))      {HANG=1;   BREAK;}                   
....................                ELSE    IF (!INPUT(PIN_B5))      {HANG=0;   BREAK;} 
....................             }           
....................          IF (HANG!=0XFF)   MAPHIM   = COT*4 + HANG; 
....................          RETURN(MAPHIM); 
.................... } 
.................... UNSIGNED INT KEY_4X4_DW() 
.................... {      
....................       MPT1=KEY_NHAN();          
....................       IF (MPT1!=0XFF)    
....................       {  DELAY_MS(1);   
....................          MPT1=KEY_NHAN(); 
....................          DO{MPT2=KEY_NHAN();} 
....................          WHILE (MPT2==MPT1); 
....................       }              
....................       RETURN(MPT1); 
.................... } 
....................  
.................... UNSIGNED INT KEY_4X4_UP() 
.................... {             
....................       MPT1=KEY_NHAN(); 
....................       IF (MPT1!=0XFF)    
....................       {   
....................          IF (MPT1!=MPT2) 
....................             { 
....................                RETURN(MPT1);  //PHIM MOI 
....................                MPT2=MPT1; 
....................             } 
....................          ELSE 
....................          { 
....................             DELAY_MS(1); 
....................             MPT1=KEY_NHAN(); 
....................             DO 
....................             { 
....................                MPT2=KEY_NHAN(); 
....................                } 
....................             WHILE (MPT2!=MPT1); 
....................                RETURN(MPT1);     //THOAT VI TRUNG MA PHIM DA NHAN 
....................                MPT2=MPT1;            
....................          } 
....................       }   
....................       ELSE  
....................       { 
....................          RETURN(MPT1);  //THOAT VI KHONG NHAN 
....................          MPT2=MPT1; 
....................       }       
.................... } 
....................  
....................  
....................  
.................... #DEFINE  START      BT0    //DK LED DON 
.................... #DEFINE  PAUSE      BT1 
.................... #DEFINE  DAOCHIEU     BT2 
.................... #DEFINE  DAO     BT3 
.................... //!#DEFINE  CDO     BT3 
....................  
.................... UNSIGNED INT16 T0,T0_TAM; 
....................  
.................... UNSIGNED INT8 DV_SEG, CH_SEG, TR_SEG; 
.................... UNSIGNED INT8 DV_LCD, CH_LCD, TR_LCD; 
.................... UNSIGNED INT8 DV_GLCD, CH_GLCD, TR_GLCD; 
.................... UNSIGNED INT8 DV_LCDBig, CH_LCDBig, TR_LCDBig; 
.................... unsigned INT i, mode=0; 
.................... unsigned INT8 mp; 
.................... int1 TT_DC; 
.................... int1 Dao_HienThi=1; 
.................... unsigned int8 sp; 
....................  
.................... // Hien thi 4 LED7 
.................... VOID GIAI_MA_HIEN_THI () 
.................... { 
....................    DV_SEG = MA7DOAN[T0 % 10]; 
*
05DC:  MOVFF  422,439
05E0:  MOVFF  421,438
05E4:  MOVLB  4
05E6:  CLRF   x3B
05E8:  MOVLW  0A
05EA:  MOVWF  x3A
05EC:  MOVLB  0
05EE:  RCALL  04BA
05F0:  MOVFF  00,436
05F4:  MOVLB  4
05F6:  MOVFF  03,437
05FA:  MOVFF  03,03
05FE:  MOVF   00,W
0600:  MOVFF  FF2,438
0604:  BCF    FF2.7
0606:  MOVLB  0
0608:  RCALL  0004
060A:  MOVLB  4
060C:  BTFSC  x38.7
060E:  BSF    FF2.7
0610:  MOVWF  x25
....................    CH_SEG = MA7DOAN[T0 / 10 % 10]; 
0612:  MOVFF  422,439
0616:  MOVFF  421,438
061A:  CLRF   x3B
061C:  MOVLW  0A
061E:  MOVWF  x3A
0620:  MOVLB  0
0622:  RCALL  04BA
0624:  MOVFF  02,437
0628:  MOVFF  01,436
062C:  MOVFF  02,439
0630:  MOVFF  01,438
0634:  MOVLB  4
0636:  CLRF   x3B
0638:  MOVLW  0A
063A:  MOVWF  x3A
063C:  MOVLB  0
063E:  RCALL  04BA
0640:  MOVFF  00,436
0644:  MOVLB  4
0646:  MOVFF  03,437
064A:  MOVFF  03,03
064E:  MOVF   00,W
0650:  MOVFF  FF2,438
0654:  BCF    FF2.7
0656:  MOVLB  0
0658:  RCALL  0004
065A:  MOVLB  4
065C:  BTFSC  x38.7
065E:  BSF    FF2.7
0660:  MOVWF  x26
....................    IF (CH_SEG == 0XC0) CH_SEG = 0XFF; // 0xC0 chinh la so hex cua so 0 led 7 doan 
0662:  MOVF   x26,W
0664:  SUBLW  C0
0666:  BNZ   066A
0668:  SETF   x26
....................     
....................    IF (Dao_HienThi == 0) 
066A:  BTFSC  x34.1
066C:  BRA    068A
....................       XUAT_4LED_7DOAN_4SO (CH_SEG, DV_SEG&0x7f, 0x92, 0x8c); 
066E:  MOVF   x25,W
0670:  ANDLW  7F
0672:  MOVWF  x36
0674:  MOVFF  426,437
0678:  MOVWF  x38
067A:  MOVLW  92
067C:  MOVWF  x39
067E:  MOVLW  8C
0680:  MOVWF  x3A
0682:  MOVLB  0
0684:  RCALL  05B2
0686:  BRA    069E
0688:  MOVLB  4
....................    ELSE 
....................       XUAT_4LED_7DOAN_4SO (0x92, 0x8c&0x7f, CH_SEG, DV_SEG); 
068A:  MOVLW  92
068C:  MOVWF  x37
068E:  MOVLW  0C
0690:  MOVWF  x38
0692:  MOVFF  426,439
0696:  MOVFF  425,43A
069A:  MOVLB  0
069C:  RCALL  05B2
069E:  RETURN 0
.................... } 
....................  
.................... // Hien thi Led quet 
.................... VOID GIAI_MA_GAN_CHO_8LED_QUET() 
.................... { 
....................    LED_7DQ[5] = MA7DOAN [T0 / 10 % 10]; 
*
08B0:  MOVFF  422,439
08B4:  MOVFF  421,438
08B8:  MOVLB  4
08BA:  CLRF   x3B
08BC:  MOVLW  0A
08BE:  MOVWF  x3A
08C0:  MOVLB  0
08C2:  RCALL  04BA
08C4:  MOVFF  02,437
08C8:  MOVFF  01,436
08CC:  MOVFF  02,439
08D0:  MOVFF  01,438
08D4:  MOVLB  4
08D6:  CLRF   x3B
08D8:  MOVLW  0A
08DA:  MOVWF  x3A
08DC:  MOVLB  0
08DE:  RCALL  04BA
08E0:  MOVFF  00,436
08E4:  MOVLB  4
08E6:  MOVFF  03,437
08EA:  MOVFF  03,03
08EE:  MOVF   00,W
08F0:  MOVFF  FF2,438
08F4:  BCF    FF2.7
08F6:  MOVLB  0
08F8:  CALL   0004
08FC:  MOVLB  4
08FE:  BTFSC  x38.7
0900:  BSF    FF2.7
0902:  MOVWF  16
....................    LED_7DQ[4] = MA7DOAN [T0 % 10]&0x7f; 
0904:  MOVFF  422,439
0908:  MOVFF  421,438
090C:  CLRF   x3B
090E:  MOVLW  0A
0910:  MOVWF  x3A
0912:  MOVLB  0
0914:  RCALL  04BA
0916:  MOVFF  00,436
091A:  MOVLB  4
091C:  MOVFF  03,437
0920:  MOVFF  03,03
0924:  MOVF   00,W
0926:  MOVFF  FF2,438
092A:  BCF    FF2.7
092C:  MOVLB  0
092E:  CALL   0004
0932:  MOVLB  4
0934:  BTFSC  x38.7
0936:  BSF    FF2.7
0938:  ANDLW  7F
093A:  MOVWF  15
....................    LED_7DQ[3] = 0x92; 
093C:  MOVLW  92
093E:  MOVWF  14
....................    LED_7DQ[2] = 0x8c; 
0940:  MOVLW  8C
0942:  MOVWF  13
....................    IF (T0 == 0) LED_7DQ[5] = 0xff; 
0944:  MOVF   x21,F
0946:  BNZ   094E
0948:  MOVF   x22,F
094A:  BNZ   094E
094C:  SETF   16
094E:  MOVLB  0
0950:  RETURN 0
....................  
....................    // LED_7DQ [2...7] = 0xFF 
.................... } 
....................  
.................... // Hien thi LCD so nho 
.................... VOID HIENTHI_LCD() 
.................... { 
....................     
....................    DELAY_US (20); 
*
0500:  MOVLW  20
0502:  MOVWF  00
0504:  DECFSZ 00,F
0506:  BRA    0504
0508:  BRA    050A
050A:  NOP   
....................     
....................    CH_LCD = (T0 / 10 % 10) + 0x30; 
050C:  MOVFF  422,439
0510:  MOVFF  421,438
0514:  MOVLB  4
0516:  CLRF   x3B
0518:  MOVLW  0A
051A:  MOVWF  x3A
051C:  MOVLB  0
051E:  RCALL  04BA
0520:  MOVFF  02,437
0524:  MOVFF  01,436
0528:  MOVFF  02,439
052C:  MOVFF  01,438
0530:  MOVLB  4
0532:  CLRF   x3B
0534:  MOVLW  0A
0536:  MOVWF  x3A
0538:  MOVLB  0
053A:  RCALL  04BA
053C:  MOVLB  4
053E:  MOVLW  30
0540:  ADDWF  00,W
0542:  MOVWF  x29
....................    DV_LCD = T0 % 10 + 0x30; 
0544:  MOVFF  422,439
0548:  MOVFF  421,438
054C:  CLRF   x3B
054E:  MOVLW  0A
0550:  MOVWF  x3A
0552:  MOVLB  0
0554:  RCALL  04BA
0556:  MOVLB  4
0558:  MOVLW  30
055A:  ADDWF  00,W
055C:  MOVWF  x28
....................     
....................    IF (CH_LCD == 0x30) 
055E:  MOVF   x29,W
0560:  SUBLW  30
0562:  BNZ   0568
....................    { 
....................       CH_LCD = " "; 
0564:  MOVLW  20
0566:  MOVWF  x29
....................    } 
....................  
....................    IF (Dao_HienThi == 0) 
0568:  BTFSC  x34.1
056A:  BRA    0590
....................    { 
....................       LCD_GOTO_XY (0, 15) ; 
056C:  CLRF   x3A
056E:  MOVLW  0F
0570:  MOVWF  x3B
0572:  MOVLB  0
0574:  RCALL  02A2
....................       LCD_DATA (CH_LCD); 
0576:  MOVFF  429,43A
057A:  RCALL  02C4
....................       LCD_DATA (DV_LCD); 
057C:  MOVFF  428,43A
0580:  RCALL  02C4
....................       LCD_DATA (" SP"); 
0582:  MOVLW  F8
0584:  MOVWF  FF6
0586:  MOVLW  00
0588:  MOVWF  FF7
058A:  RCALL  02DA
....................    } 
058C:  BRA    05B0
058E:  MOVLB  4
....................  
....................    ELSE 
....................    { 
....................       LCD_GOTO_XY (0, 15) ; 
0590:  CLRF   x3A
0592:  MOVLW  0F
0594:  MOVWF  x3B
0596:  MOVLB  0
0598:  RCALL  02A2
....................       LCD_DATA (" SP"); 
059A:  MOVLW  FC
059C:  MOVWF  FF6
059E:  MOVLW  00
05A0:  MOVWF  FF7
05A2:  RCALL  02DA
....................       LCD_DATA (CH_LCD); 
05A4:  MOVFF  429,43A
05A8:  RCALL  02C4
....................       LCD_DATA (DV_LCD); 
05AA:  MOVFF  428,43A
05AE:  RCALL  02C4
....................    } 
05B0:  RETURN 0
.................... } 
....................  
.................... //Hien thi LCD so lon 
.................... VOID LCD_HIENTHI_SO_Z_TOADO_XY (SIGNED INT8 LCD_SO, SIGNED INT8 X1, SIGNED INT8 Y1) 
.................... { 
....................    LCD_GOTO_XY (X1, Y1) ; 
*
06F0:  MOVFF  437,43A
06F4:  MOVFF  438,43B
06F8:  RCALL  02A2
....................    FOR (I = 0; I < 6; I++) 
06FA:  MOVLB  4
06FC:  CLRF   x31
06FE:  MOVF   x31,W
0700:  SUBLW  05
0702:  BNC   075C
....................    { 
....................       IF (I == 3) LCD_GOTO_XY (X1 + 1, Y1); 
0704:  MOVF   x31,W
0706:  SUBLW  03
0708:  BNZ   071C
070A:  MOVLW  01
070C:  ADDWF  x37,W
070E:  MOVWF  x39
0710:  MOVWF  x3A
0712:  MOVFF  438,43B
0716:  MOVLB  0
0718:  RCALL  02A2
071A:  MOVLB  4
....................       LCD_DATA (LCD_SO_X[LCD_SO][I]); 
071C:  MOVFF  436,439
0720:  MOVLW  06
0722:  MOVWF  x3A
0724:  MOVLB  0
0726:  BRA    06A0
0728:  MOVF   01,W
072A:  MOVLB  4
072C:  CLRF   x3A
072E:  MOVWF  x39
0730:  CLRF   03
0732:  MOVF   x31,W
0734:  ADDWF  x39,W
0736:  MOVWF  01
0738:  MOVF   x3A,W
073A:  ADDWFC 03,F
073C:  MOVF   01,W
073E:  MOVFF  FF2,439
0742:  BCF    FF2.7
0744:  MOVLB  0
0746:  RCALL  003C
0748:  MOVLB  4
074A:  BTFSC  x39.7
074C:  BSF    FF2.7
074E:  MOVWF  x39
0750:  MOVWF  x3A
0752:  MOVLB  0
0754:  RCALL  02C4
0756:  MOVLB  4
0758:  INCF   x31,F
075A:  BRA    06FE
....................    } 
075C:  MOVLB  0
075E:  RETURN 0
.................... } 
....................  
.................... VOID HIENTHI_LCD_KichThuocLon() 
.................... { 
....................    CH_LCDBig = T0 / 10 % 10; 
0760:  MOVFF  422,439
0764:  MOVFF  421,438
0768:  MOVLB  4
076A:  CLRF   x3B
076C:  MOVLW  0A
076E:  MOVWF  x3A
0770:  MOVLB  0
0772:  RCALL  04BA
0774:  MOVFF  02,437
0778:  MOVFF  01,436
077C:  MOVFF  02,439
0780:  MOVFF  01,438
0784:  MOVLB  4
0786:  CLRF   x3B
0788:  MOVLW  0A
078A:  MOVWF  x3A
078C:  MOVLB  0
078E:  RCALL  04BA
0790:  MOVFF  00,42F
0794:  MOVLB  4
....................    DV_LCDBig = T0 % 10; 
0796:  MOVFF  422,439
079A:  MOVFF  421,438
079E:  CLRF   x3B
07A0:  MOVLW  0A
07A2:  MOVWF  x3A
07A4:  MOVLB  0
07A6:  RCALL  04BA
07A8:  MOVFF  00,42E
07AC:  MOVLB  4
....................     
....................    IF (CH_LCDBig == 0) CH_LCDBig = 10; 
07AE:  MOVF   x2F,F
07B0:  BNZ   07B6
07B2:  MOVLW  0A
07B4:  MOVWF  x2F
....................    LCD_COMMAND (0x40); 
07B6:  MOVLW  40
07B8:  MOVWF  x3D
07BA:  MOVLB  0
07BC:  RCALL  0208
....................    DELAY_US (20); 
07BE:  MOVLW  20
07C0:  MOVWF  00
07C2:  DECFSZ 00,F
07C4:  BRA    07C2
07C6:  BRA    07C8
07C8:  NOP   
....................    FOR (I = 0; I < 64; I++) 
07CA:  MOVLB  4
07CC:  CLRF   x31
07CE:  MOVF   x31,W
07D0:  SUBLW  3F
07D2:  BNC   07F6
....................    { LCD_DATA (LCD_MA_8DOAN[I]); } 
07D4:  CLRF   03
07D6:  MOVF   x31,W
07D8:  MOVFF  FF2,436
07DC:  BCF    FF2.7
07DE:  MOVLB  0
07E0:  RCALL  0094
07E2:  MOVLB  4
07E4:  BTFSC  x36.7
07E6:  BSF    FF2.7
07E8:  MOVWF  x36
07EA:  MOVWF  x3A
07EC:  MOVLB  0
07EE:  RCALL  02C4
07F0:  MOVLB  4
07F2:  INCF   x31,F
07F4:  BRA    07CE
....................    IF (Dao_HienThi == 0) 
07F6:  BTFSC  x34.1
07F8:  BRA    0856
....................    { 
....................       lcd_hienthi_so_z_toado_xy (CH_LCDBig, 2, 3) ; 
07FA:  MOVFF  42F,436
07FE:  MOVLW  02
0800:  MOVWF  x37
0802:  MOVLW  03
0804:  MOVWF  x38
0806:  MOVLB  0
0808:  RCALL  06F0
....................       lcd_hienthi_so_z_toado_xy (DV_LCDBig, 2, 6) ; 
080A:  MOVFF  42E,436
080E:  MOVLW  02
0810:  MOVLB  4
0812:  MOVWF  x37
0814:  MOVLW  06
0816:  MOVWF  x38
0818:  MOVLB  0
081A:  RCALL  06F0
....................       lcd_hienthi_so_z_toado_xy (10, 2, 9) ; 
081C:  MOVLW  0A
081E:  MOVLB  4
0820:  MOVWF  x36
0822:  MOVLW  02
0824:  MOVWF  x37
0826:  MOVLW  09
0828:  MOVWF  x38
082A:  MOVLB  0
082C:  RCALL  06F0
....................       lcd_hienthi_so_z_toado_xy (5, 2, 12) ; 
082E:  MOVLW  05
0830:  MOVLB  4
0832:  MOVWF  x36
0834:  MOVLW  02
0836:  MOVWF  x37
0838:  MOVLW  0C
083A:  MOVWF  x38
083C:  MOVLB  0
083E:  RCALL  06F0
....................       lcd_hienthi_so_z_toado_xy (11, 2, 15) ; 
0840:  MOVLW  0B
0842:  MOVLB  4
0844:  MOVWF  x36
0846:  MOVLW  02
0848:  MOVWF  x37
084A:  MOVLW  0F
084C:  MOVWF  x38
084E:  MOVLB  0
0850:  RCALL  06F0
....................    } 
0852:  BRA    08AE
0854:  MOVLB  4
....................  
....................    ELSE 
....................    { 
....................       lcd_hienthi_so_z_toado_xy (5, 2, 12) ; 
0856:  MOVLW  05
0858:  MOVWF  x36
085A:  MOVLW  02
085C:  MOVWF  x37
085E:  MOVLW  0C
0860:  MOVWF  x38
0862:  MOVLB  0
0864:  RCALL  06F0
....................       lcd_hienthi_so_z_toado_xy (11, 2, 15) ; 
0866:  MOVLW  0B
0868:  MOVLB  4
086A:  MOVWF  x36
086C:  MOVLW  02
086E:  MOVWF  x37
0870:  MOVLW  0F
0872:  MOVWF  x38
0874:  MOVLB  0
0876:  RCALL  06F0
....................       lcd_hienthi_so_z_toado_xy (10, 2, 9) ; 
0878:  MOVLW  0A
087A:  MOVLB  4
087C:  MOVWF  x36
087E:  MOVLW  02
0880:  MOVWF  x37
0882:  MOVLW  09
0884:  MOVWF  x38
0886:  MOVLB  0
0888:  RCALL  06F0
....................       lcd_hienthi_so_z_toado_xy (CH_LCDBig, 2, 3) ; 
088A:  MOVFF  42F,436
088E:  MOVLW  02
0890:  MOVLB  4
0892:  MOVWF  x37
0894:  MOVLW  03
0896:  MOVWF  x38
0898:  MOVLB  0
089A:  RCALL  06F0
....................       lcd_hienthi_so_z_toado_xy (DV_LCDBig, 2, 6) ; 
089C:  MOVFF  42E,436
08A0:  MOVLW  02
08A2:  MOVLB  4
08A4:  MOVWF  x37
08A6:  MOVLW  06
08A8:  MOVWF  x38
08AA:  MOVLB  0
08AC:  RCALL  06F0
....................    } 
08AE:  RETURN 0
.................... } 
....................  
.................... // Hien thi GLCD 
.................... VOID HIENTHI_GLCD_T0() 
.................... { 
....................    GLCD_COMMAND (GLCD_ADDR_LINE2); 
*
0952:  MOVLW  90
0954:  MOVLB  4
0956:  MOVWF  x37
0958:  MOVLB  0
095A:  RCALL  0328
....................    DELAY_US (20); 
095C:  MOVLW  20
095E:  MOVWF  00
0960:  DECFSZ 00,F
0962:  BRA    0960
0964:  BRA    0966
0966:  NOP   
....................     
....................    CH_GLCD = (T0 / 10 % 10) + 0x30; 
0968:  MOVFF  422,439
096C:  MOVFF  421,438
0970:  MOVLB  4
0972:  CLRF   x3B
0974:  MOVLW  0A
0976:  MOVWF  x3A
0978:  MOVLB  0
097A:  RCALL  04BA
097C:  MOVFF  02,437
0980:  MOVFF  01,436
0984:  MOVFF  02,439
0988:  MOVFF  01,438
098C:  MOVLB  4
098E:  CLRF   x3B
0990:  MOVLW  0A
0992:  MOVWF  x3A
0994:  MOVLB  0
0996:  RCALL  04BA
0998:  MOVLB  4
099A:  MOVLW  30
099C:  ADDWF  00,W
099E:  MOVWF  x2C
....................    DV_GLCD = T0 % 10 + 0x30; 
09A0:  MOVFF  422,439
09A4:  MOVFF  421,438
09A8:  CLRF   x3B
09AA:  MOVLW  0A
09AC:  MOVWF  x3A
09AE:  MOVLB  0
09B0:  RCALL  04BA
09B2:  MOVLB  4
09B4:  MOVLW  30
09B6:  ADDWF  00,W
09B8:  MOVWF  x2B
....................     
....................     
....................     
....................    IF (CH_GLCD == 0x30) 
09BA:  MOVF   x2C,W
09BC:  SUBLW  30
09BE:  BNZ   09C4
....................    { 
....................       CH_GLCD = " "; 
09C0:  MOVLW  20
09C2:  MOVWF  x2C
....................    } 
....................  
....................     
....................    IF (Dao_HienThi == 0) 
09C4:  BTFSC  x34.1
09C6:  BRA    09E4
....................    { 
....................       GLCD_DATA (CH_GLCD); 
09C8:  MOVFF  42C,439
09CC:  MOVLB  0
09CE:  RCALL  038A
....................       GLCD_DATA (DV_GLCD); 
09D0:  MOVFF  42B,439
09D4:  RCALL  038A
....................       GLCD_DATA (" SP"); 
09D6:  MOVLW  00
09D8:  MOVWF  FF6
09DA:  MOVLW  01
09DC:  MOVWF  FF7
09DE:  RCALL  0394
....................    } 
09E0:  BRA    09FC
09E2:  MOVLB  4
....................  
....................    ELSE 
....................    { 
....................       GLCD_DATA (" SP"); 
09E4:  MOVLW  04
09E6:  MOVWF  FF6
09E8:  MOVLW  01
09EA:  MOVWF  FF7
09EC:  MOVLB  0
09EE:  RCALL  0394
....................       GLCD_DATA (CH_GLCD); 
09F0:  MOVFF  42C,439
09F4:  RCALL  038A
....................       GLCD_DATA (DV_GLCD); 
09F6:  MOVFF  42B,439
09FA:  RCALL  038A
....................    } 
....................  
....................    GDRAM_VDK_TO_GDRAM_GLCD_ALL(); 
09FC:  RCALL  03D6
09FE:  RETURN 0
.................... } 
....................  
.................... // Chong doi nut nhan 
.................... int1 CDNN(INT1 pin) 
.................... { 
....................    IF (!input (pin)) 
*
0B80:  MOVFF  436,437
0B84:  MOVLW  01
0B86:  MOVLB  4
0B88:  MOVWF  x38
0B8A:  MOVLW  0F
0B8C:  MOVWF  x3A
0B8E:  MOVLW  92
0B90:  MOVWF  x39
0B92:  MOVLB  0
0B94:  RCALL  0A00
0B96:  MOVFF  436,437
0B9A:  MOVLW  0F
0B9C:  MOVLB  4
0B9E:  MOVWF  x39
0BA0:  MOVLW  80
0BA2:  MOVWF  x38
0BA4:  MOVLB  0
0BA6:  RCALL  0A42
0BA8:  BTFSC  01.0
0BAA:  BRA    0C1A
....................    { 
....................       delay_ms (20); 
0BAC:  MOVLW  14
0BAE:  MOVLB  4
0BB0:  MOVWF  x37
0BB2:  MOVLB  0
0BB4:  CALL   021E
....................  
....................       IF ( ! input (pin) ) 
0BB8:  MOVFF  436,437
0BBC:  MOVLW  01
0BBE:  MOVLB  4
0BC0:  MOVWF  x38
0BC2:  MOVLW  0F
0BC4:  MOVWF  x3A
0BC6:  MOVLW  92
0BC8:  MOVWF  x39
0BCA:  MOVLB  0
0BCC:  RCALL  0A00
0BCE:  MOVFF  436,437
0BD2:  MOVLW  0F
0BD4:  MOVLB  4
0BD6:  MOVWF  x39
0BD8:  MOVLW  80
0BDA:  MOVWF  x38
0BDC:  MOVLB  0
0BDE:  RCALL  0A42
0BE0:  BTFSC  01.0
0BE2:  BRA    0C1A
....................       { 
....................          WHILE ( ! input (pin))  
0BE4:  MOVFF  436,437
0BE8:  MOVLW  01
0BEA:  MOVLB  4
0BEC:  MOVWF  x38
0BEE:  MOVLW  0F
0BF0:  MOVWF  x3A
0BF2:  MOVLW  92
0BF4:  MOVWF  x39
0BF6:  MOVLB  0
0BF8:  RCALL  0A00
0BFA:  MOVFF  436,437
0BFE:  MOVLW  0F
0C00:  MOVLB  4
0C02:  MOVWF  x39
0C04:  MOVLW  80
0C06:  MOVWF  x38
0C08:  MOVLB  0
0C0A:  RCALL  0A42
0C0C:  BTFSC  01.0
0C0E:  BRA    0C14
....................          {HIEN_THI_8LED_7DOAN_QUET ();} 
0C10:  RCALL  0B36
0C12:  BRA    0BE4
....................          RETURN 1; 
0C14:  MOVLW  01
0C16:  MOVWF  01
0C18:  BRA    0C1E
....................       } 
....................    } 
....................    RETURN 0; 
0C1A:  MOVLW  00
0C1C:  MOVWF  01
0C1E:  RETURN 0
.................... } 
....................  
.................... VOID KT_DAO() 
.................... { 
....................    IF(!INPUT(BT3)) 
....................    { 
....................       DELAY_MS(20); 
....................       IF(!INPUT(BT3)) 
....................       { 
....................          DAO_HIENTHI = ~DAO_HIENTHI; 
....................          GIAI_MA_HIEN_THI (); 
....................           
....................          WHILE(!INPUT(BT3)) { HIEN_THI_8LED_7DOAN_QUET(); } 
....................       } 
....................    } 
.................... } 
....................  
.................... // COUNTER DEM LEN DEM XUONG 
.................... void dem_xuong() 
.................... { 
.................... //!   t0 = get_timer0 (); 
....................  
....................    IF (t0 == 1) 
*
0C40:  MOVLB  4
0C42:  DECFSZ x21,W
0C44:  BRA    0C58
0C46:  MOVF   x22,F
0C48:  BNZ   0C58
....................    { 
....................       set_timer0 (0); 
0C4A:  CLRF   FD7
0C4C:  CLRF   FD6
....................       sp--; 
0C4E:  DECF   x35,F
....................       IF (sp == 0) sp = 99; 
0C50:  MOVF   x35,F
0C52:  BNZ   0C58
0C54:  MOVLW  63
0C56:  MOVWF  x35
....................    } 
0C58:  MOVLB  0
0C5A:  GOTO   0E10 (RETURN)
.................... } 
....................  
.................... void dem_len() 
.................... { 
.................... //!   t0 = get_timer0 (); 
....................  
....................    IF (t0 == 1) 
*
0C20:  MOVLB  4
0C22:  DECFSZ x21,W
0C24:  BRA    0C3A
0C26:  MOVF   x22,F
0C28:  BNZ   0C3A
....................    { 
....................       set_timer0 (0); 
0C2A:  CLRF   FD7
0C2C:  CLRF   FD6
....................       sp++; 
0C2E:  INCF   x35,F
....................       IF (sp == 100) sp = 1; 
0C30:  MOVF   x35,W
0C32:  SUBLW  64
0C34:  BNZ   0C3A
0C36:  MOVLW  01
0C38:  MOVWF  x35
....................    } 
0C3A:  MOVLB  0
0C3C:  GOTO   0E00 (RETURN)
.................... } 
....................  
.................... VOID MAIN() 
*
0C5E:  CLRF   FF8
0C60:  BCF    FD0.7
0C62:  CLRF   06
0C64:  CLRF   0D
0C66:  CLRF   0E
0C68:  CLRF   0F
0C6A:  CLRF   10
0C6C:  CLRF   19
0C6E:  MOVLB  4
0C70:  CLRF   x1F
0C72:  CLRF   x20
0C74:  CLRF   x32
0C76:  BSF    x34.1
0C78:  MOVF   FC1,W
0C7A:  ANDLW  C0
0C7C:  IORLW  0F
0C7E:  MOVWF  FC1
0C80:  MOVLW  07
0C82:  MOVWF  FB4
0C84:  SETF   11
0C86:  SETF   12
0C88:  SETF   13
0C8A:  SETF   14
0C8C:  SETF   15
0C8E:  SETF   16
0C90:  SETF   17
0C92:  SETF   18
.................... { 
....................    SET_UP_PORT_IC_CHOT (); 
0C94:  MOVLB  0
0C96:  GOTO   0136
....................     
....................    //Khai bao ma tran phim 
....................    set_tris_b (0x3c); 
0C9A:  MOVLW  3C
0C9C:  MOVWF  F93
....................     
....................    //Khai bao LCD 
....................    SETUP_LCD (); 
0C9E:  GOTO   0246
....................    LCD_GOTO_XY (0, 0) ; 
0CA2:  MOVLB  4
0CA4:  CLRF   x3A
0CA6:  CLRF   x3B
0CA8:  MOVLB  0
0CAA:  CALL   02A2
....................    LCD_DATA ("DEM SAN PHAM:"); 
0CAE:  MOVLW  08
0CB0:  MOVWF  FF6
0CB2:  MOVLW  01
0CB4:  MOVWF  FF7
0CB6:  CALL   02DA
....................     
....................    //Khai bao GLCD 
....................    SETUP_GLCD (GLCD_GRAPHIC_MODE); 
0CBA:  MOVLW  36
0CBC:  MOVLB  4
0CBE:  MOVWF  x36
0CC0:  MOVLB  0
0CC2:  CALL   0332
....................    SETUP_GLCD (GLCD_TEXT_MODE); 
0CC6:  MOVLW  30
0CC8:  MOVLB  4
0CCA:  MOVWF  x36
0CCC:  MOVLB  0
0CCE:  CALL   0332
.................... //!   GLCD_COMMAND (GLCD_GRAPHIC_MODE); 
.................... //!   GLCD_COMMAND (GLCD_TEXT_MODE); //672 
....................    LCD_GOTO_XY (0, 0) ; 
0CD2:  MOVLB  4
0CD4:  CLRF   x3A
0CD6:  CLRF   x3B
0CD8:  MOVLB  0
0CDA:  CALL   02A2
....................    GLCD_COMMAND (GLCD_ADDR_LINE1); 
0CDE:  MOVLW  80
0CE0:  MOVLB  4
0CE2:  MOVWF  x37
0CE4:  MOVLB  0
0CE6:  CALL   0328
....................    GLCD_DATA ("DEM SAN PHAM:"); 
0CEA:  MOVLW  16
0CEC:  MOVWF  FF6
0CEE:  MOVLW  01
0CF0:  MOVWF  FF7
0CF2:  CALL   0394
....................    GDRAM_VDK_TO_GDRAM_GLCD_ALL(); 
0CF6:  CALL   03D6
....................  
....................    //Dem counter 
....................    SETUP_TIMER_0 (T0_EXT_L_TO_H|T0_DIV_1|T0_8_BIT); 
0CFA:  MOVLW  E8
0CFC:  MOVWF  FD5
....................    SET_TIMER0 (0); 
0CFE:  CLRF   FD7
0D00:  CLRF   FD6
....................    T0 = T0_TAM = 0; 
0D02:  MOVLB  4
0D04:  CLRF   x24
0D06:  CLRF   x23
0D08:  MOVFF  424,422
0D0C:  MOVFF  423,421
....................     
....................    //Hien thi len 4 module 
....................    HIENTHI_LCD (); 
0D10:  MOVLB  0
0D12:  CALL   0500
....................    GIAI_MA_HIEN_THI (); 
0D16:  RCALL  05DC
....................    HIENTHI_LCD_KichThuocLon (); 
0D18:  RCALL  0760
....................    GIAI_MA_GAN_CHO_8LED_QUET (); 
0D1A:  RCALL  08B0
....................    HIENTHI_GLCD_T0 (); 
0D1C:  RCALL  0952
....................     
....................    WHILE (TRUE) 
....................    { 
....................     
....................       IF (CDNN (START)) 
0D1E:  MOVLW  0D
0D20:  MOVLB  4
0D22:  MOVWF  x36
0D24:  MOVLB  0
0D26:  RCALL  0B80
0D28:  MOVF   01,F
0D2A:  BZ    0D3A
....................       { 
....................          mode++; 
0D2C:  MOVLB  4
0D2E:  INCF   x32,F
....................          IF (mode >= 2) mode = 0; 
0D30:  MOVF   x32,W
0D32:  SUBLW  01
0D34:  BC    0D38
0D36:  CLRF   x32
0D38:  MOVLB  0
....................       } 
....................        
....................       IF (CDNN (DAO)) 
0D3A:  MOVLW  0A
0D3C:  MOVLB  4
0D3E:  MOVWF  x36
0D40:  MOVLB  0
0D42:  RCALL  0B80
0D44:  MOVF   01,F
0D46:  BZ    0D50
....................       { 
....................          Dao_HienThi = ~ Dao_HienThi; 
0D48:  MOVLB  4
0D4A:  BTG    x34.1
....................          GIAI_MA_HIEN_THI (); 
0D4C:  MOVLB  0
0D4E:  RCALL  05DC
....................       } 
....................        
....................       IF (CDNN(DAOCHIEU)) 
0D50:  MOVLW  0B
0D52:  MOVLB  4
0D54:  MOVWF  x36
0D56:  MOVLB  0
0D58:  RCALL  0B80
0D5A:  MOVF   01,F
0D5C:  BZ    0D64
....................       { 
....................          TT_DC = ~TT_DC; 
0D5E:  MOVLB  4
0D60:  BTG    x34.0
0D62:  MOVLB  0
....................       } 
....................        
....................        
....................  
.................... //!      KT_DAO(); 
....................        
....................        
....................       GLCD_COMMAND (GLCD_ADDR_LINE3); 
0D64:  MOVLW  88
0D66:  MOVLB  4
0D68:  MOVWF  x37
0D6A:  MOVLB  0
0D6C:  CALL   0328
....................       GLCD_DATA ("Mode = "); 
0D70:  MOVLW  24
0D72:  MOVWF  FF6
0D74:  MOVLW  01
0D76:  MOVWF  FF7
0D78:  CALL   0394
....................       GLCD_DATA (mode + 0x30); 
0D7C:  MOVLW  30
0D7E:  MOVLB  4
0D80:  ADDWF  x32,W
0D82:  MOVWF  x36
0D84:  MOVWF  x39
0D86:  MOVLB  0
0D88:  CALL   038A
....................       LCD_GOTO_XY (1, 0) ; 
0D8C:  MOVLW  01
0D8E:  MOVLB  4
0D90:  MOVWF  x3A
0D92:  CLRF   x3B
0D94:  MOVLB  0
0D96:  CALL   02A2
....................       LCD_DATA ("Dao HT = "); 
0D9A:  MOVLW  2C
0D9C:  MOVWF  FF6
0D9E:  MOVLW  01
0DA0:  MOVWF  FF7
0DA2:  CALL   02DA
....................       LCD_DATA (Dao_HienThi + 0x30); 
0DA6:  MOVLW  00
0DA8:  MOVLB  4
0DAA:  BTFSC  x34.1
0DAC:  MOVLW  01
0DAE:  ADDLW  30
0DB0:  MOVWF  x36
0DB2:  MOVWF  x3A
0DB4:  MOVLB  0
0DB6:  CALL   02C4
....................       GDRAM_VDK_TO_GDRAM_GLCD_ALL(); 
0DBA:  CALL   03D6
....................        
.................... //!      mp = key_4x4_dw (); 
.................... //!      IF (mp != 0xff) 
.................... //!      { 
.................... //!         IF (mp == 0) 
.................... //!         { 
.................... //!            mode++; 
.................... //!            IF (mode >= 2) mode = 0; 
.................... //!         } 
.................... //!      } 
.................... //! 
....................        
....................       HIEN_THI_8LED_7DOAN_QUET (); 
0DBE:  RCALL  0B36
....................        
....................       IF (mode == 1) 
0DC0:  MOVLB  4
0DC2:  DECFSZ x32,W
0DC4:  BRA    0E14
....................       { 
....................          SETUP_TIMER_0 (T0_EXT_L_TO_H|T0_DIV_1|T0_8_BIT); 
0DC6:  MOVLW  E8
0DC8:  MOVWF  FD5
.................... //!         T0 = GET_TIMER0 (); 
....................          IF (T0 != T0_TAM) 
0DCA:  MOVF   x23,W
0DCC:  SUBWF  x21,W
0DCE:  BNZ   0DD6
0DD0:  MOVF   x24,W
0DD2:  SUBWF  x22,W
0DD4:  BZ    0E12
....................       { 
....................          T0_TAM = T0; 
0DD6:  MOVFF  422,424
0DDA:  MOVFF  421,423
....................          HIENTHI_LCD (); 
0DDE:  MOVLB  0
0DE0:  CALL   0500
....................          GIAI_MA_HIEN_THI (); 
0DE4:  CALL   05DC
....................          HIENTHI_LCD_KichThuocLon (); 
0DE8:  RCALL  0760
....................          GIAI_MA_GAN_CHO_8LED_QUET (); 
0DEA:  RCALL  08B0
....................          HIENTHI_GLCD_T0 (); 
0DEC:  RCALL  0952
....................          IF (TT_DC == 1) 
0DEE:  MOVLB  4
0DF0:  BTFSS  x34.0
0DF2:  BRA    0E04
....................          { 
....................                t0 = get_timer0 (); 
0DF4:  MOVF   FD6,W
0DF6:  MOVWF  x21
0DF8:  MOVFF  FD7,422
....................                dem_len (); 
0DFC:  MOVLB  0
0DFE:  BRA    0C20
....................          } 
0E00:  BRA    0E10
0E02:  MOVLB  4
....................  
....................             ELSE  
....................             { 
....................                t0 = get_timer0 (); 
0E04:  MOVF   FD6,W
0E06:  MOVWF  x21
0E08:  MOVFF  FD7,422
....................                dem_xuong (); 
0E0C:  MOVLB  0
0E0E:  BRA    0C40
0E10:  MOVLB  4
....................                 
....................             } 
....................       } 
....................       } 
0E12:  BRA    0E16
....................       ELSE 
....................       { 
....................          SETUP_TIMER_0 (T0_OFF); 
0E14:  CLRF   FD5
....................       } 
0E16:  MOVLB  0
0E18:  BRA    0D1E
.................... //! 
....................        
....................  
.................... //!      HIENTHI_LCD (); 
.................... //!         GIAI_MA_HIEN_THI (); 
.................... //!         HIENTHI_LCD_KichThuocLon (); 
.................... //!         GIAI_MA_GAN_CHO_8LED_QUET (); 
.................... //!         HIENTHI_GLCD_T0 (); 
.................... //!      IF (T0 >= 101) SET_TIMER0 (1) ; 
....................        
....................    } 
.................... } 
....................  
0E1A:  SLEEP 

Configuration Fuses:
   Word  1: CC27   PLL12 CPUDIV1 USBDIV HS FCMEN IESO
   Word  2: 1E3E   PUT BROWNOUT BORV21 VREGEN NOWDT WDT32768
   Word  3: 8700   CCP2C1 PBADEN LPT1OSC MCLR
   Word  4: 00A1   STVREN NOLVP ICSP2 NOXINST NODEBUG
   Word  5: C00F   NOPROTECT NOCPB NOCPD
   Word  6: E00F   NOWRT NOWRTC NOWRTB NOWRTD
   Word  7: 400F   NOEBTR NOEBTRB
