CCS PCH C Compiler, Version 5.015, 5967               06-Jul-20 15:45

               Filename:   C:\Users\tsqua\OneDrive - student.mtsac.edu\Desktop\BAI_TAP_VXL_NEW_3\demxung_hienthi_caitien.lst

               ROM used:   4774 bytes (15%)
                           Largest free fragment is 27994
               RAM used:   1069 (52%) at main() level
                           1105 (54%) worst case
               Stack used: 8 locations
               Stack size: 31

*
0000:  GOTO   112A
....................  
.................... // BAI 412 
.................... #include <tv_pickit2_shift_1.c> 
.................... #INCLUDE    <18F4550.H> 
.................... //////////// Standard Header file for the PIC18F4550 device //////////////// 
.................... /////////////////////////////////////////////////////////////////////////// 
.................... ////        (C) Copyright 1996, 2013 Custom Computer Services          //// 
.................... //// This source code may only be used by licensed users of the CCS C  //// 
.................... //// compiler.  This source code may only be distributed to other      //// 
.................... //// licensed users of the CCS C compiler.  No other use, reproduction //// 
.................... //// or distribution is permitted without written permission.          //// 
.................... //// Derivative programs created using this software in object code    //// 
.................... //// form are not restricted in any way.                               //// 
.................... /////////////////////////////////////////////////////////////////////////// 
.................... #device PIC18F4550 
0004:  CLRF   FF7
0006:  ADDLW  14
0008:  MOVWF  FF6
000A:  MOVLW  00
000C:  ADDWFC FF7,F
000E:  TBLRD*+
0010:  MOVF   FF5,W
0012:  RETURN 0
0014:  DATA C0,F9
0016:  DATA A4,B0
0018:  DATA 99,92
001A:  DATA 82,F8
001C:  DATA 80,90
001E:  DATA 88,83
0020:  DATA C6,A1
0022:  DATA 86,8E
0024:  CLRF   FF7
0026:  ADDLW  34
0028:  MOVWF  FF6
002A:  MOVLW  00
002C:  ADDWFC FF7,F
002E:  TBLRD*+
0030:  MOVF   FF5,W
0032:  RETURN 0
0034:  DATA 7F,BF
0036:  DATA DF,EF
0038:  DATA F7,FB
003A:  DATA FD,FE
003C:  CLRF   FF7
003E:  ADDLW  4C
0040:  MOVWF  FF6
0042:  MOVLW  00
0044:  ADDWFC FF7,F
0046:  TBLRD*+
0048:  MOVF   FF5,W
004A:  RETURN 0
004C:  DATA 3F,7F
004E:  DATA BF,FF
0050:  CLRF   FF7
0052:  ADDLW  60
0054:  MOVWF  FF6
0056:  MOVLW  00
0058:  ADDWFC FF7,F
005A:  TBLRD*+
005C:  MOVF   FF5,W
005E:  RETURN 0
0060:  DATA 00,01
0062:  DATA 02,05
0064:  DATA 03,04
0066:  DATA 01,02
0068:  DATA 20,03
006A:  DATA 07,03
006C:  DATA 06,06
006E:  DATA 02,05
0070:  DATA 03,03
0072:  DATA 06,06
0074:  DATA 02,03
0076:  DATA 03,04
0078:  DATA 07,03
007A:  DATA 07,20
007C:  DATA 20,07
007E:  DATA 07,06
0080:  DATA 06,03
0082:  DATA 03,04
0084:  DATA 00,06
0086:  DATA 06,05
0088:  DATA 03,04
008A:  DATA 01,01
008C:  DATA 07,20
008E:  DATA 20,07
0090:  DATA 00,06
0092:  DATA 02,05
0094:  DATA 03,04
0096:  DATA 00,06
0098:  DATA 02,03
009A:  DATA 03,04
009C:  DATA 20,20
009E:  DATA 20,20
00A0:  DATA 20,20
00A2:  DATA 00,06
00A4:  DATA 02,05
00A6:  DATA 20,20
00A8:  CLRF   FF7
00AA:  ADDLW  B8
00AC:  MOVWF  FF6
00AE:  MOVLW  00
00B0:  ADDWFC FF7,F
00B2:  TBLRD*+
00B4:  MOVF   FF5,W
00B6:  RETURN 0
00B8:  DATA 07,0F
00BA:  DATA 1F,1F
00BC:  DATA 1F,1F
00BE:  DATA 1F,1F
00C0:  DATA 1F,1F
00C2:  DATA 1F,00
00C4:  DATA 00,00
00C6:  DATA 00,00
00C8:  DATA 1C,1E
00CA:  DATA 1F,1F
00CC:  DATA 1F,1F
00CE:  DATA 1F,1F
00D0:  DATA 00,00
00D2:  DATA 00,00
00D4:  DATA 00,1F
00D6:  DATA 1F,1F
00D8:  DATA 1F,1F
00DA:  DATA 1F,1F
00DC:  DATA 1F,1F
00DE:  DATA 1E,1C
00E0:  DATA 1F,1F
00E2:  DATA 1F,1F
00E4:  DATA 1F,1F
00E6:  DATA 0F,07
00E8:  DATA 1F,1F
00EA:  DATA 1F,00
00EC:  DATA 00,00
00EE:  DATA 1F,1F
00F0:  DATA 1F,1F
00F2:  DATA 1F,1F
00F4:  DATA 1F,1F
00F6:  DATA 1F,1F
00F8:  CLRF   FF7
00FA:  ADDLW  08
00FC:  MOVWF  FF6
00FE:  MOVLW  01
0100:  ADDWFC FF7,F
0102:  TBLRD*+
0104:  MOVF   FF5,W
0106:  RETURN 0
0108:  DATA 80,C0
010A:  DATA 94,D4
010C:  DATA 2E,53
010E:  DATA 50,00
0110:  DATA 53,50
0112:  DATA 2E,00
0114:  DATA 2E,53
0116:  DATA 50,00
0118:  DATA 53,50
011A:  DATA 2E,00
011C:  DATA 44,45
011E:  DATA 4D,20
0120:  DATA 53,41
0122:  DATA 4E,20
0124:  DATA 50,48
0126:  DATA 41,4D
0128:  DATA 3A,20
012A:  DATA 00,00
*
01D0:  MOVLB  4
01D2:  MOVF   x2E,W
01D4:  CLRF   01
01D6:  SUBWF  x2D,W
01D8:  BC    01E0
01DA:  MOVFF  42D,00
01DE:  BRA    01F8
01E0:  CLRF   00
01E2:  MOVLW  08
01E4:  MOVWF  x2F
01E6:  RLCF   x2D,F
01E8:  RLCF   00,F
01EA:  MOVF   x2E,W
01EC:  SUBWF  00,W
01EE:  BTFSC  FD8.0
01F0:  MOVWF  00
01F2:  RLCF   01,F
01F4:  DECFSZ x2F,F
01F6:  BRA    01E6
01F8:  MOVLB  0
01FA:  RETURN 0
*
038E:  TBLRD*+
0390:  MOVF   FF5,F
0392:  BZ    03AC
0394:  MOVFF  FF6,42C
0398:  MOVFF  FF7,42D
039C:  MOVFF  FF5,431
03A0:  RCALL  0356
03A2:  MOVFF  42C,FF6
03A6:  MOVFF  42D,FF7
03AA:  BRA    038E
03AC:  RETURN 0
*
043E:  MOVLB  4
0440:  MOVF   x4C,W
0442:  MULWF  x4E
0444:  MOVFF  FF3,01
0448:  MOVFF  FF4,00
044C:  MULWF  x4F
044E:  MOVF   FF3,W
0450:  ADDWF  00,F
0452:  MOVF   x4D,W
0454:  MULWF  x4E
0456:  MOVF   FF3,W
0458:  ADDWFC 00,W
045A:  MOVWF  02
045C:  MOVLB  0
045E:  RETURN 0
*
071E:  CLRF   00
0720:  CLRF   01
0722:  MOVLB  4
0724:  MOVF   x35,W
0726:  BCF    FD8.0
0728:  BTFSC  x36.0
072A:  ADDWF  00,F
072C:  RRCF   00,F
072E:  RRCF   01,F
0730:  BTFSC  x36.1
0732:  ADDWF  00,F
0734:  RRCF   00,F
0736:  RRCF   01,F
0738:  BTFSC  x36.2
073A:  ADDWF  00,F
073C:  RRCF   00,F
073E:  RRCF   01,F
0740:  BTFSC  x36.3
0742:  ADDWF  00,F
0744:  RRCF   00,F
0746:  RRCF   01,F
0748:  BTFSC  x36.4
074A:  ADDWF  00,F
074C:  RRCF   00,F
074E:  RRCF   01,F
0750:  BTFSC  x36.5
0752:  ADDWF  00,F
0754:  RRCF   00,F
0756:  RRCF   01,F
0758:  BTFSC  x36.6
075A:  ADDWF  00,F
075C:  RRCF   00,F
075E:  RRCF   01,F
0760:  BTFSC  x36.7
0762:  ADDWF  00,F
0764:  RRCF   00,F
0766:  RRCF   01,F
0768:  MOVLB  0
076A:  RETURN 0
*
0E66:  TBLRD*+
0E68:  MOVF   FF5,F
0E6A:  BZ    0E84
0E6C:  MOVFF  FF6,42C
0E70:  MOVFF  FF7,42D
0E74:  MOVFF  FF5,42F
0E78:  RCALL  097E
0E7A:  MOVFF  42C,FF6
0E7E:  MOVFF  42D,FF7
0E82:  BRA    0E66
0E84:  RETURN 0
....................  
.................... #list 
....................  
.................... #DEVICE     ADC=10 
.................... #FUSES      NOWDT,PUT,HS,NOPROTECT,NOLVP,CPUDIV1 
.................... #USE        I2C(MASTER,SLOW,SDA=PIN_B0,SCL=PIN_B1) 
.................... #USE        DELAY(CLOCK=20000000) 
*
02D2:  MOVLW  04
02D4:  MOVWF  FEA
02D6:  MOVLW  2D
02D8:  MOVWF  FE9
02DA:  MOVF   FEF,W
02DC:  BZ    02F8
02DE:  MOVLW  06
02E0:  MOVWF  01
02E2:  CLRF   00
02E4:  DECFSZ 00,F
02E6:  BRA    02E4
02E8:  DECFSZ 01,F
02EA:  BRA    02E2
02EC:  MOVLW  7B
02EE:  MOVWF  00
02F0:  DECFSZ 00,F
02F2:  BRA    02F0
02F4:  DECFSZ FEF,F
02F6:  BRA    02DE
02F8:  RETURN 0
.................... //#USE        rs232(baud=9600, xmit=PIN_C6,rcv=PIN_C7) 
.................... //NUT NHAN: 
.................... #DEFINE  BT0     PIN_B5 
.................... #DEFINE  BT1     PIN_B4 
.................... #DEFINE  BT2     PIN_B3 
.................... #DEFINE  BT3     PIN_B2 
....................  
.................... #DEFINE  ON      BT0       //DK LED DON, MOTOR 
.................... #DEFINE  OFF     BT1 
.................... #DEFINE  INV     BT2 
....................  
.................... #DEFINE  UP      BT0    //DK LED DON 
.................... #DEFINE  DW      BT1 
.................... #DEFINE  CLR     BT2 
.................... #DEFINE  MOD     BT3 
....................  
.................... #DEFINE  STOP    BT3 
....................  
.................... #DEFINE  ON1     BT0      
.................... #DEFINE  OFF1    BT1 
.................... #DEFINE  ON2     BT2        
.................... #DEFINE  OFF2    BT3 
....................  
....................  
.................... #DEFINE     TRIGGER      PIN_E2 
.................... #DEFINE     ECHO         PIN_E1 
.................... //   IC74138_A    PIN_B6   //OUTPUT GIAI MA 2 SANG 4 TICH CUC MUC 0 
.................... //   IC74138_B    PIN_B7   //OUTPUT GIAI MA 2 SANG 4 TICH CUC MUC 0 
....................  
.................... //          ENCODER  PIN_C0   //RC0/T13CKI 
....................  
.................... //          CB_KC    PIN_A2   //RA2/AN2 
.................... //          PIR      PIN_A3   //RA3/AN3 
.................... //          CBXUNG   PIN_A4   //RA4/T0CKI 
.................... //          LEDTHU   PIN_A4   //RA4/T0CKI//SW802 
....................  
.................... //          CB_KCSA_TRIGGER  PIN_E2   //RE2/SDO  DUNG CHUNG 
.................... //          CB_KCSA_RCHO     PIN_E1   //RE1 
....................  
.................... //          CB_TCS3200_OUT    PIN_E1   //RE1 //CAM BIEN MAU TCS3200 
.................... //          CB_TCS3200_S0     B12      //LAY TU MBI5026 
.................... //          CB_TCS3200_S1     B13      //LAY TU MBI5026 
.................... //          CB_TCS3200_S2     B14      //LAY TU MBI5026 
.................... //          CB_TCS3200_S3     B15      //LAY TU MBI5026 
....................  
.................... //          CB_POWER  SW803 
.................... //          CB_GAS      AIN3_PCF8591T   //RE1 
.................... //          CB_QUANG    AIN2_PCF8591T    
.................... //          CB_LM35B    AIN1_PCF8591T   //RA1/AN1 
.................... //          CB_LM35A    AIN0_PCF8591T   //RE1/AN0 
....................  
.................... //XXXXXXXXXXXXXXXXXXXXXXXXXXXXXXXXXXXXXXXXXXXXXXXXX 
.................... #DEFINE      ENABLE_573A      PIN_D1         //CS0 CUA A 
.................... #DEFINE      ENABLE_573B      PIN_D0         //CS1 CUA B 
.................... //XXXXXXXXXXXXXXXXXXXXXXXXXXXXXXXXXXXXXXXXXXXXXXXXX 
.................... #DEFINE      SSDO             PIN_E2         //CHUNG TAT CA 
.................... #DEFINE      SSCK             PIN_E0         //CHUNG TAT CA 
.................... //XXXXXXXXXXXXXXXXXXXXXXXXXXXXXXXXXXXXXXXXXXXXXXXXX 
.................... #DEFINE      RCK_4LED7DOAN    PIN_D7         //A - 4 BYTE 
.................... #DEFINE      G_4LED7DOAN      PIN_D6         //A - 4 BYTE 
.................... //XXXXXXXXXXXXXXXXXXXXXXXXXXXXXXXXXXXXXXXXXXXX     
.................... #DEFINE      RCK_MATRANLED    PIN_D7         //B - 3 BYTE DAO 
.................... #DEFINE      G_MATRANLED      PIN_D6         //B - 3 BYTE DAO 
.................... //XXXXXXXXXXXXXXXXXXXXXXXXXXXXXXXXXXXXXXXXXXXXXXXXX 
.................... #DEFINE      RCK_32LED        PIN_D5         //A - 4 BYTE 
.................... #DEFINE      G_32LED          PIN_D4         //A - 4 BYTE 
.................... //XXXXXXXXXXXXXXXXXXXXXXXXXXXXXXXXXXXXXXXXXXXX  
.................... #DEFINE      RCK_8LEDQUET     PIN_D5         //B - 2 BYTE DAO 
.................... #DEFINE      G_8LEDQUET       PIN_D4         //B - 2 BYTE DAO 
.................... //XXXXXXXXXXXXXXXXXXXXXXXXXXXXXXXXXXXXXXXXXXXXXXXXX 
.................... #DEFINE      RCK_LCD20X4      PIN_D3         //A - 2 BYTE DAO 
.................... #DEFINE      G_LCD20X4         PIN_D2         //A - 2 BYTE DAO 
.................... //XXXXXXXXXXXXXXXXXXXXXXXXXXXXXXXXXXXXXXXXXXXX  
.................... #DEFINE      RCK_BUZERELAY    PIN_D3     //B - 1 BYTE  
.................... #DEFINE      G_BUZERELAY      PIN_D2         //B - 1 BYTE  
....................  
.................... VOID XUAT_LCD20X4(UNSIGNED INT8 LCD_SIGNAL,LCD_INS_HTHI); 
....................  
.................... VOID XUAT_BUZZER_RELAY(); 
.................... //XXXXXXXXXXXXXXXXXXXXXXXXXXXXXXXXXXXXXXXXXXXX    
.................... #DEFINE     CHOT_2_IC_74573_A_B  OUTPUT_D(0XFC) 
....................  
.................... UNSIGNED INT8 TIN_HIEU_DK_74573_A; 
.................... #BIT G_4A         = TIN_HIEU_DK_74573_A.6 
.................... #BIT G_32A        = TIN_HIEU_DK_74573_A.4 
.................... #BIT G_LCDA       = TIN_HIEU_DK_74573_A.2 
.................... //XXXXXXXXXXXXXXXXXXXXXXXXXXXXXXXXXXXXXXXXXXXX          
.................... #DEFINE     MO_32_LED_DON        G_32A=0; //OUTPUT_LOW(G_32LED)  
.................... #DEFINE     TAT_32_LED_DON       G_32A=1; //OUTPUT_HIGH(G_32LED)  
.................... //XXXXXXXXXXXXXXXXXXXXXXXXXXXXXXXXXXXXXXXXXXXX          
.................... #DEFINE     MO_4_LED_7DOAN       G_4A=0;  //OUTPUT_LOW(G_4LED7DOAN) 
.................... #DEFINE     TAT_4_LED_7DOAN      G_4A=1;  //OUTPUT_HIGH(G_4LED7DOAN) 
.................... //XXXXXXXXXXXXXXXXXXXXXXXXXXXXXXXXXXXXXXXXXXXX  
.................... #DEFINE     MO_GLCD_LCD           G_LCDA=0;   //OUTPUT_LOW(G_LCD20X4) 
.................... #DEFINE     TAT_GLCD_LCD          G_LCDA=1;   // OUTPUT_LOW(G_LCD20X4) 
....................  
.................... UNSIGNED INT8 TIN_HIEU_DK_74573_B;   
.................... #BIT G_MTB        = TIN_HIEU_DK_74573_B.6 
.................... #BIT G_8B         = TIN_HIEU_DK_74573_B.4 
.................... #BIT G_RBDCB      = TIN_HIEU_DK_74573_B.2 
.................... //XXXXXXXXXXXXXXXXXXXXXXXXXXXXXXXXXXXXXXXXXXXX  
.................... #DEFINE     MO_LED_MATRAN        G_MTB=0; //OUTPUT_LOW(G_MATRANLED) 
.................... #DEFINE     TAT_LED_MATRAN       G_MTB=1; //OUTPUT_LOW(G_MATRANLED) 
.................... //XXXXXXXXXXXXXXXXXXXXXXXXXXXXXXXXXXXXXXXXXXXX        
.................... #DEFINE     MO_8_LED_QUET        G_8B=0;  //OUTPUT_LOW(G_8LEDQUET) 
.................... #DEFINE     TAT_8_LED_QUET       G_8B=1;  //OUTPUT_LOW(G_8LEDQUET) 
.................... //XXXXXXXXXXXXXXXXXXXXXXXXXXXXXXXXXXXXXXXXXXXX          
.................... #DEFINE     MO_RELAY_BUZZER_DC   G_RBDCB=0;  //OUTPUT_LOW(G_BUZERELAY) 
.................... #DEFINE     TAT_RELAY_BUZZER_DC  G_RBDCB=1;  //OUTPUT_LOW(G_BUZERELAY) 
....................  
.................... //XXXXXXXXXXXXXXXXXXXXXXXXXXXXXXXXXXXXXXXXXXXX 
.................... //CHUONG TRINH KIEM TRA PHIM BT1 
.................... //XXXXXXXXXXXXXXXXXXXXXXXXXXXXXXXXXXXXXXXXXXXX 
.................... UNSIGNED INT8 DL_BTN=0; 
.................... INT1 PHIM_BT0(UNSIGNED INT16 DL) 
.................... {   
....................     IF (!INPUT(BT0)) 
....................     {   
....................       DL_BTN++; 
....................        
....................       IF (DL_BTN>= DL) 
....................          { 
....................             DL_BTN =0; 
....................             RETURN(1); 
....................          } 
....................       ELSE RETURN(0); 
....................     } 
....................     ELSE    RETURN(0); 
.................... }  
.................... //XXXXXXXXXXXXXXXXXXXXXXXXXXXXXXXXXXXXXXXXXXXX 
.................... //CHUONG TRINH KIEM TRA PHIM BT1 
.................... //XXXXXXXXXXXXXXXXXXXXXXXXXXXXXXXXXXXXXXXXXXXX 
.................... INT1 PHIM_BT1(UNSIGNED INT16 DL ) 
.................... {   
....................     IF (!INPUT(BT1)) 
....................     {   
....................       DL_BTN++; 
....................        
....................       IF (DL_BTN>= DL) 
....................          { 
....................             DL_BTN =0; 
....................             RETURN(1); 
....................          } 
....................       ELSE RETURN(0); 
....................     } 
....................     ELSE    RETURN(0); 
.................... }  
.................... //XXXXXXXXXXXXXXXXXXXXXXXXXXXXXXXXXXXXXXXXXXXX 
.................... //CHUONG TRINH KIEM TRA PHIM BT2       
.................... //XXXXXXXXXXXXXXXXXXXXXXXXXXXXXXXXXXXXXXXXXXXX                                     
.................... INT1 PHIM_BT2(UNSIGNED INT16 DL ) 
.................... {                                         
....................     IF (!INPUT(BT2)) 
....................     {   
....................       DL_BTN++; 
....................        
....................       IF (DL_BTN>= DL) 
....................          { 
....................             DL_BTN =0; 
....................             RETURN(1); 
....................          } 
....................       ELSE RETURN(0); 
....................     } 
....................     ELSE    RETURN(0); 
....................                                           
.................... }       
....................  
.................... //XXXXXXXXXXXXXXXXXXXXXXXXXXXXXXXXXXXXXXXXXXXX 
.................... //CHUONG TRINH KIEM TRA PHIM BT3 
.................... //XXXXXXXXXXXXXXXXXXXXXXXXXXXXXXXXXXXXXXXXXXXX 
.................... INT1 PHIM_BT3(UNSIGNED INT16 DL,  UNSIGNED INT8 SOLAN  ) 
.................... {   
....................     IF (!INPUT(BT3)) 
....................     {   
....................       DL_BTN++; 
....................       IF(DL_BTN==1) RETURN(1); 
....................       ELSE 
....................       { 
....................          IF (DL_BTN>= DL) 
....................          DL_BTN =SOLAN; 
....................       } 
....................     } 
....................     ELSE    
....................     { 
....................       //DL_BTN =0; 
....................       RETURN(0); 
....................     } 
.................... }  
.................... //XXXXXXXXXXXXXXXXXXXXXXXXXXXXXXXXXXXXXXXXXXXX 
.................... //KHAI BAO DU LIEU 16 BIT CHO MODULE RELAY, TRIAC, BUZZER, DONG CO 
.................... //XXXXXXXXXXXXXXXXXXXXXXXXXXXXXXXXXXXXXXXXXXXX 
.................... UNSIGNED INT16 RBDC; 
.................... #BIT STEP_MOTOR_ENABLE  = RBDC.0    //1=ENA,0=DIS 
.................... #BIT STEP_MOTOR_IN1     = RBDC.1     
.................... #BIT STEP_MOTOR_IN2     = RBDC.2 
.................... #BIT STEP_MOTOR_IN3     = RBDC.3 
.................... #BIT STEP_MOTOR_IN4     = RBDC.4 
.................... #BIT DC_ENABLE          = RBDC.5    //1=ENA,0=DIS 
.................... #BIT PWRKEY             = RBDC.6    //KHOI TAO SIM900 
....................  
.................... #BIT BUZZER             = RBDC.8    //1=ON,0=OFF 
.................... #BIT TRIAC_1            = RBDC.9    //1=ON,0=OFF 
.................... #BIT TRIAC_2            = RBDC.10   //1=ON,0=OFF 
.................... #BIT RELAY_1            = RBDC.11   //0=ON,1=OFF 
.................... #BIT RELAY_2            = RBDC.12   //0=ON,1=OFF 
....................  
.................... //HAM 103 
.................... //XXXXXXXXXXXXXXXXXXXXXXXXXXXXXXXXXXXXXXXXXXXX 
.................... //CHUONG TRINH CON KHOI TAO IC CHOT 
.................... //XXXXXXXXXXXXXXXXXXXXXXXXXXXXXXXXXXXXXXXXXXXX          
.................... #DEFINE     CHO_IC_74573_A_GOI_DU_LIEU     OUTPUT_HIGH(ENABLE_573A) 
.................... #DEFINE     CHOT_IC_74573_A_GOI_DU_LIEU    OUTPUT_LOW(ENABLE_573A) 
....................  
.................... #DEFINE     CHO_IC_74573_B_GOI_DU_LIEU     OUTPUT_HIGH(ENABLE_573B) 
.................... #DEFINE     CHOT_IC_74573_B_GOI_DU_LIEU    OUTPUT_LOW(ENABLE_573B) 
.................... VOID MO_IC_74573_A_THONG_DL(); 
....................  
.................... //XXXXXXXXXXXXXXXXXXXXXXXXXXXXXXXXXXXXXXXXXXXX    
.................... CONST UNSIGNED CHAR MA7DOAN[16]= {0XC0,0XF9,0xA4,0XB0,0X99,0X92,0X82,0XF8, 
.................... 0X80,0X90,0x88, 0x83, 0xC6, 0xA1, 0x86, 0x8E}; 
.................... #DEFINE     MASO0    0XC0 
.................... #DEFINE     MASO1    0XF9 
.................... #DEFINE     MASO2    0XA4 
.................... #DEFINE     MASO3    0XB0 
.................... #DEFINE     MASO4    0X99 
.................... #DEFINE     MASO5    0X92 
.................... #DEFINE     MASO6    0X82 
.................... #DEFINE     MASO7    0XF8 
....................  
.................... //XXXXXXXXXXXXXXXXXXXXXXXXXXXXXXXXXXXXXXXXXXXX  
.................... //HAM 102 
.................... //XXXXXXXXXXXXXXXXXXXXXXXXXXXXXXXXXXXXXXXXXXXX     
.................... //XUAT 1 BYTE RA THANH GHI DICH 
.................... //XXXXXXXXXXXXXXXXXXXXXXXXXXXXXXXXXXXXXXXXXXXX     
.................... VOID XUAT_1BYTE(UNSIGNED INT8 BYTEXUAT) 
.................... { 
....................    UNSIGNED INT8   SB,X;    
....................    #BIT BSERI  = X.7 
....................    X = BYTEXUAT; 
*
014A:  MOVFF  438,43A
....................    FOR (SB=0;SB<8;SB++) 
014E:  MOVLB  4
0150:  CLRF   x39
0152:  MOVF   x39,W
0154:  SUBLW  07
0156:  BNC   0174
....................       {                                                  
....................          OUTPUT_BIT(SSDO,BSERI);     
0158:  BTFSC  x3A.7
015A:  BRA    0160
015C:  BCF    F8D.2
015E:  BRA    0162
0160:  BSF    F8D.2
0162:  BCF    F96.2
....................          OUTPUT_LOW(SSCK); OUTPUT_HIGH(SSCK); 
0164:  BCF    F96.0
0166:  BCF    F8D.0
0168:  BCF    F96.0
016A:  BSF    F8D.0
....................          X= X<<1;          
016C:  BCF    FD8.0
016E:  RLCF   x3A,F
0170:  INCF   x39,F
0172:  BRA    0152
....................      } 
0174:  MOVLB  0
0176:  RETURN 0
.................... } 
.................... //XXXXXXXXXXXXXXXXXXXXXXXXXXXXXXXXXXXXXXXXXXXX  
.................... //HAM 301 
.................... //XXXXXXXXXXXXXXXXXXXXXXXXXXXXXXXXXXXXXXXXXXXX 
.................... //CHUONG TRINH CON XUAT 4 BYTE RA 32 LED DON 
.................... //XXXXXXXXXXXXXXXXXXXXXXXXXXXXXXXXXXXXXXXXXXXX 
.................... VOID XUAT_32LED_DON_4BYTE(UNSIGNED INT8 BLD3,BLD2,BLD1,BLD0) 
.................... {      
....................       XUAT_1BYTE(BLD3);           
....................       XUAT_1BYTE(BLD2); 
....................       XUAT_1BYTE(BLD1);           
....................       XUAT_1BYTE(BLD0);             
....................       MO_32_LED_DON;       
....................       MO_IC_74573_A_THONG_DL();             
....................       OUTPUT_HIGH(RCK_32LED);    OUTPUT_LOW(RCK_32LED); 
....................       CHOT_IC_74573_A_GOI_DU_LIEU;       
.................... } 
.................... //HAM 302 
.................... //XXXXXXXXXXXXXXXXXXXXXXXXXXXXXXXXXXXXXXXXXXXX 
.................... //CHUONG TRINH CON XUAT 2 WORD 16 BITRA 32 LED DON 
.................... //XXXXXXXXXXXXXXXXXXXXXXXXXXXXXXXXXXXXXXXXXXXX 
.................... VOID XUAT_32LED_DON_2WORD(UNSIGNED INT16 WLD1, UNSIGNED INT16 WLD0) 
.................... {      
....................      UNSIGNED INT8  B3,B2,B1,B0; 
....................      B3 = WLD1>>8;  B2 = WLD1;  
....................      B1 = WLD0>>8;  B0 = WLD0; 
....................      XUAT_32LED_DON_4BYTE(B3,B2,B1,B0); 
.................... } 
.................... //HAM 303 
.................... //XXXXXXXXXXXXXXXXXXXXXXXXXXXXXXXXXXXXXXXXXXXX 
.................... //CHUONG TRINH CON XUAT 1 DOUBLE WORD RA 32 LED DON 
.................... //XXXXXXXXXXXXXXXXXXXXXXXXXXXXXXXXXXXXXXXXXXXX 
.................... VOID XUAT_32LED_DON_1DW(UNSIGNED LONG LONG DWLD) 
.................... {      
....................      UNSIGNED INT16  WD1,WD0; 
....................      WD1 = DWLD>>16;  WD0 = DWLD; 
....................      XUAT_32LED_DON_2WORD(WD1,WD0); 
.................... } 
....................  
.................... //HAM 304 
.................... //XXXXXXXXXXXXXXXXXXXXXXXXXXXXXXXXXXXXXXXXXXXX 
.................... //CHUONG TRINH CON MO 32 LED DON SANG 
.................... //XXXXXXXXXXXXXXXXXXXXXXXXXXXXXXXXXXXXXXXXXXXX 
.................... VOID MO_32LED_DON() 
.................... {         
....................      XUAT_32LED_DON_1DW(0XFFFFFFFF); 
.................... } 
.................... //HAM 305 
.................... //XXXXXXXXXXXXXXXXXXXXXXXXXXXXXXXXXXXXXXXXXXXX 
.................... //CHUONG TRINH CON TAT 32 LED DON  
.................... //XXXXXXXXXXXXXXXXXXXXXXXXXXXXXXXXXXXXXXXXXXXX 
.................... VOID TAT_32LED_DON() 
.................... {         
....................      XUAT_32LED_DON_1DW(0); 
.................... } 
.................... //XXXXXXXXXXXXXXXXXXXXXXXXXXXXXXXXXXXXXXXXXXXX     
.................... //XUAT 1 BIT ROI TRA LAI KET QUA SAU KHI DICH DI 1 BIT 
.................... //XXXXXXXXXXXXXXXXXXXXXXXXXXXXXXXXXXXXXXXXXXXX     
.................... UNSIGNED  INT8 XUAT_1BIT(UNSIGNED INT8 BYTEXUAT) 
.................... { 
....................       UNSIGNED INT8   XBITX;    
....................       #BIT BSERIX  = XBITX.0 
....................       XBITX = BYTEXUAT; 
....................                                              
....................       OUTPUT_BIT(SSDO,BSERIX);     
....................       OUTPUT_LOW(SSCK); OUTPUT_HIGH(SSCK); 
....................       XBITX= XBITX>>1;    
....................       RETURN(XBITX);   
.................... } 
.................... //XXXXXXXXXXXXXXXXXXXXXXXXXXXXXXXXXXXXXXXXXXXX  
.................... //HAM 101 
.................... //XXXXXXXXXXXXXXXXXXXXXXXXXXXXXXXXXXXXXXXXXXXX     
.................... //HAM KHOI TAO CAC PORT VA IC CHOT 
.................... //XXXXXXXXXXXXXXXXXXXXXXXXXXXXXXXXXXXXXXXXXXXX     
.................... VOID SET_UP_PORT_IC_CHOT() 
.................... {      
....................       SET_TRIS_D(0x00);     
*
012C:  MOVLW  00
012E:  MOVWF  F95
....................       SET_TRIS_E(0X00); 
0130:  MOVWF  F96
....................       OUTPUT_D(0XFF); 
0132:  CLRF   F95
0134:  SETF   F8C
....................       TIN_HIEU_DK_74573_A=0XFF;   
0136:  SETF   04
....................       TIN_HIEU_DK_74573_B=0XFF;       
0138:  SETF   05
....................       CHOT_IC_74573_A_GOI_DU_LIEU; 
013A:  BCF    F95.1
013C:  BCF    F8C.1
....................       CHOT_IC_74573_B_GOI_DU_LIEU;   
013E:  BCF    F95.0
0140:  BCF    F8C.0
....................       RBDC=0; 
0142:  CLRF   08
0144:  CLRF   07
0146:  GOTO   1162 (RETURN)
.................... } 
.................... //HAM 104 
.................... //XXXXXXXXXXXXXXXXXXXXXXXXXXXXXXXXXXXXXXXXXXXX     
.................... //XUAT CÁC THIEU DIEU KHIEN  
.................... //GIU NGUYEN CAC TRANG THAI CUA 2 MODULE KHAC 
.................... //XXXXXXXXXXXXXXXXXXXXXXXXXXXXXXXXXXXXXXXXXXXX     
.................... VOID MO_IC_74573_A_THONG_DL() 
.................... {      
....................       OUTPUT_D(0X00); 
*
0178:  CLRF   F95
017A:  CLRF   F8C
....................       OUTPUT_BIT(G_32LED,G_32A); 
017C:  BTFSC  04.4
017E:  BRA    0184
0180:  BCF    F8C.4
0182:  BRA    0186
0184:  BSF    F8C.4
0186:  BCF    F95.4
....................       OUTPUT_BIT(G_4LED7DOAN,G_4A); 
0188:  BTFSC  04.6
018A:  BRA    0190
018C:  BCF    F8C.6
018E:  BRA    0192
0190:  BSF    F8C.6
0192:  BCF    F95.6
....................       OUTPUT_BIT(G_LCD20X4,G_LCDA);   
0194:  BTFSC  04.2
0196:  BRA    019C
0198:  BCF    F8C.2
019A:  BRA    019E
019C:  BSF    F8C.2
019E:  BCF    F95.2
....................       CHO_IC_74573_A_GOI_DU_LIEU; 
01A0:  BCF    F95.1
01A2:  BSF    F8C.1
01A4:  RETURN 0
.................... } 
.................... VOID MO_IC_74573_B_THONG_DL() 
.................... {      
....................       OUTPUT_D(0X00); 
*
0A6E:  CLRF   F95
0A70:  CLRF   F8C
....................       OUTPUT_BIT(G_MATRANLED,G_MTB); 
0A72:  BTFSC  05.6
0A74:  BRA    0A7A
0A76:  BCF    F8C.6
0A78:  BRA    0A7C
0A7A:  BSF    F8C.6
0A7C:  BCF    F95.6
....................       OUTPUT_BIT(G_8LEDQUET,G_8B); 
0A7E:  BTFSC  05.4
0A80:  BRA    0A86
0A82:  BCF    F8C.4
0A84:  BRA    0A88
0A86:  BSF    F8C.4
0A88:  BCF    F95.4
....................       OUTPUT_BIT(G_BUZERELAY,G_RBDCB);  
0A8A:  BTFSC  05.2
0A8C:  BRA    0A92
0A8E:  BCF    F8C.2
0A90:  BRA    0A94
0A92:  BSF    F8C.2
0A94:  BCF    F95.2
....................       CHO_IC_74573_B_GOI_DU_LIEU; 
0A96:  BCF    F95.0
0A98:  BSF    F8C.0
0A9A:  RETURN 0
.................... } 
.................... //ham 401 
.................... //XXXXXXXXXXXXXXXXXXXXXXXXXXXXXXXXXXXXXXXXXXXX 
.................... //CHUONG TRINH CON XUAT 4 BYTE RA 4 LED 7 DOAN 
.................... //XXXXXXXXXXXXXXXXXXXXXXXXXXXXXXXXXXXXXXXXXXXX 
.................... VOID XUAT_4LED_7DOAN_4SO(UNSIGNED INT BL743,BL742,BL741,BL740) 
.................... {      
....................       XUAT_1BYTE(BL740);   XUAT_1BYTE(BL741); 
*
01A6:  MOVFF  430,438
01AA:  RCALL  014A
01AC:  MOVFF  42F,438
01B0:  RCALL  014A
....................       XUAT_1BYTE(BL742);   XUAT_1BYTE(BL743); 
01B2:  MOVFF  42E,438
01B6:  RCALL  014A
01B8:  MOVFF  42D,438
01BC:  RCALL  014A
....................        
....................       MO_4_LED_7DOAN; 
01BE:  BCF    04.6
....................       MO_IC_74573_A_THONG_DL(); 
01C0:  RCALL  0178
....................         
....................       OUTPUT_LOW(RCK_4LED7DOAN);   OUTPUT_HIGH(RCK_4LED7DOAN);  
01C2:  BCF    F95.7
01C4:  BCF    F8C.7
01C6:  BCF    F95.7
01C8:  BSF    F8C.7
....................       CHOT_IC_74573_A_GOI_DU_LIEU; 
01CA:  BCF    F95.1
01CC:  BCF    F8C.1
01CE:  RETURN 0
.................... } 
.................... //ham 404 
.................... VOID XUAT_4LED_7DOAN_3SO(UNSIGNED INT BL742,BL741,BL740) 
.................... {      
....................      XUAT_4LED_7DOAN_4SO(0XFF,BL742,BL741,BL740); 
.................... } 
.................... //ham 403 
.................... VOID XUAT_4LED_7DOAN_2SO(UNSIGNED INT BL741,BL740) 
.................... {      
....................      XUAT_4LED_7DOAN_4SO(0XFF,0XFF,BL741,BL740); 
.................... } 
.................... //ham 402 
.................... VOID XUAT_4LED_7DOAN_1SO(UNSIGNED INT BL740) 
.................... {      
....................      XUAT_4LED_7DOAN_4SO(0XFF,0XFF,0XFF,BL740); 
.................... } 
....................  
.................... //ham 405 
.................... //XXXXXXXXXXXXXXXXXXXXXXXXXXXXXXXXXXXXXXXXXXXXXXXXXXXXXXXXXXXXX 
.................... //CHUONG TRINH CON HIEN THI DU LIEU 16 BIT TREN 4 LED 7 DOAN 
.................... //XXXXXXXXXXXXXXXXXXXXXXXXXXXXXXXXXXXXXXXXXXXXXXXXXXXXXXXXXXXXX 
.................... UNSIGNED CHAR DONVI4,CHUC4,TRAM4,NGAN4; 
.................... VOID  XUAT_4LED_7DOAN_GIAIMA_XOA_SO0 (UNSIGNED INT16 TAM) 
.................... {          
....................       DONVI4 = MA7DOAN[TAM %10];          
....................       CHUC4  = MA7DOAN[TAM/10%10]; 
....................       TRAM4  = MA7DOAN[TAM/100%10];  
....................       NGAN4  = MA7DOAN[TAM/1000%10];        
....................       IF (NGAN4==0XC0) 
....................       { 
....................          NGAN4=0XFF; 
....................          IF (TRAM4==0XC0) 
....................          { 
....................             TRAM4=0XFF; 
....................             IF (CHUC4==0XC0)   CHUC4=0XFF; 
....................          } 
....................       } 
....................       XUAT_4LED_7DOAN_4SO(NGAN4,TRAM4,CHUC4,DONVI4);    
.................... } 
.................... UNSIGNED INT8 LCDDATA=0;  
.................... UNSIGNED INT8 LCDCONTROL=0; 
.................... UNSIGNED INT8 GLCDDATA=0; 
.................... UNSIGNED INT8 GLCDCONTROL=0;  
.................... //HAM 701 
.................... //XXXXXXXXXXXXXXXXXXXXXXXXXXXXXXXXXXXXXXXXXXXXXXXXXXXXXXXXXXXXX 
.................... //CHUONG TRINH CON XUAT DU LIEU 4 BYTE RA GLCD VA LCD 
.................... //XXXXXXXXXXXXXXXXXXXXXXXXXXXXXXXXXXXXXXXXXXXXXXXXXXXXXXXXXXXXX 
.................... VOID XUAT_GLCD_LCD() 
.................... {       
....................     XUAT_1BYTE(GLCDCONTROL);              
*
0264:  MOVFF  10,438
0268:  RCALL  014A
....................     XUAT_1BYTE(GLCDDATA); 
026A:  MOVFF  0F,438
026E:  RCALL  014A
....................     XUAT_1BYTE(LCDCONTROL);        
0270:  MOVFF  0E,438
0274:  RCALL  014A
....................     XUAT_1BYTE(LCDDATA);       
0276:  MOVFF  0D,438
027A:  RCALL  014A
....................        
....................     MO_GLCD_LCD; 
027C:  BCF    04.2
....................     MO_IC_74573_A_THONG_DL();             
027E:  RCALL  0178
....................     OUTPUT_HIGH(RCK_LCD20X4);      
0280:  BCF    F95.3
0282:  BSF    F8C.3
....................     OUTPUT_LOW(RCK_LCD20X4); 
0284:  BCF    F95.3
0286:  BCF    F8C.3
....................     CHOT_IC_74573_A_GOI_DU_LIEU; 
0288:  BCF    F95.1
028A:  BCF    F8C.1
028C:  RETURN 0
.................... } 
.................... //HAM 702 
.................... VOID XUAT_LCD20X4(UNSIGNED INT8 LCD_SIGNAL,LCD_INS_HTHI) 
.................... {      
....................     LCDCONTROL = ~LCD_SIGNAL; 
028E:  MOVLB  4
0290:  MOVFF  436,0E
0294:  COMF   0E,F
....................     LCDDATA    = ~LCD_INS_HTHI;       
0296:  MOVFF  437,0D
029A:  COMF   0D,F
....................     XUAT_GLCD_LCD(); 
029C:  MOVLB  0
029E:  RCALL  0264
02A0:  RETURN 0
.................... } 
.................... //HAM 703 
.................... VOID XUAT_GLCD128X64(UNSIGNED INT8 GLCD_SIGNAL,GLCD_INS_HTHI) 
.................... {      
....................     GLCDCONTROL = ~GLCD_SIGNAL; 
*
03AE:  MOVLB  4
03B0:  MOVFF  431,10
03B4:  COMF   10,F
....................     GLCDDATA    = ~GLCD_INS_HTHI;      
03B6:  MOVFF  432,0F
03BA:  COMF   0F,F
....................     XUAT_GLCD_LCD(); 
03BC:  MOVLB  0
03BE:  RCALL  0264
03C0:  RETURN 0
.................... } 
.................... //HAM 501 
.................... //XXXXXXXXXXXXXXXXXXXXXXXXXXXXXXXXXXXXXXXXXXXX 
.................... //CHUONG TRINH CON XUAT 2 BYTE RA DK 1 LED QUET SANG 
.................... //XXXXXXXXXXXXXXXXXXXXXXXXXXXXXXXXXXXXXXXXXXXX 
.................... VOID XUAT_8LED_7DOAN_QUET_1(UNSIGNED INT MA,SO_HTHI) 
.................... {      
....................       XUAT_1BYTE(~MA);   XUAT_1BYTE(~SO_HTHI); 
*
0AEA:  MOVLB  4
0AEC:  MOVFF  42C,42E
0AF0:  COMF   x2E,F
0AF2:  MOVFF  42E,438
0AF6:  MOVLB  0
0AF8:  CALL   014A
0AFC:  MOVLB  4
0AFE:  MOVFF  42D,42E
0B02:  COMF   x2E,F
0B04:  MOVFF  42E,438
0B08:  MOVLB  0
0B0A:  CALL   014A
....................        
....................       MO_8_LED_QUET; 
0B0E:  BCF    05.4
....................       MO_IC_74573_B_THONG_DL(); 
0B10:  RCALL  0A6E
....................        
....................       OUTPUT_HIGH(RCK_8LEDQUET); OUTPUT_LOW(RCK_8LEDQUET); 
0B12:  BCF    F95.5
0B14:  BSF    F8C.5
0B16:  BCF    F95.5
0B18:  BCF    F8C.5
....................       CHOT_IC_74573_B_GOI_DU_LIEU; 
0B1A:  BCF    F95.0
0B1C:  BCF    F8C.0
0B1E:  GOTO   0B2C (RETURN)
.................... } 
.................... //HAM 502 
.................... //XXXXXXXXXXXXXXXXXXXXXXXXXXXXXXXXXXXXXXXXXXXX 
.................... //CHUONG TRINH CON XUAT 2 BYTE RA TAT 8 LED QUET 
.................... //XXXXXXXXXXXXXXXXXXXXXXXXXXXXXXXXXXXXXXXXXXXX 
.................... VOID XUAT_8LED_7DOAN_QUET_TAT_LED() 
.................... { 
....................    XUAT_8LED_7DOAN_QUET_1(0XFF,0XFF); 
0B22:  MOVLB  4
0B24:  SETF   x2C
0B26:  SETF   x2D
0B28:  MOVLB  0
0B2A:  BRA    0AEA
0B2C:  GOTO   0B74 (RETURN)
.................... } 
.................... //HAM 503 
.................... //XXXXXXXXXXXXXXXXXXXXXXXXXXXXXXXXXXXXXXXXXXXX 
.................... //CHUONG TRINH CON HIEN THI LED THEO THU TU 
.................... //XXXXXXXXXXXXXXXXXXXXXXXXXXXXXXXXXXXXXXXXXXXX 
.................... CONST UNSIGNED CHAR TTLEDQUET[8]= {0x7F,0xBF,0xDF,0xEF,0xF7,0xFB,0xFD,0xFE}; 
.................... VOID XUAT_8LED_7DOAN_QUET_2(UNSIGNED INT THUTULED,SO_HTHI) 
.................... {          
....................       XUAT_1BYTE(~ (TTLEDQUET[THUTULED]));   XUAT_1BYTE(~SO_HTHI);      
*
0A9C:  CLRF   03
0A9E:  MOVLB  4
0AA0:  MOVF   x2D,W
0AA2:  MOVFF  FF2,42F
0AA6:  BCF    FF2.7
0AA8:  MOVLB  0
0AAA:  CALL   0024
0AAE:  MOVLB  4
0AB0:  BTFSC  x2F.7
0AB2:  BSF    FF2.7
0AB4:  MOVWF  01
0AB6:  MOVWF  x2F
0AB8:  COMF   x2F,F
0ABA:  MOVFF  42F,438
0ABE:  MOVLB  0
0AC0:  CALL   014A
0AC4:  MOVLB  4
0AC6:  MOVFF  42E,42F
0ACA:  COMF   x2F,F
0ACC:  MOVFF  42F,438
0AD0:  MOVLB  0
0AD2:  CALL   014A
....................       MO_8_LED_QUET; 
0AD6:  BCF    05.4
....................       MO_IC_74573_B_THONG_DL(); 
0AD8:  RCALL  0A6E
....................       OUTPUT_HIGH(RCK_8LEDQUET); OUTPUT_LOW(RCK_8LEDQUET); 
0ADA:  BCF    F95.5
0ADC:  BSF    F8C.5
0ADE:  BCF    F95.5
0AE0:  BCF    F8C.5
....................       CHOT_IC_74573_B_GOI_DU_LIEU; 
0AE2:  BCF    F95.0
0AE4:  BCF    F8C.0
0AE6:  GOTO   0B68 (RETURN)
.................... } 
.................... //HAM 504 
.................... //XXXXXXXXXXXXXXXXXXXXXXXXXXXXXXXXXXXXXXXXXXXX 
.................... //CHUONG TRINH CON HIEN THI 8 SO TREN 8 LED QUET - CO KIEM TRA 
.................... //XXXXXXXXXXXXXXXXXXXXXXXXXXXXXXXXXXXXXXXXXXXX 
.................... UNSIGNED INT8 LED_7DQ[8]={0XFF,0XFF,0XFF,0XFF,0XFF,0XFF,0XFF,0XFF}; 
.................... UNSIGNED INT8 TT8LED=0; 
.................... VOID HIEN_THI_8LED_7DOAN_QUET() 
.................... {      
....................       FOR(TT8LED=0;TT8LED<8;TT8LED++) 
*
0B30:  CLRF   19
0B32:  MOVF   19,W
0B34:  SUBLW  07
0B36:  BNC   0B78
....................          IF (LED_7DQ[TT8LED]!=0XFF) 
0B38:  CLRF   03
0B3A:  MOVF   19,W
0B3C:  ADDLW  11
0B3E:  MOVWF  FE9
0B40:  MOVLW  00
0B42:  ADDWFC 03,W
0B44:  MOVWF  FEA
0B46:  INCFSZ FEF,W
0B48:  BRA    0B4C
0B4A:  BRA    0B74
....................          {            
....................             XUAT_8LED_7DOAN_QUET_2(TT8LED, LED_7DQ[TT8LED]); 
0B4C:  CLRF   03
0B4E:  MOVF   19,W
0B50:  ADDLW  11
0B52:  MOVWF  FE9
0B54:  MOVLW  00
0B56:  ADDWFC 03,W
0B58:  MOVWF  FEA
0B5A:  MOVFF  FEF,42C
0B5E:  MOVFF  19,42D
0B62:  MOVFF  42C,42E
0B66:  BRA    0A9C
....................             DELAY_US(100); 
0B68:  MOVLW  A6
0B6A:  MOVWF  00
0B6C:  DECFSZ 00,F
0B6E:  BRA    0B6C
0B70:  NOP   
....................             XUAT_8LED_7DOAN_QUET_TAT_LED();            
0B72:  BRA    0B22
0B74:  INCF   19,F
0B76:  BRA    0B32
....................             } 
0B78:  RETURN 0
.................... } 
.................... //HAM 505 
.................... //XXXXXXXXXXXXXXXXXXXXXXXXXXXXXXXXXXXXXXXXXXXX 
.................... //CHUONG TRINH CON HIEN THI 8 SO TREN 8 LED QUET - KHONG KIEM TRA 
.................... //XXXXXXXXXXXXXXXXXXXXXXXXXXXXXXXXXXXXXXXXXXXX 
.................... VOID HIEN_THI_8LED_7DOAN_QUET_ALL() 
.................... {      
....................       FOR(TT8LED=0;TT8LED<8;TT8LED++)          
....................          {            
....................             XUAT_8LED_7DOAN_QUET_2(TT8LED, LED_7DQ[TT8LED]); 
....................             DELAY_US(100); 
....................             XUAT_8LED_7DOAN_QUET_TAT_LED();            
....................             } 
.................... } 
....................  
.................... VOID DELAY_QUET_8LED(UNSIGNED INT16 DL) 
.................... {  
....................       UNSIGNED INT8 I; 
....................       FOR (I=0; I<DL;I++) 
....................       HIEN_THI_8LED_7DOAN_QUET_ALL(); 
.................... }  
....................  
.................... VOID GIAI_MA_GAN_CHO_8LED_QUET_16_XOA(UNSIGNED INT16 X) 
.................... {      
....................       LED_7DQ[0]= MA7DOAN [X %10];     
....................       LED_7DQ[1]= MA7DOAN [X/10%10]; 
....................       LED_7DQ[2]= MA7DOAN [X/100%10];     
....................       LED_7DQ[3]= MA7DOAN [X/1000%10]; 
....................       LED_7DQ[4]= MA7DOAN [X/10000%10]; 
....................       IF (LED_7DQ[4]==MASO0)  
....................       { 
....................             LED_7DQ[4]=0XFF; 
....................             IF (LED_7DQ[3]==MASO0)  
....................             { 
....................                LED_7DQ[3]=0XFF; 
....................                IF (LED_7DQ[2]==MASO0)  
....................                { 
....................                   LED_7DQ[2]=0XFF; 
....................                   IF (LED_7DQ[1]==MASO0)  
....................                   { 
....................                      LED_7DQ[1]=0XFF; 
....................                   } 
....................                } 
....................             } 
....................       } 
....................              
.................... } 
.................... //XXXXXXXXXXXXXXXXXXXXXXXXXXXXXXXXXXXXXXXXXXXX          
.................... VOID XUAT_2BYTE(UNSIGNED INT16 BYTE2XUAT) 
.................... { 
....................    INT8 SBB; 
....................    UNSIGNED INT16   XX;   //SHORT  BSERI; 
....................    #BIT BSERIX  = XX.15 
....................    XX = BYTE2XUAT; 
....................    FOR (SBB=0;SBB<16;SBB++) 
....................       {                                                  
....................          OUTPUT_BIT(SSDO,BSERIX);     
....................          OUTPUT_LOW(SSCK);          
....................          OUTPUT_HIGH(SSCK); 
....................          XX= XX<<1;          
....................      } 
.................... } 
.................... //XXXXXXXXXXXXXXXXXXXXXXXXXXXXXXXXXXXXXXXXXXXX 
.................... //CHUONG TRINH CON XUAT RA LED MA TRAN 
.................... //XXXXXXXXXXXXXXXXXXXXXXXXXXXXXXXXXXXXXXXXXXXX 
.................... VOID XUAT_MATRANLED(UNSIGNED INT16 MAHANG,UNSIGNED INT16 MACOT1, 
.................... UNSIGNED INT16 MACOT2,UNSIGNED INT16 MACOT3) 
.................... {       
....................       XUAT_2BYTE(MACOT3); 
....................       XUAT_2BYTE(MACOT2); 
....................       XUAT_2BYTE(MACOT1); 
....................       XUAT_2BYTE(MAHANG); 
....................        
....................       MO_LED_MATRAN; 
....................       MO_IC_74573_B_THONG_DL(); 
....................        
....................       OUTPUT_HIGH(RCK_MATRANLED); OUTPUT_LOW(RCK_MATRANLED);  
....................       CHOT_IC_74573_B_GOI_DU_LIEU; 
.................... } 
.................... //XXXXXXXXXXXXXXXXXXXXXXXXXXXXXXXXXXXXXXXXXXXX 
.................... //CHUONG TRINH CON XUAT RA LED MA TRAN 
.................... //XXXXXXXXXXXXXXXXXXXXXXXXXXXXXXXXXXXXXXXXXXXX 
.................... VOID TAT_MATRANLED() 
.................... {       
....................       XUAT_2BYTE(0); 
....................       XUAT_2BYTE(0); 
....................       XUAT_2BYTE(0); 
....................       XUAT_2BYTE(0);            
....................       OUTPUT_HIGH(RCK_MATRANLED);  
....................       OUTPUT_LOW(RCK_MATRANLED); 
.................... } 
.................... UNSIGNED  INT8 HIEU_CHINH_4BIT_CAO(UNSIGNED INT8 XZY) 
.................... { 
....................       INT1  BTG; 
....................       UNSIGNED INT8   BX;    
....................       #BIT BIT4  = BX.4 
....................       #BIT BIT5  = BX.5 
....................       #BIT BIT6  = BX.6 
....................       #BIT BIT7  = BX.7 
....................       BX=XZY; 
....................       BTG=BIT4;   BIT4=BIT7;  BIT7=BTG; 
....................       BTG=BIT5;   BIT5=BIT6;  BIT6=BTG;       
....................       RETURN(BX);   
.................... } 
.................... //HAM 601 
.................... //XXXXXXXXXXXXXXXXXXXXXXXXXXXXXXXXXXXXXXXXXXXXXXXXXXXX 
.................... //MODULE DIEU KHIEN RELAY,TRIAC, BUZZER, DONG CO, SIM 
.................... //XXXXXXXXXXXXXXXXXXXXXXXXXXXXXXXXXXXXXXXXXXXXXXXXXXXX 
.................... VOID XUAT_BUZZER_RELAY() 
.................... {      
....................    UNSIGNED INT8 RBDC1,RBDC2; 
....................       RBDC1=RBDC; RBDC2=RBDC>>8;       
....................       XUAT_1BYTE(RBDC2);       
....................       XUAT_1BYTE(RBDC1); 
....................       MO_RELAY_BUZZER_DC; 
....................       MO_IC_74573_B_THONG_DL(); 
....................        
....................       OUTPUT_HIGH(RCK_BUZERELAY);   OUTPUT_LOW(RCK_BUZERELAY); 
....................       CHOT_IC_74573_B_GOI_DU_LIEU; 
.................... } 
.................... //HAM 602 
.................... //XXXXXXXXXXXXXXXXXXXXXXXXXXXXXXXXXXXXXXXXXXXXXXXXXXXX 
.................... VOID BUZZER_ON() 
.................... {     
....................       BUZZER=1; 
....................       XUAT_BUZZER_RELAY();          
.................... } 
.................... //HAM 603 
.................... //XXXXXXXXXXXXXXXXXXXXXXXXXXXXXXXXXXXXXXXXXXXXXXXXXXXX 
.................... VOID BUZZER_OFF() 
.................... {      
....................       BUZZER=0; 
....................       XUAT_BUZZER_RELAY(); 
.................... } 
.................... //HAM 604 
.................... //XXXXXXXXXXXXXXXXXXXXXXXXXXXXXXXXXXXXXXXXXXXXXXXXXXXX 
.................... VOID RELAY_1_ON() 
.................... {     
....................       RELAY_1=1; 
....................       XUAT_BUZZER_RELAY();          
.................... } 
.................... //HAM 603 
.................... //XXXXXXXXXXXXXXXXXXXXXXXXXXXXXXXXXXXXXXXXXXXXXXXXXXXX 
.................... VOID RELAY_1_OFF() 
.................... {     
....................       RELAY_1=0; 
....................       XUAT_BUZZER_RELAY();          
.................... } 
.................... //HAM 604 
.................... //XXXXXXXXXXXXXXXXXXXXXXXXXXXXXXXXXXXXXXXXXXXXXXXXXXXX 
.................... VOID RELAY_2_ON() 
.................... {     
....................       RELAY_2=1; 
....................       XUAT_BUZZER_RELAY();          
.................... } 
.................... //HAM 607 
.................... //XXXXXXXXXXXXXXXXXXXXXXXXXXXXXXXXXXXXXXXXXXXXXXXXXXXX 
.................... VOID RELAY_2_OFF() 
.................... {     
....................       RELAY_2=0; 
....................       XUAT_BUZZER_RELAY();          
.................... } 
.................... //HAM 608 
.................... //XXXXXXXXXXXXXXXXXXXXXXXXXXXXXXXXXXXXXXXXXXXXXXXXXXXX 
.................... VOID RELAY_1_RELAY_2_ON() 
.................... {     
....................       RELAY_1=1;  RELAY_2=1; 
....................       XUAT_BUZZER_RELAY();          
.................... } 
.................... //HAM 609 
.................... //XXXXXXXXXXXXXXXXXXXXXXXXXXXXXXXXXXXXXXXXXXXXXXXXXXXX 
.................... VOID RELAY_1_RELAY_2_OFF() 
.................... {     
....................       RELAY_1=0;  RELAY_2=0; 
....................       XUAT_BUZZER_RELAY();          
.................... } 
.................... //HAM 610 
.................... //XXXXXXXXXXXXXXXXXXXXXXXXXXXXXXXXXXXXXXXXXXXXXXXXXXXX 
.................... VOID TRIAC_1_ON() 
.................... {     
....................       TRIAC_1=1; 
....................       XUAT_BUZZER_RELAY();          
.................... } 
.................... //HAM 611 
.................... //XXXXXXXXXXXXXXXXXXXXXXXXXXXXXXXXXXXXXXXXXXXXXXXXXXXX 
.................... VOID TRIAC_1_OFF() 
.................... {     
....................       TRIAC_1=0; 
....................       XUAT_BUZZER_RELAY();          
.................... } 
.................... //HAM 612 
.................... //XXXXXXXXXXXXXXXXXXXXXXXXXXXXXXXXXXXXXXXXXXXXXXXXXXXX 
.................... VOID TRIAC_2_ON() 
.................... {     
....................       TRIAC_2=1; 
....................       XUAT_BUZZER_RELAY();          
.................... } 
.................... //HAM 613 
.................... //XXXXXXXXXXXXXXXXXXXXXXXXXXXXXXXXXXXXXXXXXXXXXXXXXXXX 
.................... VOID TRIAC_2_OFF() 
.................... {     
....................       TRIAC_2=0; 
....................       XUAT_BUZZER_RELAY();          
.................... } 
.................... //XXXXXXXXXXXXXXXXXXXXXXXXXXXXXXXXXXXXXXXXXXXX 
....................  
....................  
....................  
.................... #include<TV_pickit2_shift_key4x4_138.c> 
.................... CONST UNSIGNED CHAR MAQUETKEY[4]= {0x3F,0x7F,0xBF,0xFF}; 
.................... UNSIGNED INT8  MPT1=0,MPT2=0;   
.................... UNSIGNED INT KEY_NHAN() 
.................... {     SIGNED INT8 MAPHIM,HANG,COT; 
....................       MAPHIM=HANG=0XFF; 
0B7A:  MOVLB  4
0B7C:  SETF   x2D
0B7E:  MOVFF  42D,42C
....................       FOR(COT=0;COT<4;COT++) 
0B82:  CLRF   x2E
0B84:  BTFSC  x2E.7
0B86:  BRA    0B8E
0B88:  MOVF   x2E,W
0B8A:  SUBLW  03
0B8C:  BNC   0BE0
....................             {    
....................                OUTPUT_B(MAQUETKEY[COT]); 
0B8E:  CLRF   03
0B90:  MOVF   x2E,W
0B92:  MOVFF  FF2,42F
0B96:  BCF    FF2.7
0B98:  MOVLB  0
0B9A:  CALL   003C
0B9E:  MOVLB  4
0BA0:  BTFSC  x2F.7
0BA2:  BSF    FF2.7
0BA4:  CLRF   F93
0BA6:  MOVWF  F8A
....................                IF         (!INPUT(PIN_B2))      {HANG=3;   BREAK;} 
0BA8:  BSF    F93.2
0BAA:  BTFSC  F81.2
0BAC:  BRA    0BB6
0BAE:  MOVLW  03
0BB0:  MOVWF  x2D
0BB2:  BRA    0BE0
0BB4:  BRA    0BDC
....................                ELSE    IF (!INPUT(PIN_B3))      {HANG=2;   BREAK;} 
0BB6:  BSF    F93.3
0BB8:  BTFSC  F81.3
0BBA:  BRA    0BC4
0BBC:  MOVLW  02
0BBE:  MOVWF  x2D
0BC0:  BRA    0BE0
0BC2:  BRA    0BDC
....................                ELSE    IF (!INPUT(PIN_B4))      {HANG=1;   BREAK;}                   
0BC4:  BSF    F93.4
0BC6:  BTFSC  F81.4
0BC8:  BRA    0BD2
0BCA:  MOVLW  01
0BCC:  MOVWF  x2D
0BCE:  BRA    0BE0
0BD0:  BRA    0BDC
....................                ELSE    IF (!INPUT(PIN_B5))      {HANG=0;   BREAK;} 
0BD2:  BSF    F93.5
0BD4:  BTFSC  F81.5
0BD6:  BRA    0BDC
0BD8:  CLRF   x2D
0BDA:  BRA    0BE0
0BDC:  INCF   x2E,F
0BDE:  BRA    0B84
....................             }           
....................          IF (HANG!=0XFF)   MAPHIM   = COT*4 + HANG; 
0BE0:  INCFSZ x2D,W
0BE2:  BRA    0BE6
0BE4:  BRA    0BFA
0BE6:  MOVFF  42E,435
0BEA:  MOVLW  04
0BEC:  MOVWF  x36
0BEE:  MOVLB  0
0BF0:  RCALL  071E
0BF2:  MOVLB  4
0BF4:  MOVF   x2D,W
0BF6:  ADDWF  01,W
0BF8:  MOVWF  x2C
....................          RETURN(MAPHIM); 
0BFA:  MOVFF  42C,01
0BFE:  MOVLB  0
0C00:  RETURN 0
.................... } 
.................... UNSIGNED INT KEY_4X4_DW() 
.................... {      
....................       MPT1=KEY_NHAN();          
....................       IF (MPT1!=0XFF)    
....................       {  DELAY_MS(1);   
....................          MPT1=KEY_NHAN(); 
....................          DO{MPT2=KEY_NHAN();} 
....................          WHILE (MPT2==MPT1); 
....................       }              
....................       RETURN(MPT1); 
.................... } 
....................  
.................... UNSIGNED INT KEY_4X4_UP() 
.................... {             
....................       MPT1=KEY_NHAN(); 
....................       IF (MPT1!=0XFF)    
....................       {   
....................          IF (MPT1!=MPT2) 
....................             { 
....................                RETURN(MPT1);  //PHIM MOI 
....................                MPT2=MPT1; 
....................             } 
....................          ELSE 
....................          { 
....................             DELAY_MS(1); 
....................             MPT1=KEY_NHAN(); 
....................             DO 
....................             { 
....................                MPT2=KEY_NHAN(); 
....................                } 
....................             WHILE (MPT2!=MPT1); 
....................                RETURN(MPT1);     //THOAT VI TRUNG MA PHIM DA NHAN 
....................                MPT2=MPT1;            
....................          } 
....................       }   
....................       ELSE  
....................       { 
....................          RETURN(MPT1);  //THOAT VI KHONG NHAN 
....................          MPT2=MPT1; 
....................       }       
.................... } 
....................  
....................  
....................  
.................... #include <tv_pickit2_shift_lcd.c>// LCD 
.................... UNSIGNED INT8 LCD_CONTROL;   
.................... #bit LCD_P = LCD_CONTROL.3 
.................... #bit LCD_RS = LCD_CONTROL.2 
.................... #bit LCD_RW = LCD_CONTROL.1 
.................... #bit LCD_E  = LCD_CONTROL.0 
....................  
.................... #DEFINE LCD_FUNCTION_SET       0X38 
.................... #DEFINE LCD_DISPLAY_CONTROL    0X0C 
.................... #DEFINE LCD_CLEAR_DISPLAY      0X01 
.................... #DEFINE LCD_ENTRY_MODE         0X06 
.................... #DEFINE LCD_SHIFT_LEFT         0X18 
.................... #DEFINE LCD_SHIFT_RIGHT        0X1C 
....................  
.................... #DEFINE LCD_ADDR_LINE1         0X80 
.................... #DEFINE LCD_ADDR_LINE2         0XC0 
.................... #DEFINE LCD_ADDR_LINE3         0X94 
.................... #DEFINE LCD_ADDR_LINE4         0XD4 
....................  
.................... VOID LCD_XUAT_8BIT(INT8 LCD_DATA_X) 
.................... { 
....................       LCD_E=1; XUAT_LCD20X4(LCD_CONTROL,LCD_DATA_X);      
*
02A2:  BSF    1C.0
02A4:  MOVFF  1C,436
02A8:  MOVFF  435,437
02AC:  RCALL  028E
....................       LCD_E=0; XUAT_LCD20X4(LCD_CONTROL,LCD_DATA_X);  
02AE:  BCF    1C.0
02B0:  MOVFF  1C,436
02B4:  MOVFF  435,437
02B8:  RCALL  028E
02BA:  RETURN 0
.................... } 
.................... void LCD_COMMAND(INT8 LCD_DATA_X)    
....................   { 
....................       LCD_RS = 0; 
02BC:  BCF    1C.2
....................       LCD_XUAT_8BIT(LCD_DATA_X); 
02BE:  MOVFF  434,435
02C2:  RCALL  02A2
....................       DELAY_US(20); 
02C4:  MOVLW  20
02C6:  MOVWF  00
02C8:  DECFSZ 00,F
02CA:  BRA    02C8
02CC:  BRA    02CE
02CE:  NOP   
02D0:  RETURN 0
....................   } 
.................... void LCD_DATA(INT8 LCD_DATA_X)        
....................   { 
....................       LCD_RS = 1;      
*
0356:  BSF    1C.2
....................       LCD_XUAT_8BIT(LCD_DATA_X); 
0358:  MOVFF  431,435
035C:  RCALL  02A2
....................       DELAY_US(20); 
035E:  MOVLW  20
0360:  MOVWF  00
0362:  DECFSZ 00,F
0364:  BRA    0362
0366:  BRA    0368
0368:  NOP   
036A:  RETURN 0
....................   } 
....................    
.................... VOID SETUP_LCD () 
.................... {                      
....................          LCD_E  = 0;  
*
02FA:  BCF    1C.0
....................          LCD_RW = 0;  
02FC:  BCF    1C.1
....................          LCD_RS = 1;  
02FE:  BSF    1C.2
....................          LCD_P =0; 
0300:  BCF    1C.3
....................          LCD_COMMAND(LCD_FUNCTION_SET);          
0302:  MOVLW  38
0304:  MOVLB  4
0306:  MOVWF  x34
0308:  MOVLB  0
030A:  RCALL  02BC
....................          DELAY_US(40); 
030C:  MOVLW  42
030E:  MOVWF  00
0310:  DECFSZ 00,F
0312:  BRA    0310
0314:  NOP   
....................          LCD_COMMAND(LCD_DISPLAY_CONTROL);    
0316:  MOVLW  0C
0318:  MOVLB  4
031A:  MOVWF  x34
031C:  MOVLB  0
031E:  RCALL  02BC
....................          DELAY_US(40); 
0320:  MOVLW  42
0322:  MOVWF  00
0324:  DECFSZ 00,F
0326:  BRA    0324
0328:  NOP   
....................          LCD_COMMAND(LCD_CLEAR_DISPLAY);       
032A:  MOVLW  01
032C:  MOVLB  4
032E:  MOVWF  x34
0330:  MOVLB  0
0332:  RCALL  02BC
....................          DELAY_MS(2); 
0334:  MOVLW  02
0336:  MOVLB  4
0338:  MOVWF  x2D
033A:  MOVLB  0
033C:  RCALL  02D2
....................          LCD_COMMAND(LCD_ENTRY_MODE);        
033E:  MOVLW  06
0340:  MOVLB  4
0342:  MOVWF  x34
0344:  MOVLB  0
0346:  RCALL  02BC
....................          DELAY_US(40);                 
0348:  MOVLW  42
034A:  MOVWF  00
034C:  DECFSZ 00,F
034E:  BRA    034C
0350:  NOP   
0352:  GOTO   1186 (RETURN)
.................... } 
....................  
.................... CONST UNSIGNED CHAR LCD_SO_X[10+1+1][6] ={ 
....................                   0,1,2,5,3,4,               // SO 0 
....................                   1,2,32,3,7,3,              // SO 1 
....................                   6,6,2,5,3,3,               // SO 2 
....................                   6,6,2,3,3,4,               // SO 3 
....................                   7,3,7,32,32,7,             // SO 4 
....................                   7,6,6,3,3,4,               // SO 5 
....................                   0,6,6,5,3,4,               // SO 6 
....................                   1,1,7,32,32,7,             // SO 7 
....................                   0,6,2,5,3,4,               // SO 8 
....................                   0,6,2,3,3,4,               // SO 9 
....................                   32,32,32,32,32,32,         // KHOANG TRANG 0x20 tai vi tri 10 
....................                   0,6,2,5,32,32,              // CHU "P" tai vi tri 11 
....................                   }; 
....................                    
....................                    
.................... CONST UNSIGNED CHAR LCD_MA_8DOAN[] = { 
....................    0x07,0x0F,0x1F,0x1F,0x1F,0x1F,0x1F,0x1F,  //DOAN F - 0 
....................    0x1F,0x1F,0x1F,0X00,0X00,0X00,0X00,0X00,  //DOAN A - 1 
....................    0x1C,0x1E,0x1F,0x1F,0x1F,0x1F,0x1F,0x1F,  //DOAN B - 2 
....................    0X00,0X00,0X00,0X00,0X00,0x1F,0x1F,0x1F,  //DOAN D - 3 
....................    0x1F,0x1F,0x1F,0x1F,0x1F,0x1F,0x1E,0x1C,  //DOAN C - 4 
....................    0x1F,0x1F,0x1F,0x1F,0x1F,0x1F,0x0F,0x07,  //DOAN E - 5 
....................    0x1F,0x1F,0x1F,0X00,0X00,0X00,0x1F,0x1F,  //DOAN G+D-6  
....................    0x1F,0x1F,0x1F,0x1F,0x1F,0x1F,0x1F,0x1F}; //DOAN I  -7 
....................     
.................... VOID LCD_GOTO_XY(SIGNED INT8 X, SIGNED INT8 Y) 
.................... {  
....................    CONST UNSIGNED INT8 LCD_VITRI[]={0x80,0xC0,0x94,0xD4}; 
....................    LCD_COMMAND(LCD_VITRI[X]+Y); 
*
036C:  CLRF   03
036E:  MOVLB  4
0370:  MOVF   x31,W
0372:  MOVFF  FF2,433
0376:  BCF    FF2.7
0378:  MOVLB  0
037A:  RCALL  00F8
037C:  MOVLB  4
037E:  BTFSC  x33.7
0380:  BSF    FF2.7
0382:  ADDWF  x32,W
0384:  MOVWF  x33
0386:  MOVWF  x34
0388:  MOVLB  0
038A:  RCALL  02BC
038C:  RETURN 0
.................... } 
....................  
.................... VOID XXX() 
.................... {  
....................    SIGNED INT8 X; 
....................    X= LCD_SO_X[0][0]; 
....................    X= LCD_MA_8DOAN[0]; 
.................... } 
....................  
.................... #include <tv_pickit2_shift_glcd128x64.c>// GLCD 
.................... UNSIGNED INT8 GLCD_CONTROL;   
.................... #bit GLCD_P    = GLCD_CONTROL.5 
.................... #bit GLCD_RS   = GLCD_CONTROL.4 
.................... #bit GLCD_RW   = GLCD_CONTROL.3 
.................... #bit GLCD_E    = GLCD_CONTROL.2 
.................... #bit GLCD_CS2  = GLCD_CONTROL.1 
.................... #bit GLCD_CS1  = GLCD_CONTROL.0 
....................  
.................... //#DEFINE GLCD_FUNCTION_SET       0X30 
.................... #DEFINE GLCD_TEXT_MODE          0x30 
.................... #DEFINE GLCD_GRAPHIC_MODE       0x36  
....................  
.................... #DEFINE GLCD_CLEAR_DISPLAY      0X01 
.................... #DEFINE GLCD_CURSOR_DISPLAY     0X0C 
.................... #DEFINE GLCD_ENTRY_MODE         0X06 
....................  
....................  
.................... #DEFINE GLCD_ADDR_LINE1         0X80 
.................... #DEFINE GLCD_ADDR_LINE2         0X90 
.................... #DEFINE GLCD_ADDR_LINE3         0X88 
.................... #DEFINE GLCD_ADDR_LINE4         0X98 
....................  
.................... VOID GLCD_XUAT_8BIT(INT8 GLCD_DATA1) 
.................... { 
....................       GLCD_E=1; XUAT_GLCD128X64(GLCD_CONTROL,GLCD_DATA1);      
*
03C2:  BSF    1D.2
03C4:  MOVFF  1D,431
03C8:  MOVFF  430,432
03CC:  RCALL  03AE
....................       GLCD_E=0; XUAT_GLCD128X64(GLCD_CONTROL,GLCD_DATA1);  
03CE:  BCF    1D.2
03D0:  MOVFF  1D,431
03D4:  MOVFF  430,432
03D8:  RCALL  03AE
03DA:  RETURN 0
.................... } 
....................  
.................... void GLCD_COMMAND(INT8 GLCD_DATA2)    
....................   { 
....................       GLCD_RS = 0; 
03DC:  BCF    1D.4
....................       GLCD_XUAT_8BIT(GLCD_DATA2);       
03DE:  MOVFF  42D,430
03E2:  RCALL  03C2
03E4:  RETURN 0
....................   } 
.................... void GLCD_DATA(INT8 GLCD_DATA3)        
....................   { 
....................       GLCD_RS = 1;      
*
097E:  BSF    1D.4
....................       GLCD_XUAT_8BIT(GLCD_DATA3);      
0980:  MOVFF  42F,430
0984:  RCALL  03C2
0986:  RETURN 0
....................   } 
....................    
....................   VOID GLCD_DATA_X(INT8 GLCD_DATA3) 
.................... { 
....................       GLCD_RS = 1;      
....................       GLCD_XUAT_8BIT(0XA1); 
....................       GLCD_XUAT_8BIT(0X40);   
.................... } 
.................... VOID SETUP_GLCD (INT8 GLCD_FUNCTION_SET_MODE) 
.................... {                      
....................          GLCD_CS1 = 1; 
*
03E6:  BSF    1D.0
....................          GLCD_CS2 = 1; 
03E8:  BSF    1D.1
....................          GLCD_E  = 0; 
03EA:  BCF    1D.2
....................          GLCD_RW = 0;           
03EC:  BCF    1D.3
....................          GLCD_P =0;          
03EE:  BCF    1D.5
....................          GLCD_COMMAND(GLCD_FUNCTION_SET_MODE);          
03F0:  MOVFF  42C,42D
03F4:  RCALL  03DC
....................          DELAY_US(10); 
03F6:  MOVLW  10
03F8:  MOVWF  00
03FA:  DECFSZ 00,F
03FC:  BRA    03FA
03FE:  NOP   
....................          GLCD_COMMAND(GLCD_CURSOR_DISPLAY);        
0400:  MOVLW  0C
0402:  MOVLB  4
0404:  MOVWF  x2D
0406:  MOVLB  0
0408:  RCALL  03DC
....................          DELAY_US(10);     
040A:  MOVLW  10
040C:  MOVWF  00
040E:  DECFSZ 00,F
0410:  BRA    040E
0412:  NOP   
....................          GLCD_COMMAND(GLCD_CLEAR_DISPLAY);       
0414:  MOVLW  01
0416:  MOVLB  4
0418:  MOVWF  x2D
041A:  MOVLB  0
041C:  RCALL  03DC
....................          DELAY_MS(2); 
041E:  MOVLW  02
0420:  MOVLB  4
0422:  MOVWF  x2D
0424:  MOVLB  0
0426:  RCALL  02D2
....................          GLCD_COMMAND(GLCD_ENTRY_MODE);       
0428:  MOVLW  06
042A:  MOVLB  4
042C:  MOVWF  x2D
042E:  MOVLB  0
0430:  RCALL  03DC
....................          DELAY_US(10);                           
0432:  MOVLW  10
0434:  MOVWF  00
0436:  DECFSZ 00,F
0438:  BRA    0436
043A:  NOP   
043C:  RETURN 0
.................... } 
....................  
.................... #DEFINE GLCD_NGANG     16 //256 PIXEL 
.................... #DEFINE GLCD_DOC       32 //32 HANG 
.................... #DEFINE GLCD_WIDTH     128 //DANH CHO THU VIEN GRAPHIC.C 
.................... int8 DOC, NGANG; 
....................  
.................... typedef union  
.................... {  
....................   unsigned int16 word;  
....................   unsigned int8 nbyte[2];  
.................... } Dots;  
....................  
.................... typedef struct  
.................... {  
....................   int1 refresh;  
....................   Dots PIXEL[GLCD_DOC][GLCD_NGANG];     
....................   } GD_RAM;     
....................  
.................... GD_RAM gdram_vdk;  
....................  
....................  
.................... void GLCD_MAU_NEN(int1 GLCD_COLOR)  
.................... {   
....................   int16 d;  
....................   if(GLCD_COLOR)  d=0xffff; else d=0; 
*
0460:  MOVLB  4
0462:  MOVF   x2C,F
0464:  BZ    046C
0466:  SETF   x2E
0468:  SETF   x2D
046A:  BRA    0470
046C:  CLRF   x2E
046E:  CLRF   x2D
....................   for (DOC=0; DOC < GLCD_DOC; DOC++)  
0470:  CLRF   1E
0472:  MOVF   1E,W
0474:  SUBLW  1F
0476:  BNC   04D4
....................   {  
....................     for (NGANG=0; NGANG < GLCD_NGANG; NGANG++)  
0478:  CLRF   1F
047A:  MOVF   1F,W
047C:  SUBLW  0F
047E:  BNC   04D0
....................     {  
....................       gdram_vdk.PIXEL[DOC][NGANG].word = d;  
0480:  CLRF   x4D
0482:  MOVFF  1E,44C
0486:  CLRF   x4F
0488:  MOVLW  20
048A:  MOVWF  x4E
048C:  MOVLB  0
048E:  RCALL  043E
0490:  MOVFF  02,03
0494:  MOVF   01,W
0496:  ADDLW  01
0498:  MOVLB  4
049A:  MOVWF  x2F
049C:  MOVLW  00
049E:  ADDWFC 02,W
04A0:  MOVWF  x30
04A2:  CLRF   03
04A4:  MOVFF  1F,02
04A8:  BCF    FD8.0
04AA:  RLCF   02,F
04AC:  RLCF   03,F
04AE:  MOVF   02,W
04B0:  ADDWF  x2F,F
04B2:  MOVF   03,W
04B4:  ADDWFC x30,F
04B6:  MOVLW  20
04B8:  ADDWF  x2F,W
04BA:  MOVWF  FE9
04BC:  MOVLW  00
04BE:  ADDWFC x30,W
04C0:  MOVWF  FEA
04C2:  MOVFF  42E,FEC
04C6:  MOVF   FED,F
04C8:  MOVFF  42D,FEF
04CC:  INCF   1F,F
04CE:  BRA    047A
....................     }  
04D0:  INCF   1E,F
04D2:  BRA    0472
....................   }  
....................   gdram_vdk.refresh = TRUE;  
04D4:  BSF    20.0
04D6:  MOVLB  0
04D8:  GOTO   11FE (RETURN)
.................... }  
....................  
.................... void glcd_pixel(int8 x, int8 y, int1 color)  
.................... {  
....................   int8  b;  
....................   if(y>31){x += 128; y-= 32;};  
04DC:  MOVLB  4
04DE:  MOVF   x49,W
04E0:  SUBLW  1F
04E2:  BC    04EC
04E4:  MOVLW  80
04E6:  ADDWF  x48,F
04E8:  MOVLW  20
04EA:  SUBWF  x49,F
....................   DOC = y;  
04EC:  MOVFF  449,1E
....................   NGANG = x/16;  
04F0:  SWAPF  x48,W
04F2:  MOVWF  1F
04F4:  MOVLW  0F
04F6:  ANDWF  1F,F
....................   b = 15 - (x % 16);  
04F8:  MOVF   x48,W
04FA:  ANDLW  0F
04FC:  XORLW  FF
04FE:  ADDLW  10
0500:  MOVWF  x4B
....................    
....................   if (color == 1) bit_set (gdram_vdk.PIXEL[DOC][NGANG].word, b);  
0502:  DECFSZ x4A,W
0504:  BRA    0570
0506:  CLRF   x4D
0508:  MOVFF  1E,44C
050C:  CLRF   x4F
050E:  MOVLW  20
0510:  MOVWF  x4E
0512:  MOVLB  0
0514:  RCALL  043E
0516:  MOVFF  02,03
051A:  MOVF   01,W
051C:  ADDLW  01
051E:  MOVLB  4
0520:  MOVWF  x4C
0522:  MOVLW  00
0524:  ADDWFC 02,W
0526:  MOVWF  x4D
0528:  CLRF   03
052A:  MOVFF  1F,02
052E:  BCF    FD8.0
0530:  RLCF   02,F
0532:  RLCF   03,F
0534:  MOVF   02,W
0536:  ADDWF  x4C,F
0538:  MOVF   03,W
053A:  ADDWFC x4D,F
053C:  MOVLW  20
053E:  ADDWF  x4C,W
0540:  MOVWF  01
0542:  MOVLW  00
0544:  ADDWFC x4D,W
0546:  MOVWF  03
0548:  MOVFF  01,FE9
054C:  MOVWF  FEA
054E:  CLRF   03
0550:  MOVLW  01
0552:  MOVWF  02
0554:  MOVF   x4B,W
0556:  MOVWF  00
0558:  BZ    0564
055A:  BCF    FD8.0
055C:  RLCF   02,F
055E:  RLCF   03,F
0560:  DECFSZ 00,F
0562:  BRA    055A
0564:  MOVF   02,W
0566:  IORWF  FEF,F
0568:  MOVF   03,W
056A:  IORWF  FEC,W
056C:  MOVWF  FEF
056E:  BRA    05E2
....................   else bit_clear (gdram_vdk.PIXEL[DOC][NGANG].word, b);  
0570:  CLRF   x4D
0572:  MOVFF  1E,44C
0576:  CLRF   x4F
0578:  MOVLW  20
057A:  MOVWF  x4E
057C:  MOVLB  0
057E:  RCALL  043E
0580:  MOVFF  02,03
0584:  MOVF   01,W
0586:  ADDLW  01
0588:  MOVLB  4
058A:  MOVWF  x4C
058C:  MOVLW  00
058E:  ADDWFC 02,W
0590:  MOVWF  x4D
0592:  CLRF   03
0594:  MOVFF  1F,02
0598:  BCF    FD8.0
059A:  RLCF   02,F
059C:  RLCF   03,F
059E:  MOVF   02,W
05A0:  ADDWF  x4C,F
05A2:  MOVF   03,W
05A4:  ADDWFC x4D,F
05A6:  MOVLW  20
05A8:  ADDWF  x4C,W
05AA:  MOVWF  01
05AC:  MOVLW  00
05AE:  ADDWFC x4D,W
05B0:  MOVWF  03
05B2:  MOVFF  01,FE9
05B6:  MOVWF  FEA
05B8:  CLRF   03
05BA:  MOVLW  01
05BC:  MOVWF  02
05BE:  MOVF   x4B,W
05C0:  MOVWF  00
05C2:  BZ    05CE
05C4:  BCF    FD8.0
05C6:  RLCF   02,F
05C8:  RLCF   03,F
05CA:  DECFSZ 00,F
05CC:  BRA    05C4
05CE:  MOVF   02,W
05D0:  XORLW  FF
05D2:  MOVWF  00
05D4:  MOVLW  FF
05D6:  XORWF  03,F
05D8:  MOVF   00,W
05DA:  ANDWF  FEF,F
05DC:  MOVF   03,W
05DE:  ANDWF  FEC,W
05E0:  MOVWF  FEF
....................   gdram_vdk.refresh = TRUE;  
05E2:  BSF    20.0
05E4:  MOVLB  0
05E6:  RETURN 0
.................... }  
....................  
....................  
.................... void GDRAM_VDK_TO_GDRAM_GLCD_ALL()  
.................... {  
....................   if (gdram_vdk.refresh)  
*
0988:  BTFSS  20.0
098A:  BRA    0A6A
....................   {  
....................     for (DOC = 0; DOC <GLCD_DOC; DOC++)  
098C:  CLRF   1E
098E:  MOVF   1E,W
0990:  SUBLW  1F
0992:  BNC   0A68
....................     {  
....................       GLCD_COMMAND( 0x80 | DOC);   // Set Vertical Address.  
0994:  MOVF   1E,W
0996:  IORLW  80
0998:  MOVLB  4
099A:  MOVWF  x2C
099C:  MOVWF  x2D
099E:  MOVLB  0
09A0:  RCALL  03DC
....................       GLCD_COMMAND( 0x80 | 0);   // Set Horizontal Address.  
09A2:  MOVLW  80
09A4:  MOVLB  4
09A6:  MOVWF  x2D
09A8:  MOVLB  0
09AA:  RCALL  03DC
....................  
....................       for (NGANG=0; NGANG <GLCD_NGANG; NGANG++)  
09AC:  CLRF   1F
09AE:  MOVF   1F,W
09B0:  SUBLW  0F
09B2:  BNC   0A64
....................       {  
....................         GLCD_DATA( gdram_vdk.PIXEL[DOC][NGANG].nbyte[1]);   // Write High Byte.  
09B4:  MOVLB  4
09B6:  CLRF   x4D
09B8:  MOVFF  1E,44C
09BC:  CLRF   x4F
09BE:  MOVLW  20
09C0:  MOVWF  x4E
09C2:  MOVLB  0
09C4:  RCALL  043E
09C6:  MOVFF  02,03
09CA:  MOVF   01,W
09CC:  ADDLW  01
09CE:  MOVLB  4
09D0:  MOVWF  x2C
09D2:  MOVLW  00
09D4:  ADDWFC 02,W
09D6:  MOVWF  x2D
09D8:  CLRF   03
09DA:  MOVFF  1F,02
09DE:  BCF    FD8.0
09E0:  RLCF   02,F
09E2:  RLCF   03,F
09E4:  MOVF   02,W
09E6:  ADDWF  x2C,F
09E8:  MOVF   03,W
09EA:  ADDWFC x2D,F
09EC:  MOVLW  01
09EE:  ADDWF  x2C,W
09F0:  MOVWF  01
09F2:  MOVLW  00
09F4:  ADDWFC x2D,W
09F6:  MOVWF  03
09F8:  MOVF   01,W
09FA:  ADDLW  20
09FC:  MOVWF  FE9
09FE:  MOVLW  00
0A00:  ADDWFC 03,W
0A02:  MOVWF  FEA
0A04:  MOVFF  FEF,42C
0A08:  MOVFF  42C,42F
0A0C:  MOVLB  0
0A0E:  RCALL  097E
....................         GLCD_DATA( gdram_vdk.PIXEL[DOC][NGANG].nbyte[0]);   // Write Low Byte.  
0A10:  MOVLB  4
0A12:  CLRF   x4D
0A14:  MOVFF  1E,44C
0A18:  CLRF   x4F
0A1A:  MOVLW  20
0A1C:  MOVWF  x4E
0A1E:  MOVLB  0
0A20:  RCALL  043E
0A22:  MOVFF  02,03
0A26:  MOVF   01,W
0A28:  ADDLW  01
0A2A:  MOVLB  4
0A2C:  MOVWF  x2C
0A2E:  MOVLW  00
0A30:  ADDWFC 02,W
0A32:  MOVWF  x2D
0A34:  CLRF   03
0A36:  MOVFF  1F,02
0A3A:  BCF    FD8.0
0A3C:  RLCF   02,F
0A3E:  RLCF   03,F
0A40:  MOVF   02,W
0A42:  ADDWF  x2C,F
0A44:  MOVF   03,W
0A46:  ADDWFC x2D,F
0A48:  MOVLW  20
0A4A:  ADDWF  x2C,W
0A4C:  MOVWF  FE9
0A4E:  MOVLW  00
0A50:  ADDWFC x2D,W
0A52:  MOVWF  FEA
0A54:  MOVFF  FEF,42E
0A58:  MOVFF  42E,42F
0A5C:  MOVLB  0
0A5E:  RCALL  097E
0A60:  INCF   1F,F
0A62:  BRA    09AE
....................       }  
0A64:  INCF   1E,F
0A66:  BRA    098E
....................     }  
....................     gdram_vdk.refresh = FALSE;  
0A68:  BCF    20.0
....................   }  
0A6A:  GOTO   121A (RETURN)
.................... }  
....................  
.................... void GDRAM_VDK_TO_GDRAM_GLCD_AREA (int8 x,int8 y,int8 rong, int8 cao) 
.................... { 
....................   int8 hesox,hesoy;  
....................   if (gdram_vdk.refresh)  
....................   {  
....................       if((x/16)!=(x + rong)/16) 
....................             rong=((rong+15)/16)+1; 
....................       else rong=((rong+15)/16);  
....................        
....................       x = x/16; 
....................       for (DOC = y; DOC <(y+cao); DOC++)  
....................       {  
....................          if(DOC>31) 
....................             {   
....................                hesox = 8+x; 
....................                hesoy = DOC-32; 
....................                } 
....................          else {hesox = x; hesoy = DOC;} 
....................          GLCD_COMMAND( 0x80 |hesoy);    
....................          GLCD_COMMAND( 0x80 |hesox);   
....................        
....................          for (NGANG=hesox; NGANG <(hesox+rong); NGANG++)  
....................          {  
....................             GLCD_DATA( gdram_vdk.PIXEL[hesoy][NGANG].nbyte[1]);   // Write High Byte.  
....................             GLCD_DATA( gdram_vdk.PIXEL[hesoy][NGANG].nbyte[0]);   // Write Low Byte.  
....................          }  
....................        }  
....................     gdram_vdk.refresh = FALSE;  
....................   }       
.................... } 
....................  
....................  
.................... //!const unsigned char Logo_DHSPKTTP []= { 0X00,0X01,0X2E,0X00,0X39,0X00, 
.................... //!0X00,0X00,0X00,0X00,0X00,0X00,0X00,0X00,0X00,0X00,0X00,0X00,0X00,0X00,0X00,0X00, 
.................... //!0X00,0X00,0X00,0X00,0X00,0X00,0X00,0X00,0X00,0X00,0X00,0X00,0X00,0X00,0X00,0X00, 
.................... //!0X00,0X00,0X00,0X00,0X00,0X00,0X00,0X00,0X00,0X00,0X00,0X00,0X02,0X00,0X00,0X00, 
.................... //!0X00,0X00,0X02,0X00,0X00,0X00,0X00,0X00,0X02,0X04,0X00,0X00,0X00,0X01,0X02,0X0C, 
.................... //!0X00,0X00,0X00,0X01,0X82,0X0C,0X00,0X00,0X00,0X00,0X80,0X08,0X00,0X00,0X00,0X00, 
.................... //!0X80,0X00,0X00,0X00,0X00,0X00,0X0F,0X80,0X00,0X00,0X00,0X00,0X3F,0XC0,0X00,0X00, 
.................... //!0X00,0X70,0X70,0X70,0X70,0X00,0X00,0X38,0XC8,0X18,0XE0,0X00,0X00,0X18,0XD8,0X18, 
.................... //!0XC0,0X00,0X00,0X01,0XB0,0X0C,0X00,0X00,0X00,0X01,0XA0,0X0C,0X00,0X00,0X00,0X01, 
.................... //!0X60,0X0C,0X00,0X00,0X00,0X01,0X00,0X04,0X00,0X00,0X00,0X01,0X00,0X04,0X00,0X00, 
.................... //!0X00,0X31,0X00,0X04,0X00,0X00,0X00,0X79,0X80,0X0C,0XF0,0X00,0X00,0X71,0X80,0X0C, 
.................... //!0X70,0X00,0X00,0X01,0X80,0X0C,0X00,0X00,0X00,0X00,0XC0,0X18,0X00,0X00,0X00,0X00, 
.................... //!0XC0,0X18,0X00,0X00,0X00,0X00,0X60,0X30,0X00,0X00,0X00,0X00,0X60,0X30,0X00,0X00, 
.................... //!0X00,0X00,0X20,0X20,0X00,0X00,0X00,0X00,0X30,0X60,0X00,0X00,0X00,0X00,0X30,0X60, 
.................... //!0X00,0X00,0X00,0X00,0X3F,0XE0,0X00,0X00,0X00,0X00,0X3F,0XE0,0X00,0X00,0X00,0X00, 
.................... //!0X3F,0XE0,0X00,0X00,0X00,0X00,0X3F,0XE0,0X00,0X00,0X00,0X00,0X1F,0X80,0X00,0X00, 
.................... //!0X00,0X00,0X3E,0X60,0X00,0X00,0X00,0X00,0X39,0XE0,0X00,0X00,0X00,0X00,0X07,0XE0, 
.................... //!0X00,0X00,0X00,0X00,0X1F,0X80,0X00,0X00,0X00,0X00,0X3E,0X60,0X00,0X00,0X00,0X00, 
.................... //!0X3D,0XE0,0X00,0X00,0X00,0X00,0X3F,0XE0,0X00,0X00,0X00,0X00,0X1F,0XC0,0X00,0X00, 
.................... //!0X00,0X00,0X0F,0X80,0X00,0X00,0X00,0X00,0X02,0X00,0X00,0X00,0X00,0X00,0X00,0X00, 
.................... //!0X00,0X00,0X00,0X00,0X00,0X00,0X00,0X00,0X00,0X00,0X00,0X00,0X00,0X00,0X00,0X00, 
.................... //!0X00,0X00,0X00,0X00,0X00,0X00,0X00,0X00,0X00,0X00,0X00,0X00,0X00,0X00,0X00,0X00, 
.................... //!0X00,0X00,0X00,0X00,0X00,0X00,}; 
.................... //! 
.................... const unsigned char Logo_DHSPKTTP [] = { 
.................... 0x00, 0x00, 0x00, 0x00, 0x00, 0x00, 0x00, 0x00, 0x00, 0x00, 0x00, 0x00, 0x00, 0x00, 0x00, 0x00, 
.................... 0x00, 0x00, 0x00, 0x00, 0x00, 0x00, 0x00, 0x00, 0x00, 0x00, 0x00, 0x01, 0x80, 0x00, 0x00, 0x00, 
.................... 0x00, 0x00, 0x00, 0x01, 0x80, 0x00, 0x00, 0x00, 0x00, 0x00, 0x00, 0x01, 0x80, 0x00, 0x00, 0x00, 
.................... 0x00, 0x00, 0x00, 0x07, 0xE0, 0x00, 0x00, 0x00, 0x00, 0x00, 0x00, 0x07, 0xA0, 0x00, 0x00, 0x00, 
.................... 0x00, 0x00, 0x00, 0x03, 0x20, 0x00, 0x00, 0x00, 0x00, 0x00, 0x00, 0x03, 0x20, 0x00, 0x00, 0x00, 
.................... 0x00, 0x00, 0x00, 0x02, 0x20, 0x00, 0x00, 0x00, 0x00, 0x00, 0x00, 0x02, 0x30, 0x00, 0x00, 0x00, 
.................... 0x00, 0x00, 0x00, 0x02, 0x30, 0x00, 0x00, 0x00, 0x00, 0x7F, 0x00, 0x00, 0x30, 0x00, 0x7E, 0x00, 
.................... 0x00, 0xFE, 0x00, 0x07, 0xE0, 0x00, 0x3F, 0x00, 0x01, 0xF8, 0x00, 0x03, 0xE0, 0x00, 0x1F, 0x80, 
.................... 0x03, 0xF0, 0x00, 0x01, 0xC0, 0x00, 0x0F, 0xC0, 0x03, 0xE0, 0x00, 0x01, 0xC0, 0x00, 0x07, 0xE0, 
.................... 0x07, 0xC0, 0x00, 0x03, 0xC0, 0x00, 0x03, 0xF0, 0x0F, 0xC0, 0x00, 0x17, 0xF4, 0x00, 0x01, 0xF0, 
.................... 0x0F, 0x80, 0x00, 0x1D, 0x98, 0x00, 0x00, 0xF8, 0x1F, 0x00, 0x00, 0x11, 0x8C, 0x00, 0x00, 0xF8, 
.................... 0x1F, 0x01, 0x00, 0x31, 0x84, 0x00, 0x80, 0x7C, 0x3E, 0x06, 0x00, 0x31, 0x86, 0x00, 0x20, 0x7C, 
.................... 0x3E, 0x18, 0x00, 0x71, 0x86, 0x00, 0x1C, 0x3E, 0x3C, 0x43, 0x00, 0x31, 0x84, 0x00, 0xC3, 0x3E, 
.................... 0x7C, 0x0C, 0x00, 0x11, 0x8C, 0x00, 0x38, 0x1E, 0x7C, 0x31, 0x00, 0x1D, 0x98, 0x00, 0x86, 0x1F, 
.................... 0x78, 0xC6, 0x00, 0x1F, 0xFC, 0x00, 0x63, 0x1F, 0x78, 0x18, 0x00, 0x03, 0xC0, 0x00, 0x0C, 0x1F, 
.................... 0xF8, 0x63, 0x80, 0x01, 0x80, 0x00, 0xC7, 0x0F, 0xF9, 0x8E, 0x00, 0x00, 0x00, 0x00, 0x38, 0x8F, 
.................... 0xF8, 0x38, 0x80, 0x00, 0x00, 0x01, 0x0C, 0x0F, 0xF8, 0xC3, 0x80, 0x00, 0x00, 0x00, 0xE3, 0x8F, 
.................... 0xF9, 0x8E, 0x00, 0x00, 0x00, 0x00, 0x30, 0xCF, 0xF8, 0x38, 0xF8, 0x00, 0x00, 0x1F, 0x9E, 0x0F, 
.................... 0xF8, 0xE3, 0xFE, 0x00, 0x00, 0x7F, 0xE3, 0x8F, 0xF9, 0x9F, 0xFF, 0xC0, 0x03, 0xFF, 0xF9, 0xCF, 
.................... 0x78, 0xFF, 0xFF, 0xE0, 0x07, 0xFF, 0xFF, 0x0F, 0x78, 0x1F, 0xFF, 0xE0, 0x07, 0xFF, 0xFC, 0x1F, 
.................... 0x7C, 0x07, 0xFF, 0xE0, 0x07, 0xFF, 0xE0, 0x1F, 0x7C, 0x00, 0xFF, 0xE0, 0x07, 0xFF, 0x80, 0x1E, 
.................... 0x7C, 0x00, 0x1F, 0xE0, 0x07, 0xFC, 0x00, 0x3E, 0x3E, 0x01, 0xCF, 0xE0, 0x07, 0xF3, 0x80, 0x3E, 
.................... 0x3E, 0x01, 0xFF, 0xE0, 0x03, 0xFF, 0x80, 0x7C, 0x1F, 0x01, 0xFF, 0xE0, 0x03, 0xFF, 0xC0, 0x7C, 
.................... 0x1F, 0x01, 0xFF, 0xC0, 0x03, 0xFF, 0xC0, 0xF8, 0x0F, 0x83, 0xFF, 0xC0, 0x01, 0xFF, 0xC0, 0xF8, 
.................... 0x0F, 0x83, 0xFF, 0xC0, 0x01, 0xFF, 0xC1, 0xF0, 0x07, 0xC3, 0xFF, 0x80, 0x01, 0xFF, 0xE3, 0xF0, 
.................... 0x03, 0xE3, 0xFF, 0x80, 0x01, 0xFF, 0xE7, 0xE0, 0x03, 0xF7, 0xFF, 0x80, 0x00, 0xFF, 0xEF, 0xC0, 
.................... 0x01, 0xFF, 0xFF, 0x80, 0x00, 0xFF, 0xFF, 0x80, 0x00, 0xFF, 0xFF, 0x00, 0x00, 0xFF, 0xFF, 0x80, 
.................... 0x00, 0x7F, 0xFF, 0x00, 0x00, 0xFF, 0xFF, 0x00, 0x00, 0x3F, 0xFF, 0x00, 0x00, 0xFF, 0xFE, 0x00, 
.................... 0x00, 0x1F, 0xFF, 0x00, 0x00, 0x7F, 0xF8, 0x00, 0x00, 0x0F, 0xFE, 0x00, 0x00, 0x7F, 0xF0, 0x00, 
.................... 0x00, 0x03, 0xFF, 0x00, 0x00, 0x7F, 0xE0, 0x00, 0x00, 0x00, 0xFF, 0xFC, 0x1F, 0xFF, 0x80, 0x00, 
.................... 0x00, 0x00, 0x7F, 0xFF, 0xFF, 0xFE, 0x00, 0x00, 0x00, 0x00, 0x0F, 0xFF, 0xFF, 0xF8, 0x00, 0x00, 
.................... 0x00, 0x00, 0x01, 0xFF, 0xFF, 0xC0, 0x00, 0x00, 0x00, 0x00, 0x00, 0x0F, 0xF0, 0x00, 0x00, 0x00 
.................... }; 
....................  
....................  
.................... void GLCD_XUAT_ANH(int width,int height,int x,int y)  
.................... {  
....................    unsigned int i=0, j=0, k=0;  
....................    unsigned int16 count=0;  
....................    for(j=0;j<height;j++)  
....................       {     
....................          for(;i<width;)  
....................          {  
....................             for(k=8;k>0;k--) 
....................             { 
....................                glcd_pixel(i+x,j+y,bit_test(Logo_DHSPKTTP[count],(k-1)));  
....................                i++;  
....................             }  
....................             count++;  
....................          }  
....................       i=0;  
....................       }  
.................... }  
....................  
.................... #include <graphics.c> 
.................... ///////////////////////////////////////////////////////////////////////// 
.................... ////                          graphics.c                             //// 
.................... ////                                                                 //// 
.................... ////   This file contains functions to draw lines, rectangles, bars, //// 
.................... ////   circles and text to a display. A function which draws a       //// 
.................... ////   single pixel must be defined before calling the functions in  //// 
.................... ////   this file. Call it glcd_pixel(x, y, color) where x is the     //// 
.................... ////   horizontal coordinate, y is the vertical coordinate, and      //// 
.................... ////   color is 1 bit to turn the pixel on or off.                   //// 
.................... ////                                                                 //// 
.................... ////   * Note: (0, 0) is treated as the upper left corner            //// 
.................... ////                                                                 //// 
.................... ///////////////////////////////////////////////////////////////////////// 
.................... ////                                                                 //// 
.................... ////  glcd_line(x1, y1, x2, y2, color)                               //// 
.................... ////     * Draws a line from the first point to the second point     //// 
.................... ////       with the given color                                      //// 
.................... ////       - color can be ON or OFF                                  //// 
.................... ////                                                                 //// 
.................... ////  glcd_rect(x1, y1, x2, y2, fill, color)                         //// 
.................... ////     * Draws a rectangle with one corner at point (x1,y1) and    //// 
.................... ////       the other corner at point (x2,y2)                         //// 
.................... ////       - fill can be YES or NO                                   //// 
.................... ////       - color can be ON or OFF                                  //// 
.................... ////                                                                 //// 
.................... ////  glcd_bar(x1, y1, x2, y2, width, color)                         //// 
.................... ////     * Draws a bar (wide line) from the first point to the       //// 
.................... ////       second point                                              //// 
.................... ////       - width is the number of pixels wide                      //// 
.................... ////       - color is ON or OFF                                      //// 
.................... ////                                                                 //// 
.................... ////  glcd_circle(x, y, radius, fill, color)                         //// 
.................... ////     * Draws a circle with center at (x,y)                       //// 
.................... ////       - fill can be YES or NO                                   //// 
.................... ////       - color can be ON or OFF                                  //// 
.................... ////                                                                 //// 
.................... ////  glcd_text57(x, y, textptr, size, color)                        //// 
.................... ////     * Write the null terminated text pointed to by textptr with //// 
.................... ////       the upper left coordinate of the first character at (x,y) //// 
.................... ////       Characters are 5 pixels wide and 7 pixels tall            //// 
.................... ////       - size is an integer that scales the size of the text     //// 
.................... ////       - color is ON or OFF                                      //// 
.................... ////     * Note - This function wraps characters to the next line    //// 
.................... ////              use #define GLCD_WIDTH to specify a display width  //// 
.................... ////                                                                 //// 
.................... ///////////////////////////////////////////////////////////////////////// 
.................... ////        (C) Copyright 1996, 2010 Custom Computer Services        //// 
.................... //// This source code may only be used by licensed users of the CCS  //// 
.................... //// C compiler.  This source code may only be distributed to other  //// 
.................... //// licensed users of the CCS C compiler.  No other use,            //// 
.................... //// reproduction or distribution is permitted without written       //// 
.................... //// permission.  Derivative programs created using this software    //// 
.................... //// in object code form are not restricted in any way.              //// 
.................... ///////////////////////////////////////////////////////////////////////// 
....................  
....................  
.................... ///////////////////////////////////////////////////////////////////////// 
.................... #ifndef GRAPHICS_DRAWING_FUNCTIONS 
.................... #define GRAPHICS_DRAWING_FUNCTIONS 
.................... ///////////////////////////////////////////////////////////////////////// 
....................  
....................  
.................... ///////////////////////////////////////////////////////////////////////// 
.................... #ifndef ON 
.................... #define ON  1 
.................... #endif 
....................  
.................... #ifndef OFF 
.................... #define OFF 0 
.................... #endif 
....................  
.................... #ifndef YES 
.................... #define YES 1 
.................... #endif 
....................  
.................... #ifndef NO 
.................... #define NO  0 
.................... #endif 
.................... ///////////////////////////////////////////////////////////////////////// 
....................  
....................  
.................... ///////////////////////////////////////////////////////////////////////// 
.................... //// Defines a 5x7 font 
.................... ///////////////////////////////////////////////////////////////////////// 
.................... const unsigned int8 FONT[51][5] ={0x00, 0x00, 0x00, 0x00, 0x00, // SPACE 
....................                          0x00, 0x00, 0x5F, 0x00, 0x00, // ! 
....................                          0x00, 0x03, 0x00, 0x03, 0x00, // " 
....................                          0x14, 0x3E, 0x14, 0x3E, 0x14, // # 
....................                          0x24, 0x2A, 0x7F, 0x2A, 0x12, // $ 
....................                          0x43, 0x33, 0x08, 0x66, 0x61, // % 
....................                          0x36, 0x49, 0x55, 0x22, 0x50, // & 
....................                          0x00, 0x05, 0x03, 0x00, 0x00, // ' 
....................                          0x00, 0x1C, 0x22, 0x41, 0x00, // ( 
....................                          0x00, 0x41, 0x22, 0x1C, 0x00, // ) 
....................                          0x14, 0x08, 0x3E, 0x08, 0x14, // * 
....................                          0x08, 0x08, 0x3E, 0x08, 0x08, // + 
....................                          0x00, 0x50, 0x30, 0x00, 0x00, // , 
....................                          0x08, 0x08, 0x08, 0x08, 0x08, // - 
....................                          0x00, 0x60, 0x60, 0x00, 0x00, // . 
....................                          0x20, 0x10, 0x08, 0x04, 0x02, // / 
....................                          0x3E, 0x51, 0x49, 0x45, 0x3E, // 0 
....................                          0x00, 0x04, 0x02, 0x7F, 0x00, // 1 
....................                          0x42, 0x61, 0x51, 0x49, 0x46, // 2 
....................                          0x22, 0x41, 0x49, 0x49, 0x36, // 3 
....................                          0x18, 0x14, 0x12, 0x7F, 0x10, // 4 
....................                          0x27, 0x45, 0x45, 0x45, 0x39, // 5 
....................                          0x3E, 0x49, 0x49, 0x49, 0x32, // 6 
....................                          0x01, 0x01, 0x71, 0x09, 0x07, // 7 
....................                          0x36, 0x49, 0x49, 0x49, 0x36, // 8 
....................                          0x26, 0x49, 0x49, 0x49, 0x3E, // 9 
....................                          0x00, 0x36, 0x36, 0x00, 0x00, // : 
....................                          0x00, 0x56, 0x36, 0x00, 0x00, // ; 
....................                          0x08, 0x14, 0x22, 0x41, 0x00, // < 
....................                          0x14, 0x14, 0x14, 0x14, 0x14, // = 
....................                          0x00, 0x41, 0x22, 0x14, 0x08, // > 
....................                          0x02, 0x01, 0x51, 0x09, 0x06, // ? 
....................                          0x3E, 0x41, 0x59, 0x55, 0x5E, // @ 
....................                          0x7E, 0x09, 0x09, 0x09, 0x7E, // A 
....................                          0x7F, 0x49, 0x49, 0x49, 0x36, // B 
....................                          0x3E, 0x41, 0x41, 0x41, 0x22, // C 
....................                          0x7F, 0x41, 0x41, 0x41, 0x3E, // D 
....................                          0x7F, 0x49, 0x49, 0x49, 0x41, // E 
....................                          0x7F, 0x09, 0x09, 0x09, 0x01, // F 
....................                          0x3E, 0x41, 0x41, 0x49, 0x3A, // G 
....................                          0x7F, 0x08, 0x08, 0x08, 0x7F, // H 
....................                          0x00, 0x41, 0x7F, 0x41, 0x00, // I 
....................                          0x30, 0x40, 0x40, 0x40, 0x3F, // J 
....................                          0x7F, 0x08, 0x14, 0x22, 0x41, // K 
....................                          0x7F, 0x40, 0x40, 0x40, 0x40, // L 
....................                          0x7F, 0x02, 0x0C, 0x02, 0x7F, // M 
....................                          0x7F, 0x02, 0x04, 0x08, 0x7F, // N 
....................                          0x3E, 0x41, 0x41, 0x41, 0x3E, // O 
....................                          0x7F, 0x09, 0x09, 0x09, 0x06, // P 
....................                          0x1E, 0x21, 0x21, 0x21, 0x5E, // Q 
....................                          0x7F, 0x09, 0x09, 0x09, 0x76};// R 
....................  
.................... const unsigned int8 FONT2[44][5]={0x26, 0x49, 0x49, 0x49, 0x32, // S 
....................                          0x01, 0x01, 0x7F, 0x01, 0x01, // T 
....................                          0x3F, 0x40, 0x40, 0x40, 0x3F, // U 
....................                          0x1F, 0x20, 0x40, 0x20, 0x1F, // V 
....................                          0x7F, 0x20, 0x10, 0x20, 0x7F, // W 
....................                          0x41, 0x22, 0x1C, 0x22, 0x41, // X 
....................                          0x07, 0x08, 0x70, 0x08, 0x07, // Y 
....................                          0x61, 0x51, 0x49, 0x45, 0x43, // Z 
....................                          0x00, 0x7F, 0x41, 0x00, 0x00, // [ 
....................                          0x02, 0x04, 0x08, 0x10, 0x20, // \ 
....................                          0x00, 0x00, 0x41, 0x7F, 0x00, // ] 
....................                          0x04, 0x02, 0x01, 0x02, 0x04, // ^ 
....................                          0x40, 0x40, 0x40, 0x40, 0x40, // _ 
....................                          0x00, 0x01, 0x02, 0x04, 0x00, // ` 
....................                          0x20, 0x54, 0x54, 0x54, 0x78, // a 
....................                          0x7F, 0x44, 0x44, 0x44, 0x38, // b 
....................                          0x38, 0x44, 0x44, 0x44, 0x44, // c 
....................                          0x38, 0x44, 0x44, 0x44, 0x7F, // d 
....................                          0x38, 0x54, 0x54, 0x54, 0x18, // e 
....................                          0x04, 0x04, 0x7E, 0x05, 0x05, // f 
....................                          0x08, 0x54, 0x54, 0x54, 0x3C, // g 
....................                          0x7F, 0x08, 0x04, 0x04, 0x78, // h 
....................                          0x00, 0x44, 0x7D, 0x40, 0x00, // i 
....................                          0x20, 0x40, 0x44, 0x3D, 0x00, // j 
....................                          0x7F, 0x10, 0x28, 0x44, 0x00, // k 
....................                          0x00, 0x41, 0x7F, 0x40, 0x00, // l 
....................                          0x7C, 0x04, 0x78, 0x04, 0x78, // m 
....................                          0x7C, 0x08, 0x04, 0x04, 0x78, // n 
....................                          0x38, 0x44, 0x44, 0x44, 0x38, // o 
....................                          0x7C, 0x14, 0x14, 0x14, 0x08, // p 
....................                          0x08, 0x14, 0x14, 0x14, 0x7C, // q 
....................                          0x00, 0x7C, 0x08, 0x04, 0x04, // r 
....................                          0x48, 0x54, 0x54, 0x54, 0x20, // s 
....................                          0x04, 0x04, 0x3F, 0x44, 0x44, // t 
....................                          0x3C, 0x40, 0x40, 0x20, 0x7C, // u 
....................                          0x1C, 0x20, 0x40, 0x20, 0x1C, // v 
....................                          0x3C, 0x40, 0x30, 0x40, 0x3C, // w 
....................                          0x44, 0x28, 0x10, 0x28, 0x44, // x 
....................                          0x0C, 0x50, 0x50, 0x50, 0x3C, // y 
....................                          0x44, 0x64, 0x54, 0x4C, 0x44, // z 
....................                          0x00, 0x08, 0x36, 0x41, 0x41, // { 
....................                          0x00, 0x00, 0x7F, 0x00, 0x00, // | 
....................                          0x41, 0x41, 0x36, 0x08, 0x00, // } 
....................                          0x02, 0x01, 0x02, 0x04, 0x02};// ~ 
.................... ///////////////////////////////////////////////////////////////////////// 
....................  
....................  
.................... ///////////////////////////////////////////////////////////////////////// 
.................... // Purpose:       Draw a line on a graphic LCD using Bresenham's 
.................... //                line drawing algorithm 
.................... // Inputs:        (x1, y1) - the start coordinate 
.................... //                (x2, y2) - the end coordinate 
.................... //                color - ON or OFF 
.................... // Dependencies:  glcd_pixel() 
.................... ///////////////////////////////////////////////////////////////////////// 
.................... #ifdef LARGE_LCD 
.................... void glcd_line(unsigned int16 x1, unsigned int16 y1, unsigned int16 x2, iunsigned nt16 y2, int1 color) 
.................... #else 
.................... void glcd_line(unsigned int8 x1, unsigned int8 y1, unsigned int8 x2, unsigned int8 y2, int1 color) 
.................... #endif 
*
05E8:  MOVLW  01
05EA:  MOVLB  4
05EC:  MOVWF  x41
05EE:  MOVWF  x42
05F0:  CLRF   x47
.................... { 
....................    unsigned int16        dy, dx; 
....................    signed int8  addx=1, addy=1; 
....................    signed int16 P, diff; 
....................  
....................    #ifdef LARGE_LCD 
....................    unsigned int16 i=0; 
....................    dx = abs((signed int16)(x2 - x1)); 
....................    dy = abs((signed int16)(y2 - y1)); 
....................    #else 
....................    unsigned int8 i=0; 
....................    dx = abs((signed int8)(x2 - x1)); 
05F2:  MOVF   x38,W
05F4:  SUBWF  x3A,W
05F6:  MOVWF  x48
05F8:  MOVF   x48,W
05FA:  BTFSS  x48.7
05FC:  BRA    0604
05FE:  MOVLW  00
0600:  BSF    FD8.0
0602:  SUBFWB x48,W
0604:  CLRF   03
0606:  MOVWF  x3F
0608:  MOVFF  03,440
....................    dy = abs((signed int8)(y2 - y1)); 
060C:  MOVF   x39,W
060E:  SUBWF  x3B,W
0610:  MOVWF  x48
0612:  MOVF   x48,W
0614:  BTFSS  x48.7
0616:  BRA    061E
0618:  MOVLW  00
061A:  BSF    FD8.0
061C:  SUBFWB x48,W
061E:  CLRF   03
0620:  MOVWF  x3D
0622:  MOVFF  03,43E
....................    #endif 
....................  
....................    if(x1 > x2) 
0626:  MOVF   x38,W
0628:  SUBWF  x3A,W
062A:  BC    062E
....................       addx = -1; 
062C:  SETF   x41
....................    if(y1 > y2) 
062E:  MOVF   x39,W
0630:  SUBWF  x3B,W
0632:  BC    0636
....................       addy = -1; 
0634:  SETF   x42
....................  
....................    if(dx >= dy) 
0636:  MOVF   x3E,W
0638:  SUBWF  x40,W
063A:  BNC   06B0
063C:  BNZ   0644
063E:  MOVF   x3D,W
0640:  SUBWF  x3F,W
0642:  BNC   06B0
....................    { 
....................       dy *= 2; 
0644:  BCF    FD8.0
0646:  RLCF   x3D,F
0648:  RLCF   x3E,F
....................       P = dy - dx; 
064A:  MOVF   x3F,W
064C:  SUBWF  x3D,W
064E:  MOVWF  00
0650:  MOVF   x40,W
0652:  SUBWFB x3E,W
0654:  MOVFF  00,443
0658:  MOVWF  x44
....................       diff = P - dx; 
065A:  MOVF   x3F,W
065C:  SUBWF  x43,W
065E:  MOVWF  x45
0660:  MOVF   x40,W
0662:  SUBWFB x44,W
0664:  MOVWF  x46
....................  
....................       for(; i<=dx; ++i) 
0666:  MOVF   x40,F
0668:  BNZ   0670
066A:  MOVF   x47,W
066C:  SUBWF  x3F,W
066E:  BNC   06AE
....................       { 
....................          glcd_pixel(x1, y1, color); 
0670:  MOVFF  438,448
0674:  MOVFF  439,449
0678:  MOVFF  43C,44A
067C:  MOVLB  0
067E:  RCALL  04DC
....................  
....................          if(P < 0) 
0680:  MOVLB  4
0682:  BTFSS  x44.7
0684:  BRA    0696
....................          { 
....................             P  += dy; 
0686:  MOVF   x3D,W
0688:  ADDWF  x43,F
068A:  MOVF   x3E,W
068C:  ADDWFC x44,F
....................             x1 += addx; 
068E:  MOVF   x41,W
0690:  ADDWF  x38,W
0692:  MOVWF  x38
....................          } 
0694:  BRA    06AA
....................          else 
....................          { 
....................             P  += diff; 
0696:  MOVF   x45,W
0698:  ADDWF  x43,F
069A:  MOVF   x46,W
069C:  ADDWFC x44,F
....................             x1 += addx; 
069E:  MOVF   x41,W
06A0:  ADDWF  x38,W
06A2:  MOVWF  x38
....................             y1 += addy; 
06A4:  MOVF   x42,W
06A6:  ADDWF  x39,W
06A8:  MOVWF  x39
....................          } 
06AA:  INCF   x47,F
06AC:  BRA    0666
....................       } 
....................    } 
06AE:  BRA    071A
....................    else 
....................    { 
....................       dx *= 2; 
06B0:  BCF    FD8.0
06B2:  RLCF   x3F,F
06B4:  RLCF   x40,F
....................       P = dx - dy; 
06B6:  MOVF   x3D,W
06B8:  SUBWF  x3F,W
06BA:  MOVWF  00
06BC:  MOVF   x3E,W
06BE:  SUBWFB x40,W
06C0:  MOVFF  00,443
06C4:  MOVWF  x44
....................       diff = P - dy; 
06C6:  MOVF   x3D,W
06C8:  SUBWF  x43,W
06CA:  MOVWF  x45
06CC:  MOVF   x3E,W
06CE:  SUBWFB x44,W
06D0:  MOVWF  x46
....................  
....................       for(; i<=dy; ++i) 
06D2:  MOVF   x3E,F
06D4:  BNZ   06DC
06D6:  MOVF   x47,W
06D8:  SUBWF  x3D,W
06DA:  BNC   071A
....................       { 
....................          glcd_pixel(x1, y1, color); 
06DC:  MOVFF  438,448
06E0:  MOVFF  439,449
06E4:  MOVFF  43C,44A
06E8:  MOVLB  0
06EA:  RCALL  04DC
....................  
....................          if(P < 0) 
06EC:  MOVLB  4
06EE:  BTFSS  x44.7
06F0:  BRA    0702
....................          { 
....................             P  += dx; 
06F2:  MOVF   x3F,W
06F4:  ADDWF  x43,F
06F6:  MOVF   x40,W
06F8:  ADDWFC x44,F
....................             y1 += addy; 
06FA:  MOVF   x42,W
06FC:  ADDWF  x39,W
06FE:  MOVWF  x39
....................          } 
0700:  BRA    0716
....................          else 
....................          { 
....................             P  += diff; 
0702:  MOVF   x45,W
0704:  ADDWF  x43,F
0706:  MOVF   x46,W
0708:  ADDWFC x44,F
....................             x1 += addx; 
070A:  MOVF   x41,W
070C:  ADDWF  x38,W
070E:  MOVWF  x38
....................             y1 += addy; 
0710:  MOVF   x42,W
0712:  ADDWF  x39,W
0714:  MOVWF  x39
....................          } 
0716:  INCF   x47,F
0718:  BRA    06D2
....................       } 
....................    } 
071A:  MOVLB  0
071C:  RETURN 0
.................... } 
....................  
....................  
.................... ///////////////////////////////////////////////////////////////////////// 
.................... // Purpose:       Draw a rectangle on a graphic LCD 
.................... // Inputs:        (x1, y1) - the start coordinate 
.................... //                (x2, y2) - the end coordinate 
.................... //                fill  - YES or NO 
.................... //                color - ON or OFF 
.................... // Dependencies:  glcd_pixel(), glcd_line() 
.................... ///////////////////////////////////////////////////////////////////////// 
.................... #ifdef LARGE_LCD 
.................... void glcd_rect(unsigned int16 x1, unsigned int16 y1, unsigned int16 x2, unsigned int16 y2, int1 fill, int1 color) 
.................... #else 
.................... void glcd_rect(unsigned int8 x1, unsigned int8 y1, unsigned int8 x2, unsigned int8 y2, int1 fill, int1 color) 
.................... #endif 
.................... { 
....................    if(fill) 
....................    { 
....................       #ifdef LARGE_LCD 
....................       unsigned int16 i, xmin, xmax, ymin, ymax; 
....................       #else 
....................       unsigned int8  i, xmin, xmax, ymin, ymax; 
....................       #endif 
....................  
....................       if(x1 < x2)                            //  Find x min and max 
....................       { 
....................          xmin = x1; 
....................          xmax = x2; 
....................       } 
....................       else 
....................       { 
....................          xmin = x2; 
....................          xmax = x1; 
....................       } 
....................  
....................       if(y1 < y2)                            // Find the y min and max 
....................       { 
....................          ymin = y1; 
....................          ymax = y2; 
....................       } 
....................       else 
....................       { 
....................          ymin = y2; 
....................          ymax = y1; 
....................       } 
....................  
....................       for(; xmin <= xmax; ++xmin) 
....................       { 
....................          for(i=ymin; i<=ymax; ++i) 
....................          { 
....................             glcd_pixel(xmin, i, color); 
....................          } 
....................       } 
....................    } 
....................    else 
....................    { 
....................       glcd_line(x1, y1, x2, y1, color);      // Draw the 4 sides 
....................       glcd_line(x1, y2, x2, y2, color); 
....................       glcd_line(x1, y1, x1, y2, color); 
....................       glcd_line(x2, y1, x2, y2, color); 
....................    } 
.................... } 
....................  
.................... ///////////////////////////////////////////////////////////////////////// 
.................... // Purpose:       Draw a bar (wide line) on a graphic LCD 
.................... // Inputs:        (x1, y1) - the start coordinate 
.................... //                (x2, y2) - the end coordinate 
.................... //                width  - The number of pixels wide 
.................... //                color - ON or OFF 
.................... ///////////////////////////////////////////////////////////////////////// 
.................... #ifdef LARGE_LCD 
.................... void glcd_bar(unsigned int16 x1, unsigned int16 y1, unsigned int16 x2, unsigned int16 y2, unsigned int8 width, int1 color) 
.................... #else 
.................... void glcd_bar(unsigned int8 x1, unsigned int8 y1, unsigned int8 x2, unsigned int8 y2, unsigned int8 width, int1 color) 
.................... #endif 
.................... { 
....................    unsigned int8         half_width; 
....................    signed int16 dy, dx; 
....................    signed int8  addx=1, addy=1, j; 
....................    signed int16 P, diff, c1, c2; 
....................  
....................    #ifdef LARGE_LCD 
....................    unsigned int16 i=0; 
....................    dx = abs((signed int16)(x2 - x1)); 
....................    dy = abs((signed int16)(y2 - y1)); 
....................    #else 
....................    unsigned int8 i=0; 
....................    dx = abs((signed int8)(x2 - x1)); 
....................    dy = abs((signed int8)(y2 - y1)); 
....................    #endif 
....................  
....................    half_width = width/2; 
....................    c1 = -(dx*x1 + dy*y1); 
....................    c2 = -(dx*x2 + dy*y2); 
....................  
....................    if(x1 > x2) 
....................    { 
....................       signed int16 temp; 
....................       temp = c1; 
....................       c1 = c2; 
....................       c2 = temp; 
....................       addx = -1; 
....................    } 
....................    if(y1 > y2) 
....................    { 
....................       signed int16 temp; 
....................       temp = c1; 
....................       c1 = c2; 
....................       c2 = temp; 
....................       addy = -1; 
....................    } 
....................  
....................    if(dx >= dy) 
....................    { 
....................       P = 2*dy - dx; 
....................       diff = P - dx; 
....................  
....................       for(i=0; i<=dx; ++i) 
....................       { 
....................          for(j=-half_width; j<half_width+width%2; ++j) 
....................          { 
....................                glcd_pixel(x1, y1+j, color); 
....................          } 
....................          if(P < 0) 
....................          { 
....................             P  += 2*dy; 
....................             x1 += addx; 
....................          } 
....................          else 
....................          { 
....................             P  += diff; 
....................             x1 += addx; 
....................             y1 += addy; 
....................          } 
....................       } 
....................    } 
....................    else 
....................    { 
....................       P = 2*dx - dy; 
....................       diff = P - dy; 
....................  
....................       for(i=0; i<=dy; ++i) 
....................       { 
....................          if(P < 0) 
....................          { 
....................             P  += 2*dx; 
....................             y1 += addy; 
....................          } 
....................          else 
....................          { 
....................             P  += diff; 
....................             x1 += addx; 
....................             y1 += addy; 
....................          } 
....................          for(j=-half_width; j<half_width+width%2; ++j) 
....................          { 
....................                glcd_pixel(x1+j, y1, color); 
....................          } 
....................       } 
....................    } 
.................... } 
....................  
....................  
.................... ///////////////////////////////////////////////////////////////////////// 
.................... // Purpose:       Draw a circle on a graphic LCD 
.................... // Inputs:        (x,y) - the center of the circle 
.................... //                radius - the radius of the circle 
.................... //                fill - YES or NO 
.................... //                color - ON or OFF 
.................... ///////////////////////////////////////////////////////////////////////// 
.................... #ifdef LARGE_LCD 
.................... void glcd_circle(unsigned int16 x, unsigned int16 y, unsigned int16 radius, int1 fill, int1 color) 
.................... #else 
.................... void glcd_circle(unsigned int8 x, unsigned int8 y, unsigned int8 radius, int1 fill, int1 color) 
.................... #endif 
.................... { 
....................    #ifdef LARGE_LCD 
....................    signed int16 a, b, P; 
....................    #else 
....................    signed int8  a, b, P; 
....................    #endif 
....................  
....................    a = 0; 
*
076C:  MOVLB  4
076E:  CLRF   x31
....................    b = radius; 
0770:  MOVFF  42E,432
....................    P = 1 - radius; 
0774:  MOVLW  01
0776:  BSF    FD8.0
0778:  SUBFWB x2E,W
077A:  MOVWF  x33
....................  
....................    do 
....................    { 
....................       if(fill) 
077C:  MOVF   x2F,F
077E:  BZ    0842
....................       { 
....................          glcd_line(x-a, y+b, x+a, y+b, color); 
0780:  MOVF   x31,W
0782:  SUBWF  x2C,W
0784:  MOVWF  x34
0786:  MOVF   x32,W
0788:  ADDWF  x2D,W
078A:  MOVWF  x35
078C:  MOVF   x31,W
078E:  ADDWF  x2C,W
0790:  MOVWF  x36
0792:  MOVF   x32,W
0794:  ADDWF  x2D,W
0796:  MOVWF  x37
0798:  MOVFF  434,438
079C:  MOVFF  435,439
07A0:  MOVFF  436,43A
07A4:  MOVWF  x3B
07A6:  MOVFF  430,43C
07AA:  MOVLB  0
07AC:  RCALL  05E8
....................          glcd_line(x-a, y-b, x+a, y-b, color); 
07AE:  MOVLB  4
07B0:  MOVF   x31,W
07B2:  SUBWF  x2C,W
07B4:  MOVWF  x34
07B6:  MOVF   x32,W
07B8:  SUBWF  x2D,W
07BA:  MOVWF  x35
07BC:  MOVF   x31,W
07BE:  ADDWF  x2C,W
07C0:  MOVWF  x36
07C2:  MOVF   x32,W
07C4:  SUBWF  x2D,W
07C6:  MOVWF  x37
07C8:  MOVFF  434,438
07CC:  MOVFF  435,439
07D0:  MOVFF  436,43A
07D4:  MOVWF  x3B
07D6:  MOVFF  430,43C
07DA:  MOVLB  0
07DC:  RCALL  05E8
....................          glcd_line(x-b, y+a, x+b, y+a, color); 
07DE:  MOVLB  4
07E0:  MOVF   x32,W
07E2:  SUBWF  x2C,W
07E4:  MOVWF  x34
07E6:  MOVF   x31,W
07E8:  ADDWF  x2D,W
07EA:  MOVWF  x35
07EC:  MOVF   x32,W
07EE:  ADDWF  x2C,W
07F0:  MOVWF  x36
07F2:  MOVF   x31,W
07F4:  ADDWF  x2D,W
07F6:  MOVWF  x37
07F8:  MOVFF  434,438
07FC:  MOVFF  435,439
0800:  MOVFF  436,43A
0804:  MOVWF  x3B
0806:  MOVFF  430,43C
080A:  MOVLB  0
080C:  RCALL  05E8
....................          glcd_line(x-b, y-a, x+b, y-a, color); 
080E:  MOVLB  4
0810:  MOVF   x32,W
0812:  SUBWF  x2C,W
0814:  MOVWF  x34
0816:  MOVF   x31,W
0818:  SUBWF  x2D,W
081A:  MOVWF  x35
081C:  MOVF   x32,W
081E:  ADDWF  x2C,W
0820:  MOVWF  x36
0822:  MOVF   x31,W
0824:  SUBWF  x2D,W
0826:  MOVWF  x37
0828:  MOVFF  434,438
082C:  MOVFF  435,439
0830:  MOVFF  436,43A
0834:  MOVWF  x3B
0836:  MOVFF  430,43C
083A:  MOVLB  0
083C:  RCALL  05E8
....................       } 
083E:  BRA    0920
0840:  MOVLB  4
....................       else 
....................       { 
....................          glcd_pixel(a+x, b+y, color); 
0842:  MOVF   x2C,W
0844:  ADDWF  x31,W
0846:  MOVWF  x34
0848:  MOVF   x2D,W
084A:  ADDWF  x32,W
084C:  MOVWF  x35
084E:  MOVFF  434,448
0852:  MOVWF  x49
0854:  MOVFF  430,44A
0858:  MOVLB  0
085A:  RCALL  04DC
....................          glcd_pixel(b+x, a+y, color); 
085C:  MOVLB  4
085E:  MOVF   x2C,W
0860:  ADDWF  x32,W
0862:  MOVWF  x34
0864:  MOVF   x2D,W
0866:  ADDWF  x31,W
0868:  MOVWF  x35
086A:  MOVFF  434,448
086E:  MOVWF  x49
0870:  MOVFF  430,44A
0874:  MOVLB  0
0876:  RCALL  04DC
....................          glcd_pixel(x-a, b+y, color); 
0878:  MOVLB  4
087A:  MOVF   x31,W
087C:  SUBWF  x2C,W
087E:  MOVWF  x34
0880:  MOVF   x2D,W
0882:  ADDWF  x32,W
0884:  MOVWF  x35
0886:  MOVFF  434,448
088A:  MOVWF  x49
088C:  MOVFF  430,44A
0890:  MOVLB  0
0892:  RCALL  04DC
....................          glcd_pixel(x-b, a+y, color); 
0894:  MOVLB  4
0896:  MOVF   x32,W
0898:  SUBWF  x2C,W
089A:  MOVWF  x34
089C:  MOVF   x2D,W
089E:  ADDWF  x31,W
08A0:  MOVWF  x35
08A2:  MOVFF  434,448
08A6:  MOVWF  x49
08A8:  MOVFF  430,44A
08AC:  MOVLB  0
08AE:  RCALL  04DC
....................          glcd_pixel(b+x, y-a, color); 
08B0:  MOVLB  4
08B2:  MOVF   x2C,W
08B4:  ADDWF  x32,W
08B6:  MOVWF  x34
08B8:  MOVF   x31,W
08BA:  SUBWF  x2D,W
08BC:  MOVWF  x35
08BE:  MOVFF  434,448
08C2:  MOVWF  x49
08C4:  MOVFF  430,44A
08C8:  MOVLB  0
08CA:  RCALL  04DC
....................          glcd_pixel(a+x, y-b, color); 
08CC:  MOVLB  4
08CE:  MOVF   x2C,W
08D0:  ADDWF  x31,W
08D2:  MOVWF  x34
08D4:  MOVF   x32,W
08D6:  SUBWF  x2D,W
08D8:  MOVWF  x35
08DA:  MOVFF  434,448
08DE:  MOVWF  x49
08E0:  MOVFF  430,44A
08E4:  MOVLB  0
08E6:  RCALL  04DC
....................          glcd_pixel(x-a, y-b, color); 
08E8:  MOVLB  4
08EA:  MOVF   x31,W
08EC:  SUBWF  x2C,W
08EE:  MOVWF  x34
08F0:  MOVF   x32,W
08F2:  SUBWF  x2D,W
08F4:  MOVWF  x35
08F6:  MOVFF  434,448
08FA:  MOVWF  x49
08FC:  MOVFF  430,44A
0900:  MOVLB  0
0902:  RCALL  04DC
....................          glcd_pixel(x-b, y-a, color); 
0904:  MOVLB  4
0906:  MOVF   x32,W
0908:  SUBWF  x2C,W
090A:  MOVWF  x34
090C:  MOVF   x31,W
090E:  SUBWF  x2D,W
0910:  MOVWF  x35
0912:  MOVFF  434,448
0916:  MOVWF  x49
0918:  MOVFF  430,44A
091C:  MOVLB  0
091E:  RCALL  04DC
....................       } 
....................  
....................       if(P < 0) 
0920:  MOVLB  4
0922:  BTFSS  x33.7
0924:  BRA    0942
....................          P += 3 + 2 * a++; 
0926:  MOVF   x31,W
0928:  INCF   x31,F
092A:  MOVWF  x34
092C:  MOVLW  02
092E:  MOVWF  x35
0930:  MOVFF  434,436
0934:  MOVLB  0
0936:  RCALL  071E
0938:  MOVF   01,W
093A:  ADDLW  03
093C:  MOVLB  4
093E:  ADDWF  x33,F
0940:  BRA    0964
....................       else 
....................          P += 5 + 2 * (a++ - b--); 
0942:  MOVF   x31,W
0944:  INCF   x31,F
0946:  MOVWF  x34
0948:  MOVF   x32,W
094A:  DECF   x32,F
094C:  SUBWF  x34,W
094E:  MOVWF  x34
0950:  MOVLW  02
0952:  MOVWF  x35
0954:  MOVFF  434,436
0958:  MOVLB  0
095A:  RCALL  071E
095C:  MOVF   01,W
095E:  ADDLW  05
0960:  MOVLB  4
0962:  ADDWF  x33,F
....................     } while(a <= b); 
0964:  MOVF   x31,W
0966:  XORLW  80
0968:  MOVWF  00
096A:  MOVF   x32,W
096C:  XORLW  80
096E:  SUBWF  00,W
0970:  BTFSC  FD8.2
0972:  BRA    077C
0974:  BTFSS  FD8.0
0976:  BRA    077C
0978:  MOVLB  0
097A:  GOTO   1216 (RETURN)
.................... } 
....................  
....................  
.................... ///////////////////////////////////////////////////////////////////////// 
.................... // Purpose:       Write text on a graphic LCD 
.................... // Inputs:        (x,y) - The upper left coordinate of the first letter 
.................... //                textptr - A pointer to an array of text to display 
.................... //                size - The size of the text: 1 = 5x7, 2 = 10x14, ... 
.................... //                color - ON or OFF 
.................... ///////////////////////////////////////////////////////////////////////// 
.................... #ifdef LARGE_LCD 
.................... void glcd_text57(unsigned int16 x, unsigned int16 y, char* textptr, unsigned int8 size, int1 color) 
.................... #else 
.................... void glcd_text57(unsigned int8 x, unsigned int8 y, char* textptr, unsigned int8 size, int1 color) 
.................... #endif 
.................... { 
....................    unsigned int8 j, k, l, m;                       // Loop counters 
....................    unsigned int8 pixelData[5];                     // Stores character data 
....................  
....................    for(; *textptr != '\0'; ++textptr, ++x)// Loop through the passed string 
....................    { 
....................       if(*textptr < 'S') // Checks if the letter is in the first font array 
....................          memcpy(pixelData, FONT[*textptr - ' '], 5); 
....................       else if(*textptr <= '~') // Check if the letter is in the second font array 
....................          memcpy(pixelData, FONT2[*textptr - 'S'], 5); 
....................       else 
....................          memcpy(pixelData, FONT[0], 5);   // Default to space 
....................  
....................       // Handles newline and carriage returns 
....................       switch(*textptr) 
....................       { 
....................          case '\n': 
....................             y += 7*size + 1; 
....................             continue; 
....................          case '\r': 
....................             x = 0; 
....................             continue; 
....................       } 
....................  
....................       if(x+5*size >= GLCD_WIDTH)          // Performs character wrapping 
....................       { 
....................          x = 0;                           // Set x at far left position 
....................          y += 7*size + 1;                 // Set y at next position down 
....................       } 
....................       for(j=0; j<5; ++j, x+=size)         // Loop through character byte data 
....................       { 
....................          for(k=0; k < 7; ++k)             // Loop through the vertical pixels 
....................          { 
....................             if(bit_test(pixelData[j], k)) // Check if the pixel should be set 
....................             { 
....................                for(l=0; l < size; ++l)    // These two loops change the 
....................                {                          // character's size 
....................                   for(m=0; m < size; ++m) 
....................                   { 
....................                      glcd_pixel(x+m, y+k*size+l, color); // Draws the pixel 
....................                   } 
....................                } 
....................             } 
....................          } 
....................       } 
....................    } 
.................... } 
....................  
.................... #endif 
....................  
....................  
.................... unsigned INT8 t0,t0_tam,chuc,donvi,sp; 
....................  
.................... int1 TT_DC,TT_HT,doi_hinh; 
.................... int1 tt; 
.................... signed INT8 mp; 
.................... signed INT8 chuclcd,donvilcd; // LCD nho 
.................... signed INT8 i; // LCD to 
.................... signed INT8 chuc_glcd; //GLCD 
.................... //!void doi_hinhh() 
.................... //!{ 
.................... //!   IF(doi_hinh == 0) 
.................... //!   { 
.................... //!      //HÌNH TRÒN 
.................... //!      setup_glcd (glcd_graphic_mode); 
.................... //!      glcd_mau_nen (0); 
.................... //!      glcd_circle (67, 30, 30, 0, 1); 
.................... //!      gdram_vdk_to_gdram_glcd_all () ; 
.................... //!   } 
.................... //! 
.................... //!   ELSE 
.................... //!   { 
.................... //!      //HÌNH VUÔNG 
.................... //!      setup_glcd (glcd_graphic_mode); 
.................... //!      glcd_mau_nen (0); 
.................... //!      glcd_RECT (0, 0, 127, 60, 0, 1) ; 
.................... //!      gdram_vdk_to_gdram_glcd_all (); 
.................... //!   } 
.................... //! 
.................... //!   GLCD_COMMAND(GLCD_TEXT_MODE); 
.................... //!} 
....................  
.................... unsigned INT key_4x4_dw_QUET() 
.................... { 
....................    mpt1 = key_nhan (); 
*
0C02:  RCALL  0B7A
0C04:  MOVFF  01,1A
....................  
....................    IF (mpt1 != 0xff) 
0C08:  INCFSZ 1A,W
0C0A:  BRA    0C0E
0C0C:  BRA    0C3A
....................    { 
....................       delay_ms (20) ; 
0C0E:  MOVLW  14
0C10:  MOVLB  4
0C12:  MOVWF  x2D
0C14:  MOVLB  0
0C16:  CALL   02D2
....................       mpt1 = key_nhan (); 
0C1A:  RCALL  0B7A
0C1C:  MOVFF  01,1A
....................       DO{mpt2 = key_nhan (); HIEN_THI_8LED_7DOAN_QUET (); } 
0C20:  RCALL  0B7A
0C22:  MOVFF  01,1B
0C26:  RCALL  0B30
....................       WHILE (mpt2 == mpt1); 
0C28:  MOVF   1A,W
0C2A:  SUBWF  1B,W
0C2C:  BZ    0C20
....................       delay_ms (20) ; 
0C2E:  MOVLW  14
0C30:  MOVLB  4
0C32:  MOVWF  x2D
0C34:  MOVLB  0
0C36:  CALL   02D2
....................    } 
....................  
....................    RETURN (mpt1) ; 
0C3A:  MOVFF  1A,01
0C3E:  GOTO   1234 (RETURN)
.................... } 
....................  
.................... void glcd_hienthi_t0_thuan() //GLCD 
.................... { 
....................    glcd_command (glcd_addr_line2 + 3); 
*
0E86:  MOVLW  93
0E88:  MOVLB  4
0E8A:  MOVWF  x2D
0E8C:  MOVLB  0
0E8E:  CALL   03DC
....................    glcd_data (sp / 10 % 10 + 0x30); 
0E92:  MOVFF  425,42D
0E96:  MOVLW  0A
0E98:  MOVLB  4
0E9A:  MOVWF  x2E
0E9C:  MOVLB  0
0E9E:  CALL   01D0
0EA2:  MOVFF  01,42D
0EA6:  MOVLW  0A
0EA8:  MOVLB  4
0EAA:  MOVWF  x2E
0EAC:  MOVLB  0
0EAE:  CALL   01D0
0EB2:  MOVLW  30
0EB4:  ADDWF  00,W
0EB6:  MOVLB  4
0EB8:  MOVWF  x2C
0EBA:  MOVWF  x2F
0EBC:  MOVLB  0
0EBE:  RCALL  097E
....................    glcd_data (sp % 10 + 0x30); 
0EC0:  MOVFF  425,42D
0EC4:  MOVLW  0A
0EC6:  MOVLB  4
0EC8:  MOVWF  x2E
0ECA:  MOVLB  0
0ECC:  CALL   01D0
0ED0:  MOVLW  30
0ED2:  ADDWF  00,W
0ED4:  MOVLB  4
0ED6:  MOVWF  x2C
0ED8:  MOVWF  x2F
0EDA:  MOVLB  0
0EDC:  RCALL  097E
....................    glcd_data (".SP"); 
0EDE:  MOVLW  0C
0EE0:  MOVWF  FF6
0EE2:  MOVLW  01
0EE4:  MOVWF  FF7
0EE6:  RCALL  0E66
0EE8:  GOTO   1290 (RETURN)
.................... } 
....................  
.................... void glcd_hienthi_t0_nguoc()//GLCD 
.................... { 
....................    glcd_command (glcd_addr_line2 + 3); 
*
10C4:  MOVLW  93
10C6:  MOVLB  4
10C8:  MOVWF  x2D
10CA:  MOVLB  0
10CC:  CALL   03DC
....................    glcd_data ("SP."); 
10D0:  MOVLW  10
10D2:  MOVWF  FF6
10D4:  MOVLW  01
10D6:  MOVWF  FF7
10D8:  RCALL  0E66
....................    glcd_data (sp / 10 % 10 + 0x30); 
10DA:  MOVFF  425,42D
10DE:  MOVLW  0A
10E0:  MOVLB  4
10E2:  MOVWF  x2E
10E4:  MOVLB  0
10E6:  CALL   01D0
10EA:  MOVFF  01,42D
10EE:  MOVLW  0A
10F0:  MOVLB  4
10F2:  MOVWF  x2E
10F4:  MOVLB  0
10F6:  CALL   01D0
10FA:  MOVLW  30
10FC:  ADDWF  00,W
10FE:  MOVLB  4
1100:  MOVWF  x2C
1102:  MOVWF  x2F
1104:  MOVLB  0
1106:  RCALL  097E
....................    glcd_data (sp % 10 + 0x30); 
1108:  MOVFF  425,42D
110C:  MOVLW  0A
110E:  MOVLB  4
1110:  MOVWF  x2E
1112:  MOVLB  0
1114:  CALL   01D0
1118:  MOVLW  30
111A:  ADDWF  00,W
111C:  MOVLB  4
111E:  MOVWF  x2C
1120:  MOVWF  x2F
1122:  MOVLB  0
1124:  RCALL  097E
1126:  GOTO   12A0 (RETURN)
.................... } 
....................  
.................... void lcd_hienthi_so_z_toado_xy(SIGNED int8 lcd_so, x1, y1) // LCD TO 
.................... { 
....................    lcd_GOTO_xy (x1, y1) ; 
*
0D5E:  MOVFF  42E,431
0D62:  MOVFF  42F,432
0D66:  CALL   036C
....................    FOR (i = 0; i < 6; i++) 
0D6A:  MOVLB  4
0D6C:  CLRF   x2A
0D6E:  BTFSC  x2A.7
0D70:  BRA    0D78
0D72:  MOVF   x2A,W
0D74:  SUBLW  05
0D76:  BNC   0DD6
....................    { 
....................       IF (i == 3) lcd_goto_xy (x1 + 1, y1); 
0D78:  MOVF   x2A,W
0D7A:  SUBLW  03
0D7C:  BNZ   0D92
0D7E:  MOVLW  01
0D80:  ADDWF  x2E,W
0D82:  MOVWF  x30
0D84:  MOVWF  x31
0D86:  MOVFF  42F,432
0D8A:  MOVLB  0
0D8C:  CALL   036C
0D90:  MOVLB  4
....................       lcd_data (lcd_so_x[lcd_so][i]); 
0D92:  MOVFF  42D,435
0D96:  MOVLW  06
0D98:  MOVWF  x36
0D9A:  MOVLB  0
0D9C:  RCALL  071E
0D9E:  MOVF   01,W
0DA0:  MOVLB  4
0DA2:  CLRF   x31
0DA4:  MOVWF  x30
0DA6:  CLRF   03
0DA8:  MOVF   x2A,W
0DAA:  ADDWF  x30,W
0DAC:  MOVWF  01
0DAE:  MOVF   x31,W
0DB0:  ADDWFC 03,F
0DB2:  MOVF   01,W
0DB4:  MOVFF  FF2,430
0DB8:  BCF    FF2.7
0DBA:  MOVLB  0
0DBC:  CALL   0050
0DC0:  MOVLB  4
0DC2:  BTFSC  x30.7
0DC4:  BSF    FF2.7
0DC6:  MOVWF  x30
0DC8:  MOVWF  x31
0DCA:  MOVLB  0
0DCC:  CALL   0356
0DD0:  MOVLB  4
0DD2:  INCF   x2A,F
0DD4:  BRA    0D6E
....................    } 
0DD6:  MOVLB  0
0DD8:  RETURN 0
.................... } 
....................  
.................... VOID LCD_TO_THUAN() 
.................... { 
....................    chuc_glcd = SP / 10; 
0DDA:  MOVFF  425,42D
0DDE:  MOVLW  0A
0DE0:  MOVLB  4
0DE2:  MOVWF  x2E
0DE4:  MOVLB  0
0DE6:  CALL   01D0
0DEA:  MOVFF  01,42B
0DEE:  MOVLB  4
....................  
....................    IF (chuc_glcd == 0) 
0DF0:  MOVF   x2B,F
0DF2:  BNZ   0DF8
....................       chuc_glcd = 10; 
0DF4:  MOVLW  0A
0DF6:  MOVWF  x2B
....................  
....................    lcd_hienthi_so_z_toado_xy (chuc_glcd, 2, 0) ; 
0DF8:  MOVFF  42B,42D
0DFC:  MOVLW  02
0DFE:  MOVWF  x2E
0E00:  CLRF   x2F
0E02:  MOVLB  0
0E04:  RCALL  0D5E
....................    lcd_hienthi_so_z_toado_xy (SP % 10, 2, 3) ; 
0E06:  MOVFF  425,42D
0E0A:  MOVLW  0A
0E0C:  MOVLB  4
0E0E:  MOVWF  x2E
0E10:  MOVLB  0
0E12:  CALL   01D0
0E16:  MOVFF  00,42C
0E1A:  MOVFF  00,42D
0E1E:  MOVLW  02
0E20:  MOVLB  4
0E22:  MOVWF  x2E
0E24:  MOVLW  03
0E26:  MOVWF  x2F
0E28:  MOVLB  0
0E2A:  RCALL  0D5E
....................    lcd_hienthi_so_z_toado_xy (12, 2, 6) ; // HIEN THI DAU CHAM 
0E2C:  MOVLW  0C
0E2E:  MOVLB  4
0E30:  MOVWF  x2D
0E32:  MOVLW  02
0E34:  MOVWF  x2E
0E36:  MOVLW  06
0E38:  MOVWF  x2F
0E3A:  MOVLB  0
0E3C:  RCALL  0D5E
....................    lcd_hienthi_so_z_toado_xy (5, 2, 12) ; 
0E3E:  MOVLW  05
0E40:  MOVLB  4
0E42:  MOVWF  x2D
0E44:  MOVLW  02
0E46:  MOVWF  x2E
0E48:  MOVLW  0C
0E4A:  MOVWF  x2F
0E4C:  MOVLB  0
0E4E:  RCALL  0D5E
....................    lcd_hienthi_so_z_toado_xy (11, 2, 15) ; 
0E50:  MOVLW  0B
0E52:  MOVLB  4
0E54:  MOVWF  x2D
0E56:  MOVLW  02
0E58:  MOVWF  x2E
0E5A:  MOVLW  0F
0E5C:  MOVWF  x2F
0E5E:  MOVLB  0
0E60:  RCALL  0D5E
0E62:  GOTO   128E (RETURN)
.................... } 
....................  
.................... VOID LCD_TO_nguoc() 
.................... { 
....................    chuc_glcd = SP / 10; 
*
0FE0:  MOVFF  425,42D
0FE4:  MOVLW  0A
0FE6:  MOVLB  4
0FE8:  MOVWF  x2E
0FEA:  MOVLB  0
0FEC:  CALL   01D0
0FF0:  MOVFF  01,42B
0FF4:  MOVLB  4
....................  
....................    IF (chuc_glcd == 0) 
0FF6:  MOVF   x2B,F
0FF8:  BNZ   0FFE
....................       chuc_glcd = 10; 
0FFA:  MOVLW  0A
0FFC:  MOVWF  x2B
....................  
....................    lcd_hienthi_so_z_toado_xy (5, 2, 0) ; 
0FFE:  MOVLW  05
1000:  MOVWF  x2D
1002:  MOVLW  02
1004:  MOVWF  x2E
1006:  CLRF   x2F
1008:  MOVLB  0
100A:  RCALL  0D5E
....................    lcd_hienthi_so_z_toado_xy (11, 2, 3) ; 
100C:  MOVLW  0B
100E:  MOVLB  4
1010:  MOVWF  x2D
1012:  MOVLW  02
1014:  MOVWF  x2E
1016:  MOVLW  03
1018:  MOVWF  x2F
101A:  MOVLB  0
101C:  RCALL  0D5E
....................    lcd_hienthi_so_z_toado_xy (12, 2, 6) ; // HIEN THI DAU CHAM 
101E:  MOVLW  0C
1020:  MOVLB  4
1022:  MOVWF  x2D
1024:  MOVLW  02
1026:  MOVWF  x2E
1028:  MOVLW  06
102A:  MOVWF  x2F
102C:  MOVLB  0
102E:  RCALL  0D5E
....................    lcd_hienthi_so_z_toado_xy (chuc_glcd, 2, 12) ; 
1030:  MOVFF  42B,42D
1034:  MOVLW  02
1036:  MOVLB  4
1038:  MOVWF  x2E
103A:  MOVLW  0C
103C:  MOVWF  x2F
103E:  MOVLB  0
1040:  RCALL  0D5E
....................    lcd_hienthi_so_z_toado_xy (SP % 10, 2, 15) ; 
1042:  MOVFF  425,42D
1046:  MOVLW  0A
1048:  MOVLB  4
104A:  MOVWF  x2E
104C:  MOVLB  0
104E:  CALL   01D0
1052:  MOVFF  00,42C
1056:  MOVFF  00,42D
105A:  MOVLW  02
105C:  MOVLB  4
105E:  MOVWF  x2E
1060:  MOVLW  0F
1062:  MOVWF  x2F
1064:  MOVLB  0
1066:  RCALL  0D5E
1068:  GOTO   129C (RETURN)
.................... } 
....................  
.................... void giai_ma_gan_cho_8led_quet_nguoc() // LED QUET 
.................... { 
....................  
....................    led_7dq[3] = ma7doan [5]; 
106C:  MOVLW  92
106E:  MOVWF  14
....................    led_7dq[2] = 0x8C&0X7F; 
1070:  MOVLW  0C
1072:  MOVWF  13
....................     
....................    led_7dq[0] = ma7doan [sp % 10]; 
1074:  MOVFF  425,42D
1078:  MOVLW  0A
107A:  MOVLB  4
107C:  MOVWF  x2E
107E:  MOVLB  0
1080:  CALL   01D0
1084:  CLRF   03
1086:  MOVF   00,W
1088:  MOVFF  FF2,42C
108C:  BCF    FF2.7
108E:  CALL   0004
1092:  MOVLB  4
1094:  BTFSC  x2C.7
1096:  BSF    FF2.7
1098:  MOVWF  11
....................    led_7dq[1] = ma7doan [sp / 10]; 
109A:  MOVFF  425,42D
109E:  MOVLW  0A
10A0:  MOVWF  x2E
10A2:  MOVLB  0
10A4:  CALL   01D0
10A8:  CLRF   03
10AA:  MOVF   01,W
10AC:  MOVFF  FF2,42C
10B0:  BCF    FF2.7
10B2:  CALL   0004
10B6:  MOVLB  4
10B8:  BTFSC  x2C.7
10BA:  BSF    FF2.7
10BC:  MOVWF  12
10BE:  MOVLB  0
10C0:  GOTO   129E (RETURN)
....................     
....................     
.................... } 
....................  
.................... void giai_ma_gan_cho_8led_quet_thuan() // LED QUET 
.................... { 
....................    led_7dq[1] = ma7doan [5]; 
*
0D04:  MOVLW  92
0D06:  MOVWF  12
....................    led_7dq[0] = 0x8C; 
0D08:  MOVLW  8C
0D0A:  MOVWF  11
....................     
....................    led_7dq[2] = ma7doan [sp % 10]&0X7F; 
0D0C:  MOVFF  425,42D
0D10:  MOVLW  0A
0D12:  MOVLB  4
0D14:  MOVWF  x2E
0D16:  MOVLB  0
0D18:  CALL   01D0
0D1C:  CLRF   03
0D1E:  MOVF   00,W
0D20:  MOVFF  FF2,42C
0D24:  BCF    FF2.7
0D26:  CALL   0004
0D2A:  MOVLB  4
0D2C:  BTFSC  x2C.7
0D2E:  BSF    FF2.7
0D30:  ANDLW  7F
0D32:  MOVWF  13
....................    led_7dq[3] = ma7doan [sp / 10]; 
0D34:  MOVFF  425,42D
0D38:  MOVLW  0A
0D3A:  MOVWF  x2E
0D3C:  MOVLB  0
0D3E:  CALL   01D0
0D42:  CLRF   03
0D44:  MOVF   01,W
0D46:  MOVFF  FF2,42C
0D4A:  BCF    FF2.7
0D4C:  CALL   0004
0D50:  MOVLB  4
0D52:  BTFSC  x2C.7
0D54:  BSF    FF2.7
0D56:  MOVWF  14
0D58:  MOVLB  0
0D5A:  GOTO   128C (RETURN)
.................... } 
....................  
.................... void hienthi_thuan() 
.................... { 
....................    xuat_4led_7doan_4so (chuc, donvi&0X7F, 0X92, 0X8C) ; 
*
01FC:  MOVLB  4
01FE:  MOVF   x24,W
0200:  ANDLW  7F
0202:  MOVWF  x2C
0204:  MOVFF  423,42D
0208:  MOVWF  x2E
020A:  MOVLW  92
020C:  MOVWF  x2F
020E:  MOVLW  8C
0210:  MOVWF  x30
0212:  MOVLB  0
0214:  RCALL  01A6
....................    chuc = ma7doan[sp / 10]; 
0216:  MOVFF  425,42D
021A:  MOVLW  0A
021C:  MOVLB  4
021E:  MOVWF  x2E
0220:  MOVLB  0
0222:  RCALL  01D0
0224:  CLRF   03
0226:  MOVF   01,W
0228:  MOVFF  FF2,42C
022C:  BCF    FF2.7
022E:  RCALL  0004
0230:  MOVLB  4
0232:  BTFSC  x2C.7
0234:  BSF    FF2.7
0236:  MOVWF  x23
....................    donvi = ma7doan[sp % 10]; 
0238:  MOVFF  425,42D
023C:  MOVLW  0A
023E:  MOVWF  x2E
0240:  MOVLB  0
0242:  RCALL  01D0
0244:  CLRF   03
0246:  MOVF   00,W
0248:  MOVFF  FF2,42C
024C:  BCF    FF2.7
024E:  RCALL  0004
0250:  MOVLB  4
0252:  BTFSC  x2C.7
0254:  BSF    FF2.7
0256:  MOVWF  x24
....................    IF (chuc == 0xC0) chuc = 0xFF; 
0258:  MOVF   x23,W
025A:  SUBLW  C0
025C:  BNZ   0260
025E:  SETF   x23
0260:  MOVLB  0
0262:  RETURN 0
.................... } 
....................  
.................... void hienthi_nguoc() 
.................... { 
....................    xuat_4led_7doan_4so (0X92, 0X8C&0X7F, chuc, donvi) ; 
*
0EEC:  MOVLW  92
0EEE:  MOVLB  4
0EF0:  MOVWF  x2D
0EF2:  MOVLW  0C
0EF4:  MOVWF  x2E
0EF6:  MOVFF  423,42F
0EFA:  MOVFF  424,430
0EFE:  MOVLB  0
0F00:  CALL   01A6
....................    chuc = ma7doan[sp / 10]; 
0F04:  MOVFF  425,42D
0F08:  MOVLW  0A
0F0A:  MOVLB  4
0F0C:  MOVWF  x2E
0F0E:  MOVLB  0
0F10:  CALL   01D0
0F14:  CLRF   03
0F16:  MOVF   01,W
0F18:  MOVFF  FF2,42C
0F1C:  BCF    FF2.7
0F1E:  CALL   0004
0F22:  MOVLB  4
0F24:  BTFSC  x2C.7
0F26:  BSF    FF2.7
0F28:  MOVWF  x23
....................    donvi = ma7doan[sp % 10]; 
0F2A:  MOVFF  425,42D
0F2E:  MOVLW  0A
0F30:  MOVWF  x2E
0F32:  MOVLB  0
0F34:  CALL   01D0
0F38:  CLRF   03
0F3A:  MOVF   00,W
0F3C:  MOVFF  FF2,42C
0F40:  BCF    FF2.7
0F42:  CALL   0004
0F46:  MOVLB  4
0F48:  BTFSC  x2C.7
0F4A:  BSF    FF2.7
0F4C:  MOVWF  x24
....................    IF (chuc == 0xC0) chuc = 0xFF; 
0F4E:  MOVF   x23,W
0F50:  SUBLW  C0
0F52:  BNZ   0F56
0F54:  SETF   x23
0F56:  MOVLB  0
0F58:  GOTO   1298 (RETURN)
.................... } 
....................  
.................... void hienthi_thuan_LCD_nho() 
.................... { 
....................    lcd_GOTO_xy (0, 14) ; 
*
0C80:  MOVLB  4
0C82:  CLRF   x31
0C84:  MOVLW  0E
0C86:  MOVWF  x32
0C88:  MOVLB  0
0C8A:  CALL   036C
....................    delay_us (20); 
0C8E:  MOVLW  20
0C90:  MOVWF  00
0C92:  DECFSZ 00,F
0C94:  BRA    0C92
0C96:  BRA    0C98
0C98:  NOP   
....................    chuclcd = sp / 10 % 10 + 0x30; 
0C9A:  MOVFF  425,42D
0C9E:  MOVLW  0A
0CA0:  MOVLB  4
0CA2:  MOVWF  x2E
0CA4:  MOVLB  0
0CA6:  CALL   01D0
0CAA:  MOVFF  01,42D
0CAE:  MOVLW  0A
0CB0:  MOVLB  4
0CB2:  MOVWF  x2E
0CB4:  MOVLB  0
0CB6:  CALL   01D0
0CBA:  MOVLW  30
0CBC:  ADDWF  00,W
0CBE:  MOVLB  4
0CC0:  MOVWF  x28
....................    donvilcd = sp % 10 + 0x30; 
0CC2:  MOVFF  425,42D
0CC6:  MOVLW  0A
0CC8:  MOVWF  x2E
0CCA:  MOVLB  0
0CCC:  CALL   01D0
0CD0:  MOVLW  30
0CD2:  ADDWF  00,W
0CD4:  MOVLB  4
0CD6:  MOVWF  x29
....................  
....................    IF (chuclcd == 0x30) 
0CD8:  MOVF   x28,W
0CDA:  SUBLW  30
0CDC:  BNZ   0CE2
....................       chuclcd = 0x20; 
0CDE:  MOVLW  20
0CE0:  MOVWF  x28
....................  
....................    lcd_data (chuclcd); 
0CE2:  MOVFF  428,431
0CE6:  MOVLB  0
0CE8:  CALL   0356
....................    lcd_data (donvilcd); 
0CEC:  MOVFF  429,431
0CF0:  CALL   0356
....................    lcd_data (".SP"); 
0CF4:  MOVLW  14
0CF6:  MOVWF  FF6
0CF8:  MOVLW  01
0CFA:  MOVWF  FF7
0CFC:  CALL   038E
0D00:  GOTO   128A (RETURN)
.................... } 
....................  
.................... void hienthi_nguoc_LCD_nho() 
.................... { 
....................    lcd_GOTO_xy (0, 14) ; 
*
0F5C:  MOVLB  4
0F5E:  CLRF   x31
0F60:  MOVLW  0E
0F62:  MOVWF  x32
0F64:  MOVLB  0
0F66:  CALL   036C
....................    delay_us (20); 
0F6A:  MOVLW  20
0F6C:  MOVWF  00
0F6E:  DECFSZ 00,F
0F70:  BRA    0F6E
0F72:  BRA    0F74
0F74:  NOP   
....................    chuclcd = sp / 10 % 10 + 0x30; 
0F76:  MOVFF  425,42D
0F7A:  MOVLW  0A
0F7C:  MOVLB  4
0F7E:  MOVWF  x2E
0F80:  MOVLB  0
0F82:  CALL   01D0
0F86:  MOVFF  01,42D
0F8A:  MOVLW  0A
0F8C:  MOVLB  4
0F8E:  MOVWF  x2E
0F90:  MOVLB  0
0F92:  CALL   01D0
0F96:  MOVLW  30
0F98:  ADDWF  00,W
0F9A:  MOVLB  4
0F9C:  MOVWF  x28
....................    donvilcd = sp % 10 + 0x30; 
0F9E:  MOVFF  425,42D
0FA2:  MOVLW  0A
0FA4:  MOVWF  x2E
0FA6:  MOVLB  0
0FA8:  CALL   01D0
0FAC:  MOVLW  30
0FAE:  ADDWF  00,W
0FB0:  MOVLB  4
0FB2:  MOVWF  x29
....................  
....................    IF (chuclcd == 0x30) 
0FB4:  MOVF   x28,W
0FB6:  SUBLW  30
0FB8:  BNZ   0FBE
....................       chuclcd = 0x20; 
0FBA:  MOVLW  20
0FBC:  MOVWF  x28
....................  
....................     
....................    lcd_data ("SP."); 
0FBE:  MOVLW  18
0FC0:  MOVWF  FF6
0FC2:  MOVLW  01
0FC4:  MOVWF  FF7
0FC6:  MOVLB  0
0FC8:  CALL   038E
....................    lcd_data (chuclcd); 
0FCC:  MOVFF  428,431
0FD0:  CALL   0356
....................    lcd_data (donvilcd); 
0FD4:  MOVFF  429,431
0FD8:  CALL   0356
0FDC:  GOTO   129A (RETURN)
.................... } 
....................  
.................... void dem_xuong() 
.................... { 
....................    t0 = get_timer0 (); 
*
0C62:  MOVF   FD6,W
0C64:  MOVLB  4
0C66:  MOVWF  x21
....................  
....................    IF (t0 == 1) 
0C68:  DECFSZ x21,W
0C6A:  BRA    0C7A
....................    { 
....................       set_timer0 (0); 
0C6C:  CLRF   FD7
0C6E:  CLRF   FD6
....................       sp--; 
0C70:  DECF   x25,F
....................       IF (sp == 0) sp = 99; 
0C72:  MOVF   x25,F
0C74:  BNZ   0C7A
0C76:  MOVLW  63
0C78:  MOVWF  x25
....................    } 
0C7A:  MOVLB  0
0C7C:  GOTO   1278 (RETURN)
.................... } 
....................  
.................... void dem_len() 
.................... { 
....................    t0 = get_timer0 (); 
*
0C42:  MOVF   FD6,W
0C44:  MOVLB  4
0C46:  MOVWF  x21
....................  
....................    IF (t0 == 1) 
0C48:  DECFSZ x21,W
0C4A:  BRA    0C5C
....................    { 
....................       set_timer0 (0); 
0C4C:  CLRF   FD7
0C4E:  CLRF   FD6
....................       sp++; 
0C50:  INCF   x25,F
....................       IF (sp == 100) sp = 1; 
0C52:  MOVF   x25,W
0C54:  SUBLW  64
0C56:  BNZ   0C5C
0C58:  MOVLW  01
0C5A:  MOVWF  x25
....................    } 
0C5C:  MOVLB  0
0C5E:  GOTO   1278 (RETURN)
.................... } 
....................  
.................... void main() 
*
112A:  CLRF   FF8
112C:  BCF    FD0.7
112E:  CLRF   06
1130:  CLRF   0D
1132:  CLRF   0E
1134:  CLRF   0F
1136:  CLRF   10
1138:  CLRF   19
113A:  CLRF   1A
113C:  CLRF   1B
113E:  MOVF   FC1,W
1140:  ANDLW  C0
1142:  IORLW  0F
1144:  MOVWF  FC1
1146:  MOVLW  07
1148:  MOVWF  FB4
114A:  SETF   11
114C:  SETF   12
114E:  SETF   13
1150:  SETF   14
1152:  SETF   15
1154:  SETF   16
1156:  SETF   17
1158:  SETF   18
.................... { 
....................    set_tris_b (0x3c); 
115A:  MOVLW  3C
115C:  MOVWF  F93
....................    set_up_port_ic_chot (); 
115E:  GOTO   012C
....................    t0 = 0; TT_DC = 1; TT_HT = 1; 
1162:  MOVLB  4
1164:  CLRF   x21
1166:  BSF    x26.0
1168:  BSF    x26.1
....................    hienthi_thuan (); 
116A:  MOVLB  0
116C:  CALL   01FC
....................    setup_timer_0 (t0_off); 
1170:  CLRF   FD5
....................    set_timer0 (0); 
1172:  CLRF   FD7
1174:  CLRF   FD6
....................    t0_tam = t0 = 0; 
1176:  MOVLB  4
1178:  CLRF   x21
117A:  MOVFF  421,422
....................    tt = 0; 
117E:  BCF    x26.3
....................    setup_lcd (); 
1180:  MOVLB  0
1182:  GOTO   02FA
....................    lcd_command (0x40); // LCD TO 
1186:  MOVLW  40
1188:  MOVLB  4
118A:  MOVWF  x34
118C:  MOVLB  0
118E:  CALL   02BC
....................     
....................    FOR (i = 0; i < 64; i++) { lcd_data (lcd_ma_8doan[i]); }// LCD TO 
1192:  MOVLB  4
1194:  CLRF   x2A
1196:  BTFSC  x2A.7
1198:  BRA    11A0
119A:  MOVF   x2A,W
119C:  SUBLW  3F
119E:  BNC   11C6
11A0:  CLRF   03
11A2:  MOVF   x2A,W
11A4:  MOVFF  FF2,42C
11A8:  BCF    FF2.7
11AA:  MOVLB  0
11AC:  CALL   00A8
11B0:  MOVLB  4
11B2:  BTFSC  x2C.7
11B4:  BSF    FF2.7
11B6:  MOVWF  x2C
11B8:  MOVWF  x31
11BA:  MOVLB  0
11BC:  CALL   0356
11C0:  MOVLB  4
11C2:  INCF   x2A,F
11C4:  BRA    1196
....................     
....................    lcd_GOTO_xy (0, 0) ; 
11C6:  CLRF   x31
11C8:  CLRF   x32
11CA:  MOVLB  0
11CC:  CALL   036C
....................    lcd_data ("DEM SAN PHAM: "); 
11D0:  MOVLW  1C
11D2:  MOVWF  FF6
11D4:  MOVLW  01
11D6:  MOVWF  FF7
11D8:  CALL   038E
....................     
....................    SETUP_GLCD (GLCD_TEXT_MODE); //GLCD 
11DC:  MOVLW  30
11DE:  MOVLB  4
11E0:  MOVWF  x2C
11E2:  MOVLB  0
11E4:  CALL   03E6
....................    setup_glcd (glcd_graphic_mode) ; 
11E8:  MOVLW  36
11EA:  MOVLB  4
11EC:  MOVWF  x2C
11EE:  MOVLB  0
11F0:  CALL   03E6
....................    glcd_mau_nen (0) ; 
11F4:  MOVLB  4
11F6:  CLRF   x2C
11F8:  MOVLB  0
11FA:  GOTO   0460
....................    glcd_circle (67, 30, 30, 0, 1); 
11FE:  MOVLW  43
1200:  MOVLB  4
1202:  MOVWF  x2C
1204:  MOVLW  1E
1206:  MOVWF  x2D
1208:  MOVWF  x2E
120A:  CLRF   x2F
120C:  MOVLW  01
120E:  MOVWF  x30
1210:  MOVLB  0
1212:  GOTO   076C
....................    gdram_vdk_to_gdram_glcd_all () ; 
1216:  GOTO   0988
....................     
....................     
....................     
....................    DOI_HINH = 0; 
121A:  MOVLB  4
121C:  BCF    x26.2
....................     
....................    WHILE (true) 
....................    { 
....................       GLCD_COMMAND (GLCD_TEXT_MODE); //GLCD 
121E:  MOVLW  30
1220:  MOVWF  x2D
1222:  MOVLB  0
1224:  CALL   03DC
....................       t0 = get_timer0 (); 
1228:  MOVF   FD6,W
122A:  MOVLB  4
122C:  MOVWF  x21
....................       hien_thi_8led_7doan_quet (); //quet 
122E:  MOVLB  0
1230:  RCALL  0B30
....................       mp = key_4x4_dw_QUET (); 
1232:  BRA    0C02
1234:  MOVFF  01,427
.................... //!      doi_hinhh (); //GLCD 
....................       IF (mp != 0xFF) 
1238:  MOVLB  4
123A:  INCFSZ x27,W
123C:  BRA    1240
123E:  BRA    1256
....................       { 
....................          IF (mp == 0) 
1240:  MOVF   x27,F
1242:  BNZ   1246
....................          { 
....................             tt = ~tt; 
1244:  BTG    x26.3
....................          } 
....................  
....................          IF (mp == 4) 
1246:  MOVF   x27,W
1248:  SUBLW  04
124A:  BNZ   124E
....................          { 
....................             TT_DC = ~TT_DC; 
124C:  BTG    x26.0
....................          } 
....................  
....................          IF (mp == 8) 
124E:  MOVF   x27,W
1250:  SUBLW  08
1252:  BNZ   1256
....................          { 
....................             TT_HT = ~TT_HT; 
1254:  BTG    x26.1
....................          } 
....................  
.................... //!         IF (mp == 1) 
.................... //!         { 
.................... //!            doi_hinh = ~doi_hinh; 
.................... //!         } 
....................       } 
....................  
....................       IF (tt == 1) 
1256:  BTFSS  x26.3
1258:  BRA    127C
....................       { 
....................          setup_timer_0 (t0_ext_l_to_h|t0_div_1|t0_8_bit); 
125A:  MOVLW  E8
125C:  MOVWF  FD5
....................  
....................          IF (t0 != t0_tam) 
125E:  MOVF   x22,W
1260:  SUBWF  x21,W
1262:  BZ    127A
....................          { 
....................             t0_tam = t0; 
1264:  MOVFF  421,422
....................  
....................             IF (TT_DC == 1) 
1268:  BTFSS  x26.0
126A:  BRA    1274
....................                dem_len (); 
126C:  MOVLB  0
126E:  BRA    0C42
1270:  MOVLB  0
1272:  BRA    1278
....................  
....................             ELSE dem_xuong (); 
1274:  MOVLB  0
1276:  BRA    0C62
1278:  MOVLB  4
....................          } 
....................       } 
127A:  BRA    127E
....................  
....................       ELSE setup_timer_0 (t0_off); 
127C:  CLRF   FD5
....................        
....................       IF (TT_HT == 1) 
127E:  BTFSS  x26.1
1280:  BRA    1294
....................       { 
....................          hienthi_thuan (); 
1282:  MOVLB  0
1284:  CALL   01FC
....................          hienthi_thuan_LCD_nho (); 
1288:  BRA    0C80
....................          giai_ma_gan_cho_8led_quet_thuan (); //quet 
128A:  BRA    0D04
....................          LCD_TO_THUAN (); //LCD TO 
128C:  BRA    0DDA
....................          glcd_hienthi_t0_thuan (); 
128E:  BRA    0E86
....................       } 
1290:  BRA    12A0
1292:  MOVLB  4
....................  
....................        
....................       ELSE 
....................       { 
....................          hienthi_nguoc (); 
1294:  MOVLB  0
1296:  BRA    0EEC
....................          hienthi_nguoc_LCD_nho (); 
1298:  BRA    0F5C
....................          LCD_TO_nguoc () ; 
129A:  BRA    0FE0
....................          giai_ma_gan_cho_8led_quet_nguoc (); //quet 
129C:  BRA    106C
....................          glcd_hienthi_t0_nguoc (); 
129E:  BRA    10C4
....................       } 
12A0:  MOVLB  4
12A2:  BRA    121E
....................    } 
.................... } 
....................  
12A4:  SLEEP 

Configuration Fuses:
   Word  1: CC27   PLL12 CPUDIV1 USBDIV HS FCMEN IESO
   Word  2: 1E3E   PUT BROWNOUT BORV21 VREGEN NOWDT WDT32768
   Word  3: 8700   CCP2C1 PBADEN LPT1OSC MCLR
   Word  4: 00A1   STVREN NOLVP ICSP2 NOXINST NODEBUG
   Word  5: C00F   NOPROTECT NOCPB NOCPD
   Word  6: E00F   NOWRT NOWRTC NOWRTB NOWRTD
   Word  7: 400F   NOEBTR NOEBTRB
