CCS PCH C Compiler, Version 5.015, 5967               06-Jul-20 16:43

               Filename:   C:\Users\tsqua\OneDrive - student.mtsac.edu\Desktop\BAI_TAP_VXL_NEW_3\KIEMTRA_GIUAKI_cau_ABC.lst

               ROM used:   4164 bytes (13%)
                           Largest free fragment is 28600
               RAM used:   1153 (56%) at main() level
                           1189 (58%) worst case
               Stack used: 9 locations (8 in main + 1 for interrupts)
               Stack size: 31

*
0000:  GOTO   0E62
*
0008:  MOVWF  04
000A:  MOVFF  FD8,05
000E:  MOVFF  FE0,06
0012:  MOVLB  0
0014:  MOVFF  FE9,0C
0018:  MOVFF  FEA,07
001C:  MOVFF  FE1,08
0020:  MOVFF  FE2,09
0024:  MOVFF  FD9,0A
0028:  MOVFF  FDA,0B
002C:  MOVFF  FF3,12
0030:  MOVFF  FF4,13
0034:  MOVFF  FFA,14
0038:  MOVFF  00,0E
003C:  MOVFF  01,0F
0040:  MOVFF  02,10
0044:  MOVFF  03,11
0048:  BTFSS  F9D.0
004A:  GOTO   0054
004E:  BTFSC  F9E.0
0050:  GOTO   01AE
0054:  MOVFF  0E,00
0058:  MOVFF  0F,01
005C:  MOVFF  10,02
0060:  MOVFF  11,03
0064:  MOVFF  0C,FE9
0068:  MOVFF  07,FEA
006C:  BSF    07.7
006E:  MOVFF  08,FE1
0072:  MOVFF  09,FE2
0076:  MOVFF  0A,FD9
007A:  MOVFF  0B,FDA
007E:  MOVFF  12,FF3
0082:  MOVFF  13,FF4
0086:  MOVFF  14,FFA
008A:  MOVF   04,W
008C:  MOVFF  06,FE0
0090:  MOVFF  05,FD8
0094:  RETFIE 0
....................  
.................... #INCLUDE <TV_PICKIT2_SHIFT_1.C> 
.................... #INCLUDE    <18F4550.H> 
.................... //////////// Standard Header file for the PIC18F4550 device //////////////// 
.................... /////////////////////////////////////////////////////////////////////////// 
.................... ////        (C) Copyright 1996, 2013 Custom Computer Services          //// 
.................... //// This source code may only be used by licensed users of the CCS C  //// 
.................... //// compiler.  This source code may only be distributed to other      //// 
.................... //// licensed users of the CCS C compiler.  No other use, reproduction //// 
.................... //// or distribution is permitted without written permission.          //// 
.................... //// Derivative programs created using this software in object code    //// 
.................... //// form are not restricted in any way.                               //// 
.................... /////////////////////////////////////////////////////////////////////////// 
.................... #device PIC18F4550 
0096:  MOVFF  FF2,0D
009A:  BCF    FF2.7
009C:  CLRF   FF7
009E:  ADDLW  B0
00A0:  MOVWF  FF6
00A2:  MOVLW  00
00A4:  ADDWFC FF7,F
00A6:  TBLRD*+
00A8:  MOVF   FF5,W
00AA:  BTFSC  0D.7
00AC:  BSF    FF2.7
00AE:  RETURN 0
00B0:  DATA 00,01
00B2:  DATA 02,05
00B4:  DATA 03,04
00B6:  DATA 01,02
00B8:  DATA 20,03
00BA:  DATA 07,03
00BC:  DATA 06,06
00BE:  DATA 02,05
00C0:  DATA 03,03
00C2:  DATA 06,06
00C4:  DATA 02,03
00C6:  DATA 03,04
00C8:  DATA 07,03
00CA:  DATA 07,20
00CC:  DATA 20,07
00CE:  DATA 07,06
00D0:  DATA 06,03
00D2:  DATA 03,04
00D4:  DATA 00,06
00D6:  DATA 06,05
00D8:  DATA 03,04
00DA:  DATA 01,01
00DC:  DATA 07,20
00DE:  DATA 20,07
00E0:  DATA 00,06
00E2:  DATA 02,05
00E4:  DATA 03,04
00E6:  DATA 00,06
00E8:  DATA 02,03
00EA:  DATA 03,04
00EC:  DATA 20,20
00EE:  DATA 20,20
00F0:  DATA 20,20
00F2:  DATA 00,06
00F4:  DATA 02,05
00F6:  DATA 20,20
00F8:  MOVFF  FF2,0D
00FC:  BCF    FF2.7
00FE:  CLRF   FF7
0100:  ADDLW  12
0102:  MOVWF  FF6
0104:  MOVLW  01
0106:  ADDWFC FF7,F
0108:  TBLRD*+
010A:  MOVF   FF5,W
010C:  BTFSC  0D.7
010E:  BSF    FF2.7
0110:  RETURN 0
0112:  DATA 07,0F
0114:  DATA 1F,1F
0116:  DATA 1F,1F
0118:  DATA 1F,1F
011A:  DATA 1F,1F
011C:  DATA 1F,00
011E:  DATA 00,00
0120:  DATA 00,00
0122:  DATA 1C,1E
0124:  DATA 1F,1F
0126:  DATA 1F,1F
0128:  DATA 1F,1F
012A:  DATA 00,00
012C:  DATA 00,00
012E:  DATA 00,1F
0130:  DATA 1F,1F
0132:  DATA 1F,1F
0134:  DATA 1F,1F
0136:  DATA 1F,1F
0138:  DATA 1E,1C
013A:  DATA 1F,1F
013C:  DATA 1F,1F
013E:  DATA 1F,1F
0140:  DATA 0F,07
0142:  DATA 1F,1F
0144:  DATA 1F,00
0146:  DATA 00,00
0148:  DATA 1F,1F
014A:  DATA 1F,1F
014C:  DATA 1F,1F
014E:  DATA 1F,1F
0150:  DATA 1F,1F
0152:  MOVFF  FF2,0D
0156:  BCF    FF2.7
0158:  CLRF   FF7
015A:  ADDLW  6C
015C:  MOVWF  FF6
015E:  MOVLW  01
0160:  ADDWFC FF7,F
0162:  TBLRD*+
0164:  MOVF   FF5,W
0166:  BTFSC  0D.7
0168:  BSF    FF2.7
016A:  RETURN 0
016C:  DATA 80,C0
016E:  DATA 94,D4
0170:  MOVFF  FF2,0D
0174:  BCF    FF2.7
0176:  CLRF   FF7
0178:  ADDLW  8A
017A:  MOVWF  FF6
017C:  MOVLW  01
017E:  ADDWFC FF7,F
0180:  TBLRD*+
0182:  MOVF   FF5,W
0184:  BTFSC  0D.7
0186:  BSF    FF2.7
0188:  RETURN 0
018A:  DATA 3F,7F
018C:  DATA BF,FF
018E:  MOVFF  FF2,0D
0192:  BCF    FF2.7
0194:  CLRF   FF7
0196:  ADDLW  A8
0198:  MOVWF  FF6
019A:  MOVLW  01
019C:  ADDWFC FF7,F
019E:  TBLRD*+
01A0:  MOVF   FF5,W
01A2:  BTFSC  0D.7
01A4:  BSF    FF2.7
01A6:  RETURN 0
01A8:  DATA 00,20
01AA:  DATA 02,05
01AC:  DATA 03,04
*
01C2:  DATA 47,69
01C4:  DATA 00,00
01C6:  DATA 3D,00
*
03DC:  MOVLB  4
03DE:  MOVF   xA0,W
03E0:  MULWF  xA2
03E2:  MOVFF  FF3,01
03E6:  MOVFF  FF4,00
03EA:  MULWF  xA3
03EC:  MOVF   FF3,W
03EE:  ADDWF  00,F
03F0:  MOVF   xA1,W
03F2:  MULWF  xA2
03F4:  MOVF   FF3,W
03F6:  ADDWFC 00,W
03F8:  MOVWF  02
03FA:  MOVLB  0
03FC:  RETURN 0
*
0480:  MOVLB  4
0482:  MOVF   x82,W
0484:  CLRF   01
0486:  SUBWF  x81,W
0488:  BC    0490
048A:  MOVFF  481,00
048E:  BRA    04A8
0490:  CLRF   00
0492:  MOVLW  08
0494:  MOVWF  x83
0496:  RLCF   x81,F
0498:  RLCF   00,F
049A:  MOVF   x82,W
049C:  SUBWF  00,W
049E:  BTFSC  FD8.0
04A0:  MOVWF  00
04A2:  RLCF   01,F
04A4:  DECFSZ x83,F
04A6:  BRA    0496
04A8:  MOVLB  0
04AA:  RETURN 0
*
04CE:  CLRF   00
04D0:  CLRF   01
04D2:  MOVLB  4
04D4:  MOVF   x89,W
04D6:  BCF    FD8.0
04D8:  BTFSC  x8A.0
04DA:  ADDWF  00,F
04DC:  RRCF   00,F
04DE:  RRCF   01,F
04E0:  BTFSC  x8A.1
04E2:  ADDWF  00,F
04E4:  RRCF   00,F
04E6:  RRCF   01,F
04E8:  BTFSC  x8A.2
04EA:  ADDWF  00,F
04EC:  RRCF   00,F
04EE:  RRCF   01,F
04F0:  BTFSC  x8A.3
04F2:  ADDWF  00,F
04F4:  RRCF   00,F
04F6:  RRCF   01,F
04F8:  BTFSC  x8A.4
04FA:  ADDWF  00,F
04FC:  RRCF   00,F
04FE:  RRCF   01,F
0500:  BTFSC  x8A.5
0502:  ADDWF  00,F
0504:  RRCF   00,F
0506:  RRCF   01,F
0508:  BTFSC  x8A.6
050A:  ADDWF  00,F
050C:  RRCF   00,F
050E:  RRCF   01,F
0510:  BTFSC  x8A.7
0512:  ADDWF  00,F
0514:  RRCF   00,F
0516:  RRCF   01,F
0518:  MOVLB  0
051A:  RETURN 0
*
0668:  TBLRD*+
066A:  MOVF   FF5,F
066C:  BZ    0686
066E:  MOVFF  FF6,481
0672:  MOVFF  FF7,482
0676:  MOVFF  FF5,483
067A:  RCALL  065E
067C:  MOVFF  481,FF6
0680:  MOVFF  482,FF7
0684:  BRA    0668
0686:  RETURN 0
....................  
.................... #list 
....................  
.................... #DEVICE     ADC=10 
.................... #FUSES      NOWDT,PUT,HS,NOPROTECT,NOLVP,CPUDIV1 
.................... #USE        I2C(MASTER,SLOW,SDA=PIN_B0,SCL=PIN_B1) 
.................... #USE        DELAY(CLOCK=20000000) 
*
02B2:  MOVLW  04
02B4:  MOVWF  FEA
02B6:  MOVLW  82
02B8:  MOVWF  FE9
02BA:  MOVF   FEF,W
02BC:  BZ    02D8
02BE:  MOVLW  06
02C0:  MOVWF  01
02C2:  CLRF   00
02C4:  DECFSZ 00,F
02C6:  BRA    02C4
02C8:  DECFSZ 01,F
02CA:  BRA    02C2
02CC:  MOVLW  7B
02CE:  MOVWF  00
02D0:  DECFSZ 00,F
02D2:  BRA    02D0
02D4:  DECFSZ FEF,F
02D6:  BRA    02BE
02D8:  RETURN 0
.................... //#USE        rs232(baud=9600, xmit=PIN_C6,rcv=PIN_C7) 
.................... //NUT NHAN: 
.................... #DEFINE  BT0     PIN_B5 
.................... #DEFINE  BT1     PIN_B4 
.................... #DEFINE  BT2     PIN_B3 
.................... #DEFINE  BT3     PIN_B2 
....................  
.................... #DEFINE  ON      BT0       //DK LED DON, MOTOR 
.................... #DEFINE  OFF     BT1 
.................... #DEFINE  INV     BT2 
....................  
.................... #DEFINE  UP      BT0    //DK LED DON 
.................... #DEFINE  DW      BT1 
.................... #DEFINE  CLR     BT2 
.................... #DEFINE  MOD     BT3 
....................  
.................... #DEFINE  STOP    BT3 
....................  
.................... #DEFINE  ON1     BT0      
.................... #DEFINE  OFF1    BT1 
.................... #DEFINE  ON2     BT2        
.................... #DEFINE  OFF2    BT3 
....................  
....................  
.................... #DEFINE     TRIGGER      PIN_E2 
.................... #DEFINE     ECHO         PIN_E1 
.................... //   IC74138_A    PIN_B6   //OUTPUT GIAI MA 2 SANG 4 TICH CUC MUC 0 
.................... //   IC74138_B    PIN_B7   //OUTPUT GIAI MA 2 SANG 4 TICH CUC MUC 0 
....................  
.................... //          ENCODER  PIN_C0   //RC0/T13CKI 
....................  
.................... //          CB_KC    PIN_A2   //RA2/AN2 
.................... //          PIR      PIN_A3   //RA3/AN3 
.................... //          CBXUNG   PIN_A4   //RA4/T0CKI 
.................... //          LEDTHU   PIN_A4   //RA4/T0CKI//SW802 
....................  
.................... //          CB_KCSA_TRIGGER  PIN_E2   //RE2/SDO  DUNG CHUNG 
.................... //          CB_KCSA_RCHO     PIN_E1   //RE1 
....................  
.................... //          CB_TCS3200_OUT    PIN_E1   //RE1 //CAM BIEN MAU TCS3200 
.................... //          CB_TCS3200_S0     B12      //LAY TU MBI5026 
.................... //          CB_TCS3200_S1     B13      //LAY TU MBI5026 
.................... //          CB_TCS3200_S2     B14      //LAY TU MBI5026 
.................... //          CB_TCS3200_S3     B15      //LAY TU MBI5026 
....................  
.................... //          CB_POWER  SW803 
.................... //          CB_GAS      AIN3_PCF8591T   //RE1 
.................... //          CB_QUANG    AIN2_PCF8591T    
.................... //          CB_LM35B    AIN1_PCF8591T   //RA1/AN1 
.................... //          CB_LM35A    AIN0_PCF8591T   //RE1/AN0 
....................  
.................... //XXXXXXXXXXXXXXXXXXXXXXXXXXXXXXXXXXXXXXXXXXXXXXXXX 
.................... #DEFINE      ENABLE_573A      PIN_D1         //CS0 CUA A 
.................... #DEFINE      ENABLE_573B      PIN_D0         //CS1 CUA B 
.................... //XXXXXXXXXXXXXXXXXXXXXXXXXXXXXXXXXXXXXXXXXXXXXXXXX 
.................... #DEFINE      SSDO             PIN_E2         //CHUNG TAT CA 
.................... #DEFINE      SSCK             PIN_E0         //CHUNG TAT CA 
.................... //XXXXXXXXXXXXXXXXXXXXXXXXXXXXXXXXXXXXXXXXXXXXXXXXX 
.................... #DEFINE      RCK_4LED7DOAN    PIN_D7         //A - 4 BYTE 
.................... #DEFINE      G_4LED7DOAN      PIN_D6         //A - 4 BYTE 
.................... //XXXXXXXXXXXXXXXXXXXXXXXXXXXXXXXXXXXXXXXXXXXX     
.................... #DEFINE      RCK_MATRANLED    PIN_D7         //B - 3 BYTE DAO 
.................... #DEFINE      G_MATRANLED      PIN_D6         //B - 3 BYTE DAO 
.................... //XXXXXXXXXXXXXXXXXXXXXXXXXXXXXXXXXXXXXXXXXXXXXXXXX 
.................... #DEFINE      RCK_32LED        PIN_D5         //A - 4 BYTE 
.................... #DEFINE      G_32LED          PIN_D4         //A - 4 BYTE 
.................... //XXXXXXXXXXXXXXXXXXXXXXXXXXXXXXXXXXXXXXXXXXXX  
.................... #DEFINE      RCK_8LEDQUET     PIN_D5         //B - 2 BYTE DAO 
.................... #DEFINE      G_8LEDQUET       PIN_D4         //B - 2 BYTE DAO 
.................... //XXXXXXXXXXXXXXXXXXXXXXXXXXXXXXXXXXXXXXXXXXXXXXXXX 
.................... #DEFINE      RCK_LCD20X4      PIN_D3         //A - 2 BYTE DAO 
.................... #DEFINE      G_LCD20X4         PIN_D2         //A - 2 BYTE DAO 
.................... //XXXXXXXXXXXXXXXXXXXXXXXXXXXXXXXXXXXXXXXXXXXX  
.................... #DEFINE      RCK_BUZERELAY    PIN_D3     //B - 1 BYTE  
.................... #DEFINE      G_BUZERELAY      PIN_D2         //B - 1 BYTE  
....................  
.................... VOID XUAT_LCD20X4(UNSIGNED INT8 LCD_SIGNAL,LCD_INS_HTHI); 
....................  
.................... VOID XUAT_BUZZER_RELAY(); 
.................... //XXXXXXXXXXXXXXXXXXXXXXXXXXXXXXXXXXXXXXXXXXXX    
.................... #DEFINE     CHOT_2_IC_74573_A_B  OUTPUT_D(0XFC) 
....................  
.................... UNSIGNED INT8 TIN_HIEU_DK_74573_A; 
.................... #BIT G_4A         = TIN_HIEU_DK_74573_A.6 
.................... #BIT G_32A        = TIN_HIEU_DK_74573_A.4 
.................... #BIT G_LCDA       = TIN_HIEU_DK_74573_A.2 
.................... //XXXXXXXXXXXXXXXXXXXXXXXXXXXXXXXXXXXXXXXXXXXX          
.................... #DEFINE     MO_32_LED_DON        G_32A=0; //OUTPUT_LOW(G_32LED)  
.................... #DEFINE     TAT_32_LED_DON       G_32A=1; //OUTPUT_HIGH(G_32LED)  
.................... //XXXXXXXXXXXXXXXXXXXXXXXXXXXXXXXXXXXXXXXXXXXX          
.................... #DEFINE     MO_4_LED_7DOAN       G_4A=0;  //OUTPUT_LOW(G_4LED7DOAN) 
.................... #DEFINE     TAT_4_LED_7DOAN      G_4A=1;  //OUTPUT_HIGH(G_4LED7DOAN) 
.................... //XXXXXXXXXXXXXXXXXXXXXXXXXXXXXXXXXXXXXXXXXXXX  
.................... #DEFINE     MO_GLCD_LCD           G_LCDA=0;   //OUTPUT_LOW(G_LCD20X4) 
.................... #DEFINE     TAT_GLCD_LCD          G_LCDA=1;   // OUTPUT_LOW(G_LCD20X4) 
....................  
.................... UNSIGNED INT8 TIN_HIEU_DK_74573_B;   
.................... #BIT G_MTB        = TIN_HIEU_DK_74573_B.6 
.................... #BIT G_8B         = TIN_HIEU_DK_74573_B.4 
.................... #BIT G_RBDCB      = TIN_HIEU_DK_74573_B.2 
.................... //XXXXXXXXXXXXXXXXXXXXXXXXXXXXXXXXXXXXXXXXXXXX  
.................... #DEFINE     MO_LED_MATRAN        G_MTB=0; //OUTPUT_LOW(G_MATRANLED) 
.................... #DEFINE     TAT_LED_MATRAN       G_MTB=1; //OUTPUT_LOW(G_MATRANLED) 
.................... //XXXXXXXXXXXXXXXXXXXXXXXXXXXXXXXXXXXXXXXXXXXX        
.................... #DEFINE     MO_8_LED_QUET        G_8B=0;  //OUTPUT_LOW(G_8LEDQUET) 
.................... #DEFINE     TAT_8_LED_QUET       G_8B=1;  //OUTPUT_LOW(G_8LEDQUET) 
.................... //XXXXXXXXXXXXXXXXXXXXXXXXXXXXXXXXXXXXXXXXXXXX          
.................... #DEFINE     MO_RELAY_BUZZER_DC   G_RBDCB=0;  //OUTPUT_LOW(G_BUZERELAY) 
.................... #DEFINE     TAT_RELAY_BUZZER_DC  G_RBDCB=1;  //OUTPUT_LOW(G_BUZERELAY) 
....................  
.................... //XXXXXXXXXXXXXXXXXXXXXXXXXXXXXXXXXXXXXXXXXXXX 
.................... //CHUONG TRINH KIEM TRA PHIM BT1 
.................... //XXXXXXXXXXXXXXXXXXXXXXXXXXXXXXXXXXXXXXXXXXXX 
.................... UNSIGNED INT8 DL_BTN=0; 
.................... INT1 PHIM_BT0(UNSIGNED INT16 DL) 
.................... {   
....................     IF (!INPUT(BT0)) 
....................     {   
....................       DL_BTN++; 
....................        
....................       IF (DL_BTN>= DL) 
....................          { 
....................             DL_BTN =0; 
....................             RETURN(1); 
....................          } 
....................       ELSE RETURN(0); 
....................     } 
....................     ELSE    RETURN(0); 
.................... }  
.................... //XXXXXXXXXXXXXXXXXXXXXXXXXXXXXXXXXXXXXXXXXXXX 
.................... //CHUONG TRINH KIEM TRA PHIM BT1 
.................... //XXXXXXXXXXXXXXXXXXXXXXXXXXXXXXXXXXXXXXXXXXXX 
.................... INT1 PHIM_BT1(UNSIGNED INT16 DL ) 
.................... {   
....................     IF (!INPUT(BT1)) 
....................     {   
....................       DL_BTN++; 
....................        
....................       IF (DL_BTN>= DL) 
....................          { 
....................             DL_BTN =0; 
....................             RETURN(1); 
....................          } 
....................       ELSE RETURN(0); 
....................     } 
....................     ELSE    RETURN(0); 
.................... }  
.................... //XXXXXXXXXXXXXXXXXXXXXXXXXXXXXXXXXXXXXXXXXXXX 
.................... //CHUONG TRINH KIEM TRA PHIM BT2       
.................... //XXXXXXXXXXXXXXXXXXXXXXXXXXXXXXXXXXXXXXXXXXXX                                     
.................... INT1 PHIM_BT2(UNSIGNED INT16 DL ) 
.................... {                                         
....................     IF (!INPUT(BT2)) 
....................     {   
....................       DL_BTN++; 
....................        
....................       IF (DL_BTN>= DL) 
....................          { 
....................             DL_BTN =0; 
....................             RETURN(1); 
....................          } 
....................       ELSE RETURN(0); 
....................     } 
....................     ELSE    RETURN(0); 
....................                                           
.................... }       
....................  
.................... //XXXXXXXXXXXXXXXXXXXXXXXXXXXXXXXXXXXXXXXXXXXX 
.................... //CHUONG TRINH KIEM TRA PHIM BT3 
.................... //XXXXXXXXXXXXXXXXXXXXXXXXXXXXXXXXXXXXXXXXXXXX 
.................... INT1 PHIM_BT3(UNSIGNED INT16 DL,  UNSIGNED INT8 SOLAN  ) 
.................... {   
....................     IF (!INPUT(BT3)) 
....................     {   
....................       DL_BTN++; 
....................       IF(DL_BTN==1) RETURN(1); 
....................       ELSE 
....................       { 
....................          IF (DL_BTN>= DL) 
....................          DL_BTN =SOLAN; 
....................       } 
....................     } 
....................     ELSE    
....................     { 
....................       //DL_BTN =0; 
....................       RETURN(0); 
....................     } 
.................... }  
.................... //XXXXXXXXXXXXXXXXXXXXXXXXXXXXXXXXXXXXXXXXXXXX 
.................... //KHAI BAO DU LIEU 16 BIT CHO MODULE RELAY, TRIAC, BUZZER, DONG CO 
.................... //XXXXXXXXXXXXXXXXXXXXXXXXXXXXXXXXXXXXXXXXXXXX 
.................... UNSIGNED INT16 RBDC; 
.................... #BIT STEP_MOTOR_ENABLE  = RBDC.0    //1=ENA,0=DIS 
.................... #BIT STEP_MOTOR_IN1     = RBDC.1     
.................... #BIT STEP_MOTOR_IN2     = RBDC.2 
.................... #BIT STEP_MOTOR_IN3     = RBDC.3 
.................... #BIT STEP_MOTOR_IN4     = RBDC.4 
.................... #BIT DC_ENABLE          = RBDC.5    //1=ENA,0=DIS 
.................... #BIT PWRKEY             = RBDC.6    //KHOI TAO SIM900 
....................  
.................... #BIT BUZZER             = RBDC.8    //1=ON,0=OFF 
.................... #BIT TRIAC_1            = RBDC.9    //1=ON,0=OFF 
.................... #BIT TRIAC_2            = RBDC.10   //1=ON,0=OFF 
.................... #BIT RELAY_1            = RBDC.11   //0=ON,1=OFF 
.................... #BIT RELAY_2            = RBDC.12   //0=ON,1=OFF 
....................  
.................... //HAM 103 
.................... //XXXXXXXXXXXXXXXXXXXXXXXXXXXXXXXXXXXXXXXXXXXX 
.................... //CHUONG TRINH CON KHOI TAO IC CHOT 
.................... //XXXXXXXXXXXXXXXXXXXXXXXXXXXXXXXXXXXXXXXXXXXX          
.................... #DEFINE     CHO_IC_74573_A_GOI_DU_LIEU     OUTPUT_HIGH(ENABLE_573A) 
.................... #DEFINE     CHOT_IC_74573_A_GOI_DU_LIEU    OUTPUT_LOW(ENABLE_573A) 
....................  
.................... #DEFINE     CHO_IC_74573_B_GOI_DU_LIEU     OUTPUT_HIGH(ENABLE_573B) 
.................... #DEFINE     CHOT_IC_74573_B_GOI_DU_LIEU    OUTPUT_LOW(ENABLE_573B) 
.................... VOID MO_IC_74573_A_THONG_DL(); 
....................  
.................... //XXXXXXXXXXXXXXXXXXXXXXXXXXXXXXXXXXXXXXXXXXXX    
.................... CONST UNSIGNED CHAR MA7DOAN[16]= {0XC0,0XF9,0xA4,0XB0,0X99,0X92,0X82,0XF8, 
.................... 0X80,0X90,0x88, 0x83, 0xC6, 0xA1, 0x86, 0x8E}; 
.................... #DEFINE     MASO0    0XC0 
.................... #DEFINE     MASO1    0XF9 
.................... #DEFINE     MASO2    0XA4 
.................... #DEFINE     MASO3    0XB0 
.................... #DEFINE     MASO4    0X99 
.................... #DEFINE     MASO5    0X92 
.................... #DEFINE     MASO6    0X82 
.................... #DEFINE     MASO7    0XF8 
....................  
.................... //XXXXXXXXXXXXXXXXXXXXXXXXXXXXXXXXXXXXXXXXXXXX  
.................... //HAM 102 
.................... //XXXXXXXXXXXXXXXXXXXXXXXXXXXXXXXXXXXXXXXXXXXX     
.................... //XUAT 1 BYTE RA THANH GHI DICH 
.................... //XXXXXXXXXXXXXXXXXXXXXXXXXXXXXXXXXXXXXXXXXXXX     
.................... VOID XUAT_1BYTE(UNSIGNED INT8 BYTEXUAT) 
.................... { 
....................    UNSIGNED INT8   SB,X;    
....................    #BIT BSERI  = X.7 
....................    X = BYTEXUAT; 
*
01E6:  MOVFF  48C,48E
....................    FOR (SB=0;SB<8;SB++) 
01EA:  MOVLB  4
01EC:  CLRF   x8D
01EE:  MOVF   x8D,W
01F0:  SUBLW  07
01F2:  BNC   0210
....................       {                                                  
....................          OUTPUT_BIT(SSDO,BSERI);     
01F4:  BTFSC  x8E.7
01F6:  BRA    01FC
01F8:  BCF    F8D.2
01FA:  BRA    01FE
01FC:  BSF    F8D.2
01FE:  BCF    F96.2
....................          OUTPUT_LOW(SSCK); OUTPUT_HIGH(SSCK); 
0200:  BCF    F96.0
0202:  BCF    F8D.0
0204:  BCF    F96.0
0206:  BSF    F8D.0
....................          X= X<<1;          
0208:  BCF    FD8.0
020A:  RLCF   x8E,F
020C:  INCF   x8D,F
020E:  BRA    01EE
....................      } 
0210:  MOVLB  0
0212:  RETURN 0
.................... } 
.................... //XXXXXXXXXXXXXXXXXXXXXXXXXXXXXXXXXXXXXXXXXXXX  
.................... //HAM 301 
.................... //XXXXXXXXXXXXXXXXXXXXXXXXXXXXXXXXXXXXXXXXXXXX 
.................... //CHUONG TRINH CON XUAT 4 BYTE RA 32 LED DON 
.................... //XXXXXXXXXXXXXXXXXXXXXXXXXXXXXXXXXXXXXXXXXXXX 
.................... VOID XUAT_32LED_DON_4BYTE(UNSIGNED INT8 BLD3,BLD2,BLD1,BLD0) 
.................... {      
....................       XUAT_1BYTE(BLD3);           
....................       XUAT_1BYTE(BLD2); 
....................       XUAT_1BYTE(BLD1);           
....................       XUAT_1BYTE(BLD0);             
....................       MO_32_LED_DON;       
....................       MO_IC_74573_A_THONG_DL();             
....................       OUTPUT_HIGH(RCK_32LED);    OUTPUT_LOW(RCK_32LED); 
....................       CHOT_IC_74573_A_GOI_DU_LIEU;       
.................... } 
.................... //HAM 302 
.................... //XXXXXXXXXXXXXXXXXXXXXXXXXXXXXXXXXXXXXXXXXXXX 
.................... //CHUONG TRINH CON XUAT 2 WORD 16 BITRA 32 LED DON 
.................... //XXXXXXXXXXXXXXXXXXXXXXXXXXXXXXXXXXXXXXXXXXXX 
.................... VOID XUAT_32LED_DON_2WORD(UNSIGNED INT16 WLD1, UNSIGNED INT16 WLD0) 
.................... {      
....................      UNSIGNED INT8  B3,B2,B1,B0; 
....................      B3 = WLD1>>8;  B2 = WLD1;  
....................      B1 = WLD0>>8;  B0 = WLD0; 
....................      XUAT_32LED_DON_4BYTE(B3,B2,B1,B0); 
.................... } 
.................... //HAM 303 
.................... //XXXXXXXXXXXXXXXXXXXXXXXXXXXXXXXXXXXXXXXXXXXX 
.................... //CHUONG TRINH CON XUAT 1 DOUBLE WORD RA 32 LED DON 
.................... //XXXXXXXXXXXXXXXXXXXXXXXXXXXXXXXXXXXXXXXXXXXX 
.................... VOID XUAT_32LED_DON_1DW(UNSIGNED LONG LONG DWLD) 
.................... {      
....................      UNSIGNED INT16  WD1,WD0; 
....................      WD1 = DWLD>>16;  WD0 = DWLD; 
....................      XUAT_32LED_DON_2WORD(WD1,WD0); 
.................... } 
....................  
.................... //HAM 304 
.................... //XXXXXXXXXXXXXXXXXXXXXXXXXXXXXXXXXXXXXXXXXXXX 
.................... //CHUONG TRINH CON MO 32 LED DON SANG 
.................... //XXXXXXXXXXXXXXXXXXXXXXXXXXXXXXXXXXXXXXXXXXXX 
.................... VOID MO_32LED_DON() 
.................... {         
....................      XUAT_32LED_DON_1DW(0XFFFFFFFF); 
.................... } 
.................... //HAM 305 
.................... //XXXXXXXXXXXXXXXXXXXXXXXXXXXXXXXXXXXXXXXXXXXX 
.................... //CHUONG TRINH CON TAT 32 LED DON  
.................... //XXXXXXXXXXXXXXXXXXXXXXXXXXXXXXXXXXXXXXXXXXXX 
.................... VOID TAT_32LED_DON() 
.................... {         
....................      XUAT_32LED_DON_1DW(0); 
.................... } 
.................... //XXXXXXXXXXXXXXXXXXXXXXXXXXXXXXXXXXXXXXXXXXXX     
.................... //XUAT 1 BIT ROI TRA LAI KET QUA SAU KHI DICH DI 1 BIT 
.................... //XXXXXXXXXXXXXXXXXXXXXXXXXXXXXXXXXXXXXXXXXXXX     
.................... UNSIGNED  INT8 XUAT_1BIT(UNSIGNED INT8 BYTEXUAT) 
.................... { 
....................       UNSIGNED INT8   XBITX;    
....................       #BIT BSERIX  = XBITX.0 
....................       XBITX = BYTEXUAT; 
....................                                              
....................       OUTPUT_BIT(SSDO,BSERIX);     
....................       OUTPUT_LOW(SSCK); OUTPUT_HIGH(SSCK); 
....................       XBITX= XBITX>>1;    
....................       RETURN(XBITX);   
.................... } 
.................... //XXXXXXXXXXXXXXXXXXXXXXXXXXXXXXXXXXXXXXXXXXXX  
.................... //HAM 101 
.................... //XXXXXXXXXXXXXXXXXXXXXXXXXXXXXXXXXXXXXXXXXXXX     
.................... //HAM KHOI TAO CAC PORT VA IC CHOT 
.................... //XXXXXXXXXXXXXXXXXXXXXXXXXXXXXXXXXXXXXXXXXXXX     
.................... VOID SET_UP_PORT_IC_CHOT() 
.................... {      
....................       SET_TRIS_D(0x00);     
*
01C8:  MOVLW  00
01CA:  MOVWF  F95
....................       SET_TRIS_E(0X00); 
01CC:  MOVWF  F96
....................       OUTPUT_D(0XFF); 
01CE:  CLRF   F95
01D0:  SETF   F8C
....................       TIN_HIEU_DK_74573_A=0XFF;   
01D2:  SETF   16
....................       TIN_HIEU_DK_74573_B=0XFF;       
01D4:  SETF   17
....................       CHOT_IC_74573_A_GOI_DU_LIEU; 
01D6:  BCF    F95.1
01D8:  BCF    F8C.1
....................       CHOT_IC_74573_B_GOI_DU_LIEU;   
01DA:  BCF    F95.0
01DC:  BCF    F8C.0
....................       RBDC=0; 
01DE:  CLRF   1A
01E0:  CLRF   19
01E2:  GOTO   0F2E (RETURN)
.................... } 
.................... //HAM 104 
.................... //XXXXXXXXXXXXXXXXXXXXXXXXXXXXXXXXXXXXXXXXXXXX     
.................... //XUAT CÁC THIEU DIEU KHIEN  
.................... //GIU NGUYEN CAC TRANG THAI CUA 2 MODULE KHAC 
.................... //XXXXXXXXXXXXXXXXXXXXXXXXXXXXXXXXXXXXXXXXXXXX     
.................... VOID MO_IC_74573_A_THONG_DL() 
.................... {      
....................       OUTPUT_D(0X00); 
*
0214:  CLRF   F95
0216:  CLRF   F8C
....................       OUTPUT_BIT(G_32LED,G_32A); 
0218:  BTFSC  16.4
021A:  BRA    0220
021C:  BCF    F8C.4
021E:  BRA    0222
0220:  BSF    F8C.4
0222:  BCF    F95.4
....................       OUTPUT_BIT(G_4LED7DOAN,G_4A); 
0224:  BTFSC  16.6
0226:  BRA    022C
0228:  BCF    F8C.6
022A:  BRA    022E
022C:  BSF    F8C.6
022E:  BCF    F95.6
....................       OUTPUT_BIT(G_LCD20X4,G_LCDA);   
0230:  BTFSC  16.2
0232:  BRA    0238
0234:  BCF    F8C.2
0236:  BRA    023A
0238:  BSF    F8C.2
023A:  BCF    F95.2
....................       CHO_IC_74573_A_GOI_DU_LIEU; 
023C:  BCF    F95.1
023E:  BSF    F8C.1
0240:  GOTO   0260 (RETURN)
.................... } 
.................... VOID MO_IC_74573_B_THONG_DL() 
.................... {      
....................       OUTPUT_D(0X00); 
....................       OUTPUT_BIT(G_MATRANLED,G_MTB); 
....................       OUTPUT_BIT(G_8LEDQUET,G_8B); 
....................       OUTPUT_BIT(G_BUZERELAY,G_RBDCB);  
....................       CHO_IC_74573_B_GOI_DU_LIEU; 
.................... } 
.................... //ham 401 
.................... //XXXXXXXXXXXXXXXXXXXXXXXXXXXXXXXXXXXXXXXXXXXX 
.................... //CHUONG TRINH CON XUAT 4 BYTE RA 4 LED 7 DOAN 
.................... //XXXXXXXXXXXXXXXXXXXXXXXXXXXXXXXXXXXXXXXXXXXX 
.................... VOID XUAT_4LED_7DOAN_4SO(UNSIGNED INT BL743,BL742,BL741,BL740) 
.................... {      
....................       XUAT_1BYTE(BL740);   XUAT_1BYTE(BL741); 
....................       XUAT_1BYTE(BL742);   XUAT_1BYTE(BL743); 
....................        
....................       MO_4_LED_7DOAN; 
....................       MO_IC_74573_A_THONG_DL(); 
....................         
....................       OUTPUT_LOW(RCK_4LED7DOAN);   OUTPUT_HIGH(RCK_4LED7DOAN);  
....................       CHOT_IC_74573_A_GOI_DU_LIEU; 
.................... } 
.................... //ham 404 
.................... VOID XUAT_4LED_7DOAN_3SO(UNSIGNED INT BL742,BL741,BL740) 
.................... {      
....................      XUAT_4LED_7DOAN_4SO(0XFF,BL742,BL741,BL740); 
.................... } 
.................... //ham 403 
.................... VOID XUAT_4LED_7DOAN_2SO(UNSIGNED INT BL741,BL740) 
.................... {      
....................      XUAT_4LED_7DOAN_4SO(0XFF,0XFF,BL741,BL740); 
.................... } 
.................... //ham 402 
.................... VOID XUAT_4LED_7DOAN_1SO(UNSIGNED INT BL740) 
.................... {      
....................      XUAT_4LED_7DOAN_4SO(0XFF,0XFF,0XFF,BL740); 
.................... } 
....................  
.................... //ham 405 
.................... //XXXXXXXXXXXXXXXXXXXXXXXXXXXXXXXXXXXXXXXXXXXXXXXXXXXXXXXXXXXXX 
.................... //CHUONG TRINH CON HIEN THI DU LIEU 16 BIT TREN 4 LED 7 DOAN 
.................... //XXXXXXXXXXXXXXXXXXXXXXXXXXXXXXXXXXXXXXXXXXXXXXXXXXXXXXXXXXXXX 
.................... UNSIGNED CHAR DONVI4,CHUC4,TRAM4,NGAN4; 
.................... VOID  XUAT_4LED_7DOAN_GIAIMA_XOA_SO0 (UNSIGNED INT16 TAM) 
.................... {          
....................       DONVI4 = MA7DOAN[TAM %10];          
....................       CHUC4  = MA7DOAN[TAM/10%10]; 
....................       TRAM4  = MA7DOAN[TAM/100%10];  
....................       NGAN4  = MA7DOAN[TAM/1000%10];        
....................       IF (NGAN4==0XC0) 
....................       { 
....................          NGAN4=0XFF; 
....................          IF (TRAM4==0XC0) 
....................          { 
....................             TRAM4=0XFF; 
....................             IF (CHUC4==0XC0)   CHUC4=0XFF; 
....................          } 
....................       } 
....................       XUAT_4LED_7DOAN_4SO(NGAN4,TRAM4,CHUC4,DONVI4);    
.................... } 
.................... UNSIGNED INT8 LCDDATA=0;  
.................... UNSIGNED INT8 LCDCONTROL=0; 
.................... UNSIGNED INT8 GLCDDATA=0; 
.................... UNSIGNED INT8 GLCDCONTROL=0;  
.................... //HAM 701 
.................... //XXXXXXXXXXXXXXXXXXXXXXXXXXXXXXXXXXXXXXXXXXXXXXXXXXXXXXXXXXXXX 
.................... //CHUONG TRINH CON XUAT DU LIEU 4 BYTE RA GLCD VA LCD 
.................... //XXXXXXXXXXXXXXXXXXXXXXXXXXXXXXXXXXXXXXXXXXXXXXXXXXXXXXXXXXXXX 
.................... VOID XUAT_GLCD_LCD() 
.................... {       
....................     XUAT_1BYTE(GLCDCONTROL);              
0244:  MOVFF  22,48C
0248:  RCALL  01E6
....................     XUAT_1BYTE(GLCDDATA); 
024A:  MOVFF  21,48C
024E:  RCALL  01E6
....................     XUAT_1BYTE(LCDCONTROL);        
0250:  MOVFF  20,48C
0254:  RCALL  01E6
....................     XUAT_1BYTE(LCDDATA);       
0256:  MOVFF  1F,48C
025A:  RCALL  01E6
....................        
....................     MO_GLCD_LCD; 
025C:  BCF    16.2
....................     MO_IC_74573_A_THONG_DL();             
025E:  BRA    0214
....................     OUTPUT_HIGH(RCK_LCD20X4);      
0260:  BCF    F95.3
0262:  BSF    F8C.3
....................     OUTPUT_LOW(RCK_LCD20X4); 
0264:  BCF    F95.3
0266:  BCF    F8C.3
....................     CHOT_IC_74573_A_GOI_DU_LIEU; 
0268:  BCF    F95.1
026A:  BCF    F8C.1
026C:  RETURN 0
.................... } 
.................... //HAM 702 
.................... VOID XUAT_LCD20X4(UNSIGNED INT8 LCD_SIGNAL,LCD_INS_HTHI) 
.................... {      
....................     LCDCONTROL = ~LCD_SIGNAL; 
026E:  MOVLB  4
0270:  MOVFF  48A,20
0274:  COMF   20,F
....................     LCDDATA    = ~LCD_INS_HTHI;       
0276:  MOVFF  48B,1F
027A:  COMF   1F,F
....................     XUAT_GLCD_LCD(); 
027C:  MOVLB  0
027E:  RCALL  0244
0280:  RETURN 0
.................... } 
.................... //HAM 703 
.................... VOID XUAT_GLCD128X64(UNSIGNED INT8 GLCD_SIGNAL,GLCD_INS_HTHI) 
.................... {      
....................     GLCDCONTROL = ~GLCD_SIGNAL; 
*
034C:  MOVLB  4
034E:  MOVFF  485,22
0352:  COMF   22,F
....................     GLCDDATA    = ~GLCD_INS_HTHI;      
0354:  MOVFF  486,21
0358:  COMF   21,F
....................     XUAT_GLCD_LCD(); 
035A:  MOVLB  0
035C:  RCALL  0244
035E:  RETURN 0
.................... } 
.................... //HAM 501 
.................... //XXXXXXXXXXXXXXXXXXXXXXXXXXXXXXXXXXXXXXXXXXXX 
.................... //CHUONG TRINH CON XUAT 2 BYTE RA DK 1 LED QUET SANG 
.................... //XXXXXXXXXXXXXXXXXXXXXXXXXXXXXXXXXXXXXXXXXXXX 
.................... VOID XUAT_8LED_7DOAN_QUET_1(UNSIGNED INT MA,SO_HTHI) 
.................... {      
....................       XUAT_1BYTE(~MA);   XUAT_1BYTE(~SO_HTHI); 
....................        
....................       MO_8_LED_QUET; 
....................       MO_IC_74573_B_THONG_DL(); 
....................        
....................       OUTPUT_HIGH(RCK_8LEDQUET); OUTPUT_LOW(RCK_8LEDQUET); 
....................       CHOT_IC_74573_B_GOI_DU_LIEU; 
.................... } 
.................... //HAM 502 
.................... //XXXXXXXXXXXXXXXXXXXXXXXXXXXXXXXXXXXXXXXXXXXX 
.................... //CHUONG TRINH CON XUAT 2 BYTE RA TAT 8 LED QUET 
.................... //XXXXXXXXXXXXXXXXXXXXXXXXXXXXXXXXXXXXXXXXXXXX 
.................... VOID XUAT_8LED_7DOAN_QUET_TAT_LED() 
.................... { 
....................    XUAT_8LED_7DOAN_QUET_1(0XFF,0XFF); 
.................... } 
.................... //HAM 503 
.................... //XXXXXXXXXXXXXXXXXXXXXXXXXXXXXXXXXXXXXXXXXXXX 
.................... //CHUONG TRINH CON HIEN THI LED THEO THU TU 
.................... //XXXXXXXXXXXXXXXXXXXXXXXXXXXXXXXXXXXXXXXXXXXX 
.................... CONST UNSIGNED CHAR TTLEDQUET[8]= {0x7F,0xBF,0xDF,0xEF,0xF7,0xFB,0xFD,0xFE}; 
.................... VOID XUAT_8LED_7DOAN_QUET_2(UNSIGNED INT THUTULED,SO_HTHI) 
.................... {          
....................       XUAT_1BYTE(~ (TTLEDQUET[THUTULED]));   XUAT_1BYTE(~SO_HTHI);      
....................       MO_8_LED_QUET; 
....................       MO_IC_74573_B_THONG_DL(); 
....................       OUTPUT_HIGH(RCK_8LEDQUET); OUTPUT_LOW(RCK_8LEDQUET); 
....................       CHOT_IC_74573_B_GOI_DU_LIEU; 
.................... } 
.................... //HAM 504 
.................... //XXXXXXXXXXXXXXXXXXXXXXXXXXXXXXXXXXXXXXXXXXXX 
.................... //CHUONG TRINH CON HIEN THI 8 SO TREN 8 LED QUET - CO KIEM TRA 
.................... //XXXXXXXXXXXXXXXXXXXXXXXXXXXXXXXXXXXXXXXXXXXX 
.................... UNSIGNED INT8 LED_7DQ[8]={0XFF,0XFF,0XFF,0XFF,0XFF,0XFF,0XFF,0XFF}; 
.................... UNSIGNED INT8 TT8LED=0; 
.................... VOID HIEN_THI_8LED_7DOAN_QUET() 
.................... {      
....................       FOR(TT8LED=0;TT8LED<8;TT8LED++) 
....................          IF (LED_7DQ[TT8LED]!=0XFF) 
....................          {            
....................             XUAT_8LED_7DOAN_QUET_2(TT8LED, LED_7DQ[TT8LED]); 
....................             DELAY_US(100); 
....................             XUAT_8LED_7DOAN_QUET_TAT_LED();            
....................             } 
.................... } 
.................... //HAM 505 
.................... //XXXXXXXXXXXXXXXXXXXXXXXXXXXXXXXXXXXXXXXXXXXX 
.................... //CHUONG TRINH CON HIEN THI 8 SO TREN 8 LED QUET - KHONG KIEM TRA 
.................... //XXXXXXXXXXXXXXXXXXXXXXXXXXXXXXXXXXXXXXXXXXXX 
.................... VOID HIEN_THI_8LED_7DOAN_QUET_ALL() 
.................... {      
....................       FOR(TT8LED=0;TT8LED<8;TT8LED++)          
....................          {            
....................             XUAT_8LED_7DOAN_QUET_2(TT8LED, LED_7DQ[TT8LED]); 
....................             DELAY_US(100); 
....................             XUAT_8LED_7DOAN_QUET_TAT_LED();            
....................             } 
.................... } 
....................  
.................... VOID DELAY_QUET_8LED(UNSIGNED INT16 DL) 
.................... {  
....................       UNSIGNED INT8 I; 
....................       FOR (I=0; I<DL;I++) 
....................       HIEN_THI_8LED_7DOAN_QUET_ALL(); 
.................... }  
....................  
.................... VOID GIAI_MA_GAN_CHO_8LED_QUET_16_XOA(UNSIGNED INT16 X) 
.................... {      
....................       LED_7DQ[0]= MA7DOAN [X %10];     
....................       LED_7DQ[1]= MA7DOAN [X/10%10]; 
....................       LED_7DQ[2]= MA7DOAN [X/100%10];     
....................       LED_7DQ[3]= MA7DOAN [X/1000%10]; 
....................       LED_7DQ[4]= MA7DOAN [X/10000%10]; 
....................       IF (LED_7DQ[4]==MASO0)  
....................       { 
....................             LED_7DQ[4]=0XFF; 
....................             IF (LED_7DQ[3]==MASO0)  
....................             { 
....................                LED_7DQ[3]=0XFF; 
....................                IF (LED_7DQ[2]==MASO0)  
....................                { 
....................                   LED_7DQ[2]=0XFF; 
....................                   IF (LED_7DQ[1]==MASO0)  
....................                   { 
....................                      LED_7DQ[1]=0XFF; 
....................                   } 
....................                } 
....................             } 
....................       } 
....................              
.................... } 
.................... //XXXXXXXXXXXXXXXXXXXXXXXXXXXXXXXXXXXXXXXXXXXX          
.................... VOID XUAT_2BYTE(UNSIGNED INT16 BYTE2XUAT) 
.................... { 
....................    INT8 SBB; 
....................    UNSIGNED INT16   XX;   //SHORT  BSERI; 
....................    #BIT BSERIX  = XX.15 
....................    XX = BYTE2XUAT; 
....................    FOR (SBB=0;SBB<16;SBB++) 
....................       {                                                  
....................          OUTPUT_BIT(SSDO,BSERIX);     
....................          OUTPUT_LOW(SSCK);          
....................          OUTPUT_HIGH(SSCK); 
....................          XX= XX<<1;          
....................      } 
.................... } 
.................... //XXXXXXXXXXXXXXXXXXXXXXXXXXXXXXXXXXXXXXXXXXXX 
.................... //CHUONG TRINH CON XUAT RA LED MA TRAN 
.................... //XXXXXXXXXXXXXXXXXXXXXXXXXXXXXXXXXXXXXXXXXXXX 
.................... VOID XUAT_MATRANLED(UNSIGNED INT16 MAHANG,UNSIGNED INT16 MACOT1, 
.................... UNSIGNED INT16 MACOT2,UNSIGNED INT16 MACOT3) 
.................... {       
....................       XUAT_2BYTE(MACOT3); 
....................       XUAT_2BYTE(MACOT2); 
....................       XUAT_2BYTE(MACOT1); 
....................       XUAT_2BYTE(MAHANG); 
....................        
....................       MO_LED_MATRAN; 
....................       MO_IC_74573_B_THONG_DL(); 
....................        
....................       OUTPUT_HIGH(RCK_MATRANLED); OUTPUT_LOW(RCK_MATRANLED);  
....................       CHOT_IC_74573_B_GOI_DU_LIEU; 
.................... } 
.................... //XXXXXXXXXXXXXXXXXXXXXXXXXXXXXXXXXXXXXXXXXXXX 
.................... //CHUONG TRINH CON XUAT RA LED MA TRAN 
.................... //XXXXXXXXXXXXXXXXXXXXXXXXXXXXXXXXXXXXXXXXXXXX 
.................... VOID TAT_MATRANLED() 
.................... {       
....................       XUAT_2BYTE(0); 
....................       XUAT_2BYTE(0); 
....................       XUAT_2BYTE(0); 
....................       XUAT_2BYTE(0);            
....................       OUTPUT_HIGH(RCK_MATRANLED);  
....................       OUTPUT_LOW(RCK_MATRANLED); 
.................... } 
.................... UNSIGNED  INT8 HIEU_CHINH_4BIT_CAO(UNSIGNED INT8 XZY) 
.................... { 
....................       INT1  BTG; 
....................       UNSIGNED INT8   BX;    
....................       #BIT BIT4  = BX.4 
....................       #BIT BIT5  = BX.5 
....................       #BIT BIT6  = BX.6 
....................       #BIT BIT7  = BX.7 
....................       BX=XZY; 
....................       BTG=BIT4;   BIT4=BIT7;  BIT7=BTG; 
....................       BTG=BIT5;   BIT5=BIT6;  BIT6=BTG;       
....................       RETURN(BX);   
.................... } 
.................... //HAM 601 
.................... //XXXXXXXXXXXXXXXXXXXXXXXXXXXXXXXXXXXXXXXXXXXXXXXXXXXX 
.................... //MODULE DIEU KHIEN RELAY,TRIAC, BUZZER, DONG CO, SIM 
.................... //XXXXXXXXXXXXXXXXXXXXXXXXXXXXXXXXXXXXXXXXXXXXXXXXXXXX 
.................... VOID XUAT_BUZZER_RELAY() 
.................... {      
....................    UNSIGNED INT8 RBDC1,RBDC2; 
....................       RBDC1=RBDC; RBDC2=RBDC>>8;       
....................       XUAT_1BYTE(RBDC2);       
....................       XUAT_1BYTE(RBDC1); 
....................       MO_RELAY_BUZZER_DC; 
....................       MO_IC_74573_B_THONG_DL(); 
....................        
....................       OUTPUT_HIGH(RCK_BUZERELAY);   OUTPUT_LOW(RCK_BUZERELAY); 
....................       CHOT_IC_74573_B_GOI_DU_LIEU; 
.................... } 
.................... //HAM 602 
.................... //XXXXXXXXXXXXXXXXXXXXXXXXXXXXXXXXXXXXXXXXXXXXXXXXXXXX 
.................... VOID BUZZER_ON() 
.................... {     
....................       BUZZER=1; 
....................       XUAT_BUZZER_RELAY();          
.................... } 
.................... //HAM 603 
.................... //XXXXXXXXXXXXXXXXXXXXXXXXXXXXXXXXXXXXXXXXXXXXXXXXXXXX 
.................... VOID BUZZER_OFF() 
.................... {      
....................       BUZZER=0; 
....................       XUAT_BUZZER_RELAY(); 
.................... } 
.................... //HAM 604 
.................... //XXXXXXXXXXXXXXXXXXXXXXXXXXXXXXXXXXXXXXXXXXXXXXXXXXXX 
.................... VOID RELAY_1_ON() 
.................... {     
....................       RELAY_1=1; 
....................       XUAT_BUZZER_RELAY();          
.................... } 
.................... //HAM 603 
.................... //XXXXXXXXXXXXXXXXXXXXXXXXXXXXXXXXXXXXXXXXXXXXXXXXXXXX 
.................... VOID RELAY_1_OFF() 
.................... {     
....................       RELAY_1=0; 
....................       XUAT_BUZZER_RELAY();          
.................... } 
.................... //HAM 604 
.................... //XXXXXXXXXXXXXXXXXXXXXXXXXXXXXXXXXXXXXXXXXXXXXXXXXXXX 
.................... VOID RELAY_2_ON() 
.................... {     
....................       RELAY_2=1; 
....................       XUAT_BUZZER_RELAY();          
.................... } 
.................... //HAM 607 
.................... //XXXXXXXXXXXXXXXXXXXXXXXXXXXXXXXXXXXXXXXXXXXXXXXXXXXX 
.................... VOID RELAY_2_OFF() 
.................... {     
....................       RELAY_2=0; 
....................       XUAT_BUZZER_RELAY();          
.................... } 
.................... //HAM 608 
.................... //XXXXXXXXXXXXXXXXXXXXXXXXXXXXXXXXXXXXXXXXXXXXXXXXXXXX 
.................... VOID RELAY_1_RELAY_2_ON() 
.................... {     
....................       RELAY_1=1;  RELAY_2=1; 
....................       XUAT_BUZZER_RELAY();          
.................... } 
.................... //HAM 609 
.................... //XXXXXXXXXXXXXXXXXXXXXXXXXXXXXXXXXXXXXXXXXXXXXXXXXXXX 
.................... VOID RELAY_1_RELAY_2_OFF() 
.................... {     
....................       RELAY_1=0;  RELAY_2=0; 
....................       XUAT_BUZZER_RELAY();          
.................... } 
.................... //HAM 610 
.................... //XXXXXXXXXXXXXXXXXXXXXXXXXXXXXXXXXXXXXXXXXXXXXXXXXXXX 
.................... VOID TRIAC_1_ON() 
.................... {     
....................       TRIAC_1=1; 
....................       XUAT_BUZZER_RELAY();          
.................... } 
.................... //HAM 611 
.................... //XXXXXXXXXXXXXXXXXXXXXXXXXXXXXXXXXXXXXXXXXXXXXXXXXXXX 
.................... VOID TRIAC_1_OFF() 
.................... {     
....................       TRIAC_1=0; 
....................       XUAT_BUZZER_RELAY();          
.................... } 
.................... //HAM 612 
.................... //XXXXXXXXXXXXXXXXXXXXXXXXXXXXXXXXXXXXXXXXXXXXXXXXXXXX 
.................... VOID TRIAC_2_ON() 
.................... {     
....................       TRIAC_2=1; 
....................       XUAT_BUZZER_RELAY();          
.................... } 
.................... //HAM 613 
.................... //XXXXXXXXXXXXXXXXXXXXXXXXXXXXXXXXXXXXXXXXXXXXXXXXXXXX 
.................... VOID TRIAC_2_OFF() 
.................... {     
....................       TRIAC_2=0; 
....................       XUAT_BUZZER_RELAY();          
.................... } 
.................... //XXXXXXXXXXXXXXXXXXXXXXXXXXXXXXXXXXXXXXXXXXXX 
....................  
....................  
....................  
.................... #INCLUDE <TV_PICKIT2_SHIFT_32LED_DON.C> 
.................... UNSIGNED INT32    Y=0,YP_CHAY=1,YT_CHAY=0X80000000,Y_CODINH=0; 
.................... UNSIGNED INT16 ZT,ZT_CHAY_T=0x8000,ZT_CHAY_P=1,ZT_CODINH=0; 
.................... UNSIGNED INT16 ZP,ZP_CHAY_T=0X8000,ZP_CHAY_P=1,ZP_CODINH=0; 
....................  
.................... UNSIGNED INT16 TGDLAY=0; 
.................... UNSIGNED INT8 DEM_LED=0;  
.................... SIGNED I32=32,J32=0,TTCT_TD=1,I16=16,J16=0; 
....................  
.................... UNSIGNED INT32    ZA=1,YA=1,XA=0XFFFFFFFE,ZB=0X80000000,YB=0X80000000,XB=0X7FFFFFFF;    
.................... SIGNED IA=1,JA=1;   
.................... VOID RESET_TOAN_BO_BIEN() 
.................... {  
....................       TTCT_TD++;     //CHUYEN CHUONG TRINH CHO TU DONG 
....................       Y=0;      YP_CHAY=1;      YT_CHAY=0X80000000;      Y_CODINH=0; 
....................       ZT_CHAY_T=0x8000;    ZT_CHAY_P=1;   ZT_CODINH=0; 
....................       ZP_CHAY_T=0X8000;    ZP_CHAY_P=1;   ZP_CODINH=0; 
....................       ZT=ZP=0; 
....................       I32=32;J32=0;I16=16,J16=0; 
....................       DEM_LED=0; 
....................        
....................       ZA=1;    YA=1;    XA=0XFFFFFFFE;     IA=1;    JA=1; 
....................      ZB=0X80000000;    YB=0X80000000;    XB=0X7FFFFFFF; 
.................... }  
....................  
.................... VOID TANG_DEM_LED_DELAY_1(UNSIGNED INT8 DL) 
.................... {  
....................       UNSIGNED INT8 I; 
....................       FOR (I=0; I<DL;I++) 
....................       HIEN_THI_8LED_7DOAN_QUET_ALL(); 
....................       DEM_LED++; 
.................... }  
....................  
.................... VOID TANG_DEM_LED_DELAY_0(UNSIGNED INT8 DL) 
.................... {  
....................       IF (DL>0)      DELAY_MS(DL);  
....................       DEM_LED++; 
.................... }  
....................  
.................... VOID DELAY_CHON(UNSIGNED INT8 DL,CHONDELAY) 
.................... {     
....................    IF (!CHONDELAY)   TANG_DEM_LED_DELAY_0(DL); 
....................    ELSE              TANG_DEM_LED_DELAY_1(DL); 
.................... } 
.................... //XXXXXXXXXXXXXXXXXXXXXXXXXXXXXXXXXXXXXXXXXXXX 
.................... //32 LED: SANG DON  PHAI SANG TRAI 
.................... //XXXXXXXXXXXXXXXXXXXXXXXXXXXXXXXXXXXXXXXXXXXX 
.................... VOID DIEM_SANG_DICH_TRAI_MAT_DAN_32LED(UNSIGNED INT8 DL,CHONDELAY) 
.................... {        
....................    IF(IA<33) 
....................    { 
....................       IF(JA>0) 
....................       { 
....................          ZB = (ZB << 1); 
....................          Y = XB|ZB;         
....................          XUAT_32LED_DON_1DW(Y); 
....................          DELAY_CHON(DL,CHONDELAY); 
....................          JA--; 
....................       } 
....................       ELSE  
....................       { 
....................          IA++; 
....................          JA=IA;       
....................          YB = YB>>1; 
....................          XB = XB>>1; 
....................          ZB = YB; 
....................       } 
....................    } 
....................    ELSE RESET_TOAN_BO_BIEN(); 
.................... }   
.................... //XXXXXXXXXXXXXXXXXXXXXXXXXXXXXXXXXXXXXXXXXXXX 
.................... //32 LED: SANG DON  TRAI SANG PHAI 
.................... //XXXXXXXXXXXXXXXXXXXXXXXXXXXXXXXXXXXXXXXXXXXX 
.................... VOID DIEM_SANG_DICH_PHAI_MAT_DAN_32LED(UNSIGNED INT8 DL,CHONDELAY) 
.................... {        
....................    IF(IA<33) 
....................    { 
....................       IF(JA>0) 
....................       { 
....................          ZA = (ZA >> 1); 
....................          Y = XA|ZA;         
....................          XUAT_32LED_DON_1DW(Y); 
....................          DELAY_CHON(DL,CHONDELAY); 
....................          JA--; 
....................       } 
....................       ELSE  
....................       { 
....................          IA++; 
....................          JA=IA;       
....................          YA = YA<<1; 
....................          XA = XA <<1; 
....................          ZA = YA; 
....................       } 
....................    } 
....................    ELSE RESET_TOAN_BO_BIEN(); 
.................... }   
.................... //XXXXXXXXXXXXXXXXXXXXXXXXXXXXXXXXXXXXXXXXXXXX 
.................... //32 LED: CHOP TAT  
.................... //XXXXXXXXXXXXXXXXXXXXXXXXXXXXXXXXXXXXXXXXXXXX 
.................... VOID DAO_DL_32BIT_VA_XUAT() 
.................... { 
....................    Y=~Y; 
....................    XUAT_32LED_DON_1DW(Y);  
.................... } 
.................... VOID SANG_TAT_32LED(UNSIGNED INT8 DL,CHONDELAY) 
.................... {         
....................       IF (TGDLAY==1)          XUAT_32LED_DON_1DW(Y);  
....................       ELSE IF (TGDLAY==50)    DAO_DL_32BIT_VA_XUAT(); 
....................       ELSE IF (TGDLAY==100)   DAO_DL_32BIT_VA_XUAT();           
....................       ELSE IF (TGDLAY==150)   DAO_DL_32BIT_VA_XUAT();                  
....................       ELSE IF (TGDLAY==200)   
....................       { 
....................          TTCT_TD++;   Y=0;        TGDLAY=0; 
....................       } 
....................       TGDLAY++; 
....................       DELAY_CHON(DL,CHONDELAY); 
.................... } 
.................... //XXXXXXXXXXXXXXXXXXXXXXXXXXXXXXXXXXXXXXXXXXXX 
.................... //32 LED: SANG DAN ROI TAT DAN TU NGOAI VAO 
.................... //XXXXXXXXXXXXXXXXXXXXXXXXXXXXXXXXXXXXXXXXXXXX 
.................... VOID SANG_TAT_DAN_NGOAI_VAO_32LED(UNSIGNED INT8 DL,CHONDELAY) 
.................... {   
....................    IF (DEM_LED<16) 
....................    {   
....................       XUAT_32LED_DON_2WORD(ZP,ZT);         
....................       ZP= (ZP<<1)+1;  
....................       ZT= (ZT>>1)+0X8000; 
....................       DELAY_CHON(DL,CHONDELAY); 
....................    } 
....................    ELSE  IF (DEM_LED<32) 
....................    {   
....................       XUAT_32LED_DON_2WORD(ZP,ZT); 
....................       ZP= (ZP<<1);  
....................       ZT= (ZT>>1); 
....................       DELAY_CHON(DL,CHONDELAY); 
....................    } 
....................    ELSE RESET_TOAN_BO_BIEN(); 
....................  
.................... }    
.................... //XXXXXXXXXXXXXXXXXXXXXXXXXXXXXXXXXXXXXXXXXXXX 
.................... //32 LED: SANG DAN ROI TAT DAN TU TRONG RA 
.................... //XXXXXXXXXXXXXXXXXXXXXXXXXXXXXXXXXXXXXXXXXXXX 
.................... VOID SANG_TAT_DAN_TRONG_RA_32LED(UNSIGNED INT8 DL,CHONDELAY) 
.................... {   
....................    IF (DEM_LED<16) 
....................    {    
....................       XUAT_32LED_DON_2WORD(ZP,ZT);  
....................       ZP= (ZP>>1)+0X8000;  
....................       ZT= (ZT<<1)+1; 
....................       DELAY_CHON(DL,CHONDELAY); 
....................    } 
....................    ELSE  IF (DEM_LED<32) 
....................    {   
....................       XUAT_32LED_DON_2WORD(ZP,ZT); 
....................       ZP= (ZP>>1);  
....................       ZT= (ZT<<1); 
....................       DELAY_CHON(DL,CHONDELAY); 
....................     } 
....................    ELSE RESET_TOAN_BO_BIEN(); 
....................          
.................... }    
.................... //XXXXXXXXXXXXXXXXXXXXXXXXXXXXXXXXXXXXXXXXXXXX 
.................... //32 LED: 2NHOM 16 LED SANG DAN ROI TAT DAN TU PHAI SANG TRAI 
.................... //XXXXXXXXXXXXXXXXXXXXXXXXXXXXXXXXXXXXXXXXXXXX 
.................... VOID SANG_TAT_DAN_PHAI_SANG_TRAI_2X16LED(UNSIGNED INT8 DL,CHONDELAY) 
.................... {   
....................    IF (DEM_LED<16) 
....................    {    
....................       XUAT_32LED_DON_2WORD(ZP,ZP); 
....................       ZP= (ZP>>1)+0X8000; 
....................       DELAY_CHON(DL,CHONDELAY); 
....................    } 
....................    ELSE  IF (DEM_LED<32) 
....................    {   
....................       XUAT_32LED_DON_2WORD(ZP,ZP); 
....................       ZP= (ZP>>1); 
....................       DELAY_CHON(DL,CHONDELAY); 
....................     } 
....................    ELSE RESET_TOAN_BO_BIEN(); 
....................        
.................... }    
.................... //XXXXXXXXXXXXXXXXXXXXXXXXXXXXXXXXXXXXXXXXXXXX 
.................... //32 LED: 2NHOM 16 LED SANG DAN ROI TAT DAN TU TRAI SANG PHAI 
.................... //XXXXXXXXXXXXXXXXXXXXXXXXXXXXXXXXXXXXXXXXXXXX 
.................... VOID SANG_TAT_DAN_TRAI_SANG_PHAI_2X16LED(UNSIGNED INT8 DL,CHONDELAY) 
.................... {   
....................    IF (DEM_LED<16) 
....................    {    
....................       XUAT_32LED_DON_2WORD(ZT,ZT);   
....................       ZT= (ZT<<1)+1; 
....................       DELAY_CHON(DL,CHONDELAY); 
....................    } 
....................    ELSE  IF (DEM_LED<32) 
....................    {   
....................       XUAT_32LED_DON_2WORD(ZT,ZT); 
....................       ZT= (ZT<<1); 
....................       DELAY_CHON(DL,CHONDELAY); 
....................     } 
....................    ELSE RESET_TOAN_BO_BIEN(); 
....................          
.................... }    
.................... //XXXXXXXXXXXXXXXXXXXXXXXXXXXXXXXXXXXXXXXXXXXX 
.................... //32 LED: SANG DAN ROI TAT DAN TU PHAI SANG TRAI 
.................... //XXXXXXXXXXXXXXXXXXXXXXXXXXXXXXXXXXXXXXXXXXXX 
.................... VOID SANG_TAT_DAN_PST_32LED(UNSIGNED INT8 DL,CHONDELAY) 
.................... {         
....................    IF (DEM_LED<32) 
....................    {   
....................       XUAT_32LED_DON_1DW(Y); 
....................       Y= (Y<<1)+1; 
....................       DELAY_CHON(DL,CHONDELAY); 
....................    } 
....................    ELSE  IF (DEM_LED<64) 
....................    {   
....................       XUAT_32LED_DON_1DW(Y);    
....................       Y= (Y<<1);  
....................       DELAY_CHON(DL,CHONDELAY); 
....................    }  
....................    ELSE RESET_TOAN_BO_BIEN(); 
....................  
.................... }     
.................... //XXXXXXXXXXXXXXXXXXXXXXXXXXXXXXXXXXXXXXXXXXXX 
.................... //32 LED: SANG DAN ROI TAT DAN TU TRAI SANG PHAI 
.................... //XXXXXXXXXXXXXXXXXXXXXXXXXXXXXXXXXXXXXXXXXXXX 
.................... VOID SANG_TAT_DAN_TSP_32LED(UNSIGNED INT8 DL,CHONDELAY) 
.................... {            
....................       IF (DEM_LED<32) 
....................       {   
....................          XUAT_32LED_DON_1DW(Y); 
....................          Y= (Y>>1)+0x80000000;  
....................          DELAY_CHON(DL,CHONDELAY);       
....................       } 
....................       ELSE 
....................       IF (DEM_LED<64) 
....................       {   
....................          XUAT_32LED_DON_1DW(Y);  
....................          Y= (Y>>1); 
....................          DELAY_CHON(DL,CHONDELAY); 
....................       }  
....................       ELSE RESET_TOAN_BO_BIEN(); 
....................      
.................... }          
.................... //XXXXXXXXXXXXXXXXXXXXXXXXXXXXXXXXXXXXXXXXXXXX 
.................... //32 LED: DIEM SANG DI CHUEYN TU PHAI SANG TRAI 
.................... //XXXXXXXXXXXXXXXXXXXXXXXXXXXXXXXXXXXXXXXXXXXX 
.................... VOID DIEM_SANG_DI_CHUYEN_PST_32LED(UNSIGNED INT8 DL,CHONDELAY) 
.................... {         
....................    IF (DEM_LED==0) 
....................    {   
....................       Y=1; 
....................       XUAT_32LED_DON_1DW(Y); 
....................       Y= (Y<<1); 
....................       DELAY_CHON(DL,CHONDELAY); 
....................    } 
....................    ELSE  IF (DEM_LED<33) 
....................    {   
....................       XUAT_32LED_DON_1DW(Y);    
....................       Y= (Y<<1);  
....................       DELAY_CHON(DL,CHONDELAY); 
....................    }  
....................    ELSE  RESET_TOAN_BO_BIEN(); 
.................... }     
....................  
.................... //XXXXXXXXXXXXXXXXXXXXXXXXXXXXXXXXXXXXXXXXXXXX 
.................... //32 LED: DIEM SANG DI CHUEYN TU TRAI SANG PHAI 
.................... //XXXXXXXXXXXXXXXXXXXXXXXXXXXXXXXXXXXXXXXXXXXX 
.................... VOID DIEM_SANG_DI_CHUYEN_TSP_32LED(UNSIGNED INT8 DL,CHONDELAY) 
.................... {         
....................    IF (DEM_LED==0) 
....................    {   
....................       Y=0X80000000; 
....................       XUAT_32LED_DON_1DW(Y); 
....................       Y= (Y>>1); 
....................       DELAY_CHON(DL,CHONDELAY); 
....................    } 
....................    ELSE  IF (DEM_LED<33) 
....................    {   
....................       XUAT_32LED_DON_1DW(Y);    
....................       Y= (Y>>1);  
....................       DELAY_CHON(DL,CHONDELAY); 
....................    }  
....................    ELSE RESET_TOAN_BO_BIEN(); 
....................  
.................... }  
.................... //XXXXXXXXXXXXXXXXXXXXXXXXXXXXXXXXXXXXXXXXXXXX 
.................... //32 LED: SANG DON  PHAI SANG TRAI 
.................... //XXXXXXXXXXXXXXXXXXXXXXXXXXXXXXXXXXXXXXXXXXXX 
.................... VOID SANG_DON_PST_32LED(UNSIGNED INT8 DL,CHONDELAY) 
.................... {        
....................    IF(I32>0) 
....................    { 
....................       IF(J32<I32) 
....................       { 
....................          Y = Y_CODINH|YP_CHAY; 
....................          XUAT_32LED_DON_1DW(Y); 
....................          DELAY_CHON(DL,CHONDELAY);        
....................          YP_CHAY = YP_CHAY <<1; 
....................          J32++; 
....................       } 
....................       IF (J32==I32)  
....................       { 
....................          I32--; 
....................          J32=0;          
....................          Y_CODINH=Y; 
....................          YP_CHAY = 1; 
....................       } 
....................    } 
....................    ELSE RESET_TOAN_BO_BIEN(); 
.................... }    
.................... //XXXXXXXXXXXXXXXXXXXXXXXXXXXXXXXXXXXXXXXXXXXX 
.................... //32 LED: SANG DON  PHAI SANG TRAI 
.................... //XXXXXXXXXXXXXXXXXXXXXXXXXXXXXXXXXXXXXXXXXXXX 
.................... VOID SANG_DON_TSP_32LED(UNSIGNED INT8 DL,CHONDELAY) 
.................... {        
....................    IF(I32>0) 
....................    { 
....................       IF(J32<I32) 
....................       { 
....................          Y = Y_CODINH|YT_CHAY; 
....................          XUAT_32LED_DON_1DW(Y); 
....................          DELAY_CHON(DL,CHONDELAY); 
....................          YT_CHAY = YT_CHAY >>1; 
....................          J32++; 
....................       } 
....................       IF (J32==I32)  
....................       { 
....................          I32--; 
....................          J32=0;          
....................          Y_CODINH=Y; 
....................          YT_CHAY = 0X80000000; 
....................       } 
....................    } 
....................    ELSE RESET_TOAN_BO_BIEN(); 
....................  
.................... }   
.................... //XXXXXXXXXXXXXXXXXXXXXXXXXXXXXXXXXXXXXXXXXXXX 
.................... //32 LED: SANG DON  TU NGOAI VAO 
.................... //XXXXXXXXXXXXXXXXXXXXXXXXXXXXXXXXXXXXXXXXXXXX 
.................... VOID SANG_DON_TNT_32LED(UNSIGNED INT8 DL,CHONDELAY) 
.................... {        
....................    IF(I16>0) 
....................    { 
....................       IF(J16<I16) 
....................       { 
....................          ZP = ZP_CODINH|ZP_CHAY_P; 
....................          ZT = ZT_CODINH|ZT_CHAY_T; 
....................          XUAT_32LED_DON_2WORD(ZT,ZP); 
....................          DELAY_CHON(DL,CHONDELAY); 
....................  
....................          ZP_CHAY_P = ZP_CHAY_P <<1;          
....................          ZT_CHAY_T = ZT_CHAY_T >>1; 
....................          J16++; 
....................       } 
....................       IF (J16==I16)  
....................       { 
....................          I16--; 
....................          J16=0;          
....................          ZT_CODINH=ZT;  ZP_CODINH=ZP;          
....................          ZP_CHAY_P = 1;   ZT_CHAY_T = 0X8000; 
....................       } 
....................    } 
....................    ELSE RESET_TOAN_BO_BIEN(); 
....................  
.................... }    
....................  
.................... //XXXXXXXXXXXXXXXXXXXXXXXXXXXXXXXXXXXXXXXXXXXX 
.................... //32 LED: SANG DON  TU NGOAI VAO 
.................... //XXXXXXXXXXXXXXXXXXXXXXXXXXXXXXXXXXXXXXXXXXXX 
.................... VOID SANG_DON_TTR_32LED(UNSIGNED INT8 DL,CHONDELAY) 
.................... {        
....................    IF(I16>0) 
....................    { 
....................       IF(J16<I16) 
....................       { 
....................          ZP = ZP_CODINH|ZP_CHAY_T; 
....................          ZT = ZT_CODINH|ZT_CHAY_P; 
....................          XUAT_32LED_DON_2WORD(ZT,ZP); 
....................          DELAY_CHON(DL,CHONDELAY); 
....................          ZP_CHAY_T = ZP_CHAY_T >>1;          
....................          ZT_CHAY_P = ZT_CHAY_P <<1; 
....................          J16++; 
....................       } 
....................       IF (J16==I16)  
....................       { 
....................          I16--; 
....................          J16=0;          
....................          ZT_CODINH=ZT;   
....................          ZP_CODINH=ZP; 
....................          ZP_CHAY_T = 0X8000;   ZT_CHAY_P = 1; 
....................       } 
....................    } 
....................    ELSE RESET_TOAN_BO_BIEN(); 
.................... }    
....................  
.................... #INCLUDE <TV_PICKIT2_SHIFT_LCD.C> 
.................... UNSIGNED INT8 LCD_CONTROL;   
.................... #bit LCD_P = LCD_CONTROL.3 
.................... #bit LCD_RS = LCD_CONTROL.2 
.................... #bit LCD_RW = LCD_CONTROL.1 
.................... #bit LCD_E  = LCD_CONTROL.0 
....................  
.................... #DEFINE LCD_FUNCTION_SET       0X38 
.................... #DEFINE LCD_DISPLAY_CONTROL    0X0C 
.................... #DEFINE LCD_CLEAR_DISPLAY      0X01 
.................... #DEFINE LCD_ENTRY_MODE         0X06 
.................... #DEFINE LCD_SHIFT_LEFT         0X18 
.................... #DEFINE LCD_SHIFT_RIGHT        0X1C 
....................  
.................... #DEFINE LCD_ADDR_LINE1         0X80 
.................... #DEFINE LCD_ADDR_LINE2         0XC0 
.................... #DEFINE LCD_ADDR_LINE3         0X94 
.................... #DEFINE LCD_ADDR_LINE4         0XD4 
....................  
.................... VOID LCD_XUAT_8BIT(INT8 LCD_DATA_X) 
.................... { 
....................       LCD_E=1; XUAT_LCD20X4(LCD_CONTROL,LCD_DATA_X);      
*
0282:  BSF    x6E.0
0284:  MOVFF  6E,48A
0288:  MOVFF  489,48B
028C:  RCALL  026E
....................       LCD_E=0; XUAT_LCD20X4(LCD_CONTROL,LCD_DATA_X);  
028E:  BCF    x6E.0
0290:  MOVFF  6E,48A
0294:  MOVFF  489,48B
0298:  RCALL  026E
029A:  RETURN 0
.................... } 
.................... void LCD_COMMAND(INT8 LCD_DATA_X)    
....................   { 
....................       LCD_RS = 0; 
029C:  BCF    x6E.2
....................       LCD_XUAT_8BIT(LCD_DATA_X); 
029E:  MOVFF  488,489
02A2:  RCALL  0282
....................       DELAY_US(20); 
02A4:  MOVLW  20
02A6:  MOVWF  00
02A8:  DECFSZ 00,F
02AA:  BRA    02A8
02AC:  BRA    02AE
02AE:  NOP   
02B0:  RETURN 0
....................   } 
.................... void LCD_DATA(INT8 LCD_DATA_X)        
....................   { 
....................       LCD_RS = 1;      
*
0336:  BSF    x6E.2
....................       LCD_XUAT_8BIT(LCD_DATA_X); 
0338:  MOVFF  485,489
033C:  RCALL  0282
....................       DELAY_US(20); 
033E:  MOVLW  20
0340:  MOVWF  00
0342:  DECFSZ 00,F
0344:  BRA    0342
0346:  BRA    0348
0348:  NOP   
034A:  RETURN 0
....................   } 
....................    
.................... VOID SETUP_LCD () 
.................... {                      
....................          LCD_E  = 0;  
*
02DA:  BCF    x6E.0
....................          LCD_RW = 0;  
02DC:  BCF    x6E.1
....................          LCD_RS = 1;  
02DE:  BSF    x6E.2
....................          LCD_P =0; 
02E0:  BCF    x6E.3
....................          LCD_COMMAND(LCD_FUNCTION_SET);          
02E2:  MOVLW  38
02E4:  MOVLB  4
02E6:  MOVWF  x88
02E8:  MOVLB  0
02EA:  RCALL  029C
....................          DELAY_US(40); 
02EC:  MOVLW  42
02EE:  MOVWF  00
02F0:  DECFSZ 00,F
02F2:  BRA    02F0
02F4:  NOP   
....................          LCD_COMMAND(LCD_DISPLAY_CONTROL);    
02F6:  MOVLW  0C
02F8:  MOVLB  4
02FA:  MOVWF  x88
02FC:  MOVLB  0
02FE:  RCALL  029C
....................          DELAY_US(40); 
0300:  MOVLW  42
0302:  MOVWF  00
0304:  DECFSZ 00,F
0306:  BRA    0304
0308:  NOP   
....................          LCD_COMMAND(LCD_CLEAR_DISPLAY);       
030A:  MOVLW  01
030C:  MOVLB  4
030E:  MOVWF  x88
0310:  MOVLB  0
0312:  RCALL  029C
....................          DELAY_MS(2); 
0314:  MOVLW  02
0316:  MOVLB  4
0318:  MOVWF  x82
031A:  MOVLB  0
031C:  RCALL  02B2
....................          LCD_COMMAND(LCD_ENTRY_MODE);        
031E:  MOVLW  06
0320:  MOVLB  4
0322:  MOVWF  x88
0324:  MOVLB  0
0326:  RCALL  029C
....................          DELAY_US(40);                 
0328:  MOVLW  42
032A:  MOVWF  00
032C:  DECFSZ 00,F
032E:  BRA    032C
0330:  NOP   
0332:  GOTO   0F40 (RETURN)
.................... } 
....................  
.................... CONST UNSIGNED CHAR LCD_SO_X[10+1+1][6] ={ 
....................                   0,1,2,5,3,4,               // SO 0 
....................                   1,2,32,3,7,3,              // SO 1 
....................                   6,6,2,5,3,3,               // SO 2 
....................                   6,6,2,3,3,4,               // SO 3 
....................                   7,3,7,32,32,7,             // SO 4 
....................                   7,6,6,3,3,4,               // SO 5 
....................                   0,6,6,5,3,4,               // SO 6 
....................                   1,1,7,32,32,7,             // SO 7 
....................                   0,6,2,5,3,4,               // SO 8 
....................                   0,6,2,3,3,4,               // SO 9 
....................                   32,32,32,32,32,32,         // KHOANG TRANG 0x20 tai vi tri 10 
....................                   0,6,2,5,32,32,              // CHU "P" tai vi tri 11 
....................                   }; 
....................                    
....................                    
.................... CONST UNSIGNED CHAR LCD_MA_8DOAN[] = { 
....................    0x07,0x0F,0x1F,0x1F,0x1F,0x1F,0x1F,0x1F,  //DOAN F - 0 
....................    0x1F,0x1F,0x1F,0X00,0X00,0X00,0X00,0X00,  //DOAN A - 1 
....................    0x1C,0x1E,0x1F,0x1F,0x1F,0x1F,0x1F,0x1F,  //DOAN B - 2 
....................    0X00,0X00,0X00,0X00,0X00,0x1F,0x1F,0x1F,  //DOAN D - 3 
....................    0x1F,0x1F,0x1F,0x1F,0x1F,0x1F,0x1E,0x1C,  //DOAN C - 4 
....................    0x1F,0x1F,0x1F,0x1F,0x1F,0x1F,0x0F,0x07,  //DOAN E - 5 
....................    0x1F,0x1F,0x1F,0X00,0X00,0X00,0x1F,0x1F,  //DOAN G+D-6  
....................    0x1F,0x1F,0x1F,0x1F,0x1F,0x1F,0x1F,0x1F}; //DOAN I  -7 
....................     
.................... VOID LCD_GOTO_XY(SIGNED INT8 X, SIGNED INT8 Y) 
.................... {  
....................    CONST UNSIGNED INT8 LCD_VITRI[]={0x80,0xC0,0x94,0xD4}; 
....................    LCD_COMMAND(LCD_VITRI[X]+Y); 
*
04AC:  CLRF   03
04AE:  MOVLB  4
04B0:  MOVF   x85,W
04B2:  MOVFF  FF2,487
04B6:  BCF    FF2.7
04B8:  MOVLB  0
04BA:  RCALL  0152
04BC:  MOVLB  4
04BE:  BTFSC  x87.7
04C0:  BSF    FF2.7
04C2:  ADDWF  x86,W
04C4:  MOVWF  x87
04C6:  MOVWF  x88
04C8:  MOVLB  0
04CA:  RCALL  029C
04CC:  RETURN 0
.................... } 
....................  
.................... VOID XXX() 
.................... {  
....................    SIGNED INT8 X; 
....................    X= LCD_SO_X[0][0]; 
....................    X= LCD_MA_8DOAN[0]; 
.................... } 
....................  
.................... #INCLUDE <TV_PICKIT2_SHIFT_KEY4X4_138.C> 
.................... CONST UNSIGNED CHAR MAQUETKEY[4]= {0x3F,0x7F,0xBF,0xFF}; 
.................... UNSIGNED INT8  MPT1=0,MPT2=0;   
.................... UNSIGNED INT KEY_NHAN() 
.................... {     SIGNED INT8 MAPHIM,HANG,COT; 
....................       MAPHIM=HANG=0XFF; 
*
0DA6:  MOVLB  4
0DA8:  SETF   x81
0DAA:  MOVFF  481,480
....................       FOR(COT=0;COT<4;COT++) 
0DAE:  CLRF   x82
0DB0:  BTFSC  x82.7
0DB2:  BRA    0DBA
0DB4:  MOVF   x82,W
0DB6:  SUBLW  03
0DB8:  BNC   0E0C
....................             {    
....................                OUTPUT_B(MAQUETKEY[COT]); 
0DBA:  CLRF   03
0DBC:  MOVF   x82,W
0DBE:  MOVFF  FF2,483
0DC2:  BCF    FF2.7
0DC4:  MOVLB  0
0DC6:  CALL   0170
0DCA:  MOVLB  4
0DCC:  BTFSC  x83.7
0DCE:  BSF    FF2.7
0DD0:  CLRF   F93
0DD2:  MOVWF  F8A
....................                IF         (!INPUT(PIN_B2))      {HANG=3;   BREAK;} 
0DD4:  BSF    F93.2
0DD6:  BTFSC  F81.2
0DD8:  BRA    0DE2
0DDA:  MOVLW  03
0DDC:  MOVWF  x81
0DDE:  BRA    0E0C
0DE0:  BRA    0E08
....................                ELSE    IF (!INPUT(PIN_B3))      {HANG=2;   BREAK;} 
0DE2:  BSF    F93.3
0DE4:  BTFSC  F81.3
0DE6:  BRA    0DF0
0DE8:  MOVLW  02
0DEA:  MOVWF  x81
0DEC:  BRA    0E0C
0DEE:  BRA    0E08
....................                ELSE    IF (!INPUT(PIN_B4))      {HANG=1;   BREAK;}                   
0DF0:  BSF    F93.4
0DF2:  BTFSC  F81.4
0DF4:  BRA    0DFE
0DF6:  MOVLW  01
0DF8:  MOVWF  x81
0DFA:  BRA    0E0C
0DFC:  BRA    0E08
....................                ELSE    IF (!INPUT(PIN_B5))      {HANG=0;   BREAK;} 
0DFE:  BSF    F93.5
0E00:  BTFSC  F81.5
0E02:  BRA    0E08
0E04:  CLRF   x81
0E06:  BRA    0E0C
0E08:  INCF   x82,F
0E0A:  BRA    0DB0
....................             }           
....................          IF (HANG!=0XFF)   MAPHIM   = COT*4 + HANG; 
0E0C:  INCFSZ x81,W
0E0E:  BRA    0E12
0E10:  BRA    0E28
0E12:  MOVFF  482,489
0E16:  MOVLW  04
0E18:  MOVWF  x8A
0E1A:  MOVLB  0
0E1C:  CALL   04CE
0E20:  MOVLB  4
0E22:  MOVF   x81,W
0E24:  ADDWF  01,W
0E26:  MOVWF  x80
....................          RETURN(MAPHIM); 
0E28:  MOVFF  480,01
0E2C:  MOVLB  0
0E2E:  RETURN 0
.................... } 
.................... UNSIGNED INT KEY_4X4_DW() 
.................... {      
....................       MPT1=KEY_NHAN();          
0E30:  RCALL  0DA6
0E32:  MOVFF  01,6F
....................       IF (MPT1!=0XFF)    
0E36:  INCFSZ x6F,W
0E38:  BRA    0E3C
0E3A:  BRA    0E5A
....................       {  DELAY_MS(1);   
0E3C:  MOVLW  01
0E3E:  MOVLB  4
0E40:  MOVWF  x82
0E42:  MOVLB  0
0E44:  CALL   02B2
....................          MPT1=KEY_NHAN(); 
0E48:  RCALL  0DA6
0E4A:  MOVFF  01,6F
....................          DO{MPT2=KEY_NHAN();} 
0E4E:  RCALL  0DA6
0E50:  MOVFF  01,70
....................          WHILE (MPT2==MPT1); 
0E54:  MOVF   x6F,W
0E56:  SUBWF  x70,W
0E58:  BZ    0E4E
....................       }              
....................       RETURN(MPT1); 
0E5A:  MOVFF  6F,01
0E5E:  GOTO   102E (RETURN)
.................... } 
....................  
.................... UNSIGNED INT KEY_4X4_UP() 
.................... {             
....................       MPT1=KEY_NHAN(); 
....................       IF (MPT1!=0XFF)    
....................       {   
....................          IF (MPT1!=MPT2) 
....................             { 
....................                RETURN(MPT1);  //PHIM MOI 
....................                MPT2=MPT1; 
....................             } 
....................          ELSE 
....................          { 
....................             DELAY_MS(1); 
....................             MPT1=KEY_NHAN(); 
....................             DO 
....................             { 
....................                MPT2=KEY_NHAN(); 
....................                } 
....................             WHILE (MPT2!=MPT1); 
....................                RETURN(MPT1);     //THOAT VI TRUNG MA PHIM DA NHAN 
....................                MPT2=MPT1;            
....................          } 
....................       }   
....................       ELSE  
....................       { 
....................          RETURN(MPT1);  //THOAT VI KHONG NHAN 
....................          MPT2=MPT1; 
....................       }       
.................... } 
....................  
....................  
....................  
.................... #INCLUDE <TV_PICKIT2_SHIFT_GLCD128X64.C> 
.................... UNSIGNED INT8 GLCD_CONTROL;   
.................... #bit GLCD_P    = GLCD_CONTROL.5 
.................... #bit GLCD_RS   = GLCD_CONTROL.4 
.................... #bit GLCD_RW   = GLCD_CONTROL.3 
.................... #bit GLCD_E    = GLCD_CONTROL.2 
.................... #bit GLCD_CS2  = GLCD_CONTROL.1 
.................... #bit GLCD_CS1  = GLCD_CONTROL.0 
....................  
.................... //#DEFINE GLCD_FUNCTION_SET       0X30 
.................... #DEFINE GLCD_TEXT_MODE          0x30 
.................... #DEFINE GLCD_GRAPHIC_MODE       0x36  
....................  
.................... #DEFINE GLCD_CLEAR_DISPLAY      0X01 
.................... #DEFINE GLCD_CURSOR_DISPLAY     0X0C 
.................... #DEFINE GLCD_ENTRY_MODE         0X06 
....................  
....................  
.................... #DEFINE GLCD_ADDR_LINE1         0X80 
.................... #DEFINE GLCD_ADDR_LINE2         0X90 
.................... #DEFINE GLCD_ADDR_LINE3         0X88 
.................... #DEFINE GLCD_ADDR_LINE4         0X98 
....................  
.................... VOID GLCD_XUAT_8BIT(INT8 GLCD_DATA1) 
.................... { 
....................       GLCD_E=1; XUAT_GLCD128X64(GLCD_CONTROL,GLCD_DATA1);      
*
0360:  BSF    x71.2
0362:  MOVFF  71,485
0366:  MOVFF  484,486
036A:  RCALL  034C
....................       GLCD_E=0; XUAT_GLCD128X64(GLCD_CONTROL,GLCD_DATA1);  
036C:  BCF    x71.2
036E:  MOVFF  71,485
0372:  MOVFF  484,486
0376:  RCALL  034C
0378:  RETURN 0
.................... } 
....................  
.................... void GLCD_COMMAND(INT8 GLCD_DATA2)    
....................   { 
....................       GLCD_RS = 0; 
037A:  BCF    x71.4
....................       GLCD_XUAT_8BIT(GLCD_DATA2);       
037C:  MOVFF  482,484
0380:  RCALL  0360
0382:  RETURN 0
....................   } 
.................... void GLCD_DATA(INT8 GLCD_DATA3)        
....................   { 
....................       GLCD_RS = 1;      
*
065E:  BSF    x71.4
....................       GLCD_XUAT_8BIT(GLCD_DATA3);      
0660:  MOVFF  483,484
0664:  RCALL  0360
0666:  RETURN 0
....................   } 
....................    
....................   VOID GLCD_DATA_X(INT8 GLCD_DATA3) 
.................... { 
....................       GLCD_RS = 1;      
....................       GLCD_XUAT_8BIT(0XA1); 
....................       GLCD_XUAT_8BIT(0X40);   
.................... } 
.................... VOID SETUP_GLCD (INT8 GLCD_FUNCTION_SET_MODE) 
.................... {                      
....................          GLCD_CS1 = 1; 
*
0384:  BSF    x71.0
....................          GLCD_CS2 = 1; 
0386:  BSF    x71.1
....................          GLCD_E  = 0; 
0388:  BCF    x71.2
....................          GLCD_RW = 0;           
038A:  BCF    x71.3
....................          GLCD_P =0;          
038C:  BCF    x71.5
....................          GLCD_COMMAND(GLCD_FUNCTION_SET_MODE);          
038E:  MOVFF  481,482
0392:  RCALL  037A
....................          DELAY_US(10); 
0394:  MOVLW  10
0396:  MOVWF  00
0398:  DECFSZ 00,F
039A:  BRA    0398
039C:  NOP   
....................          GLCD_COMMAND(GLCD_CURSOR_DISPLAY);        
039E:  MOVLW  0C
03A0:  MOVLB  4
03A2:  MOVWF  x82
03A4:  MOVLB  0
03A6:  RCALL  037A
....................          DELAY_US(10);     
03A8:  MOVLW  10
03AA:  MOVWF  00
03AC:  DECFSZ 00,F
03AE:  BRA    03AC
03B0:  NOP   
....................          GLCD_COMMAND(GLCD_CLEAR_DISPLAY);       
03B2:  MOVLW  01
03B4:  MOVLB  4
03B6:  MOVWF  x82
03B8:  MOVLB  0
03BA:  RCALL  037A
....................          DELAY_MS(2); 
03BC:  MOVLW  02
03BE:  MOVLB  4
03C0:  MOVWF  x82
03C2:  MOVLB  0
03C4:  RCALL  02B2
....................          GLCD_COMMAND(GLCD_ENTRY_MODE);       
03C6:  MOVLW  06
03C8:  MOVLB  4
03CA:  MOVWF  x82
03CC:  MOVLB  0
03CE:  RCALL  037A
....................          DELAY_US(10);                           
03D0:  MOVLW  10
03D2:  MOVWF  00
03D4:  DECFSZ 00,F
03D6:  BRA    03D4
03D8:  NOP   
03DA:  RETURN 0
.................... } 
....................  
.................... #DEFINE GLCD_NGANG     16 //256 PIXEL 
.................... #DEFINE GLCD_DOC       32 //32 HANG 
.................... #DEFINE GLCD_WIDTH     128 //DANH CHO THU VIEN GRAPHIC.C 
.................... int8 DOC, NGANG; 
....................  
.................... typedef union  
.................... {  
....................   unsigned int16 word;  
....................   unsigned int8 nbyte[2];  
.................... } Dots;  
....................  
.................... typedef struct  
.................... {  
....................   int1 refresh;  
....................   Dots PIXEL[GLCD_DOC][GLCD_NGANG];     
....................   } GD_RAM;     
....................  
.................... GD_RAM gdram_vdk;  
....................  
....................  
.................... void GLCD_MAU_NEN(int1 GLCD_COLOR)  
.................... {   
....................   int16 d;  
....................   if(GLCD_COLOR)  d=0xffff; else d=0; 
*
03FE:  MOVLB  4
0400:  MOVF   x80,F
0402:  BZ    040A
0404:  SETF   x82
0406:  SETF   x81
0408:  BRA    040E
040A:  CLRF   x82
040C:  CLRF   x81
....................   for (DOC=0; DOC < GLCD_DOC; DOC++)  
040E:  MOVLB  0
0410:  CLRF   x72
0412:  MOVF   x72,W
0414:  SUBLW  1F
0416:  BNC   047C
....................   {  
....................     for (NGANG=0; NGANG < GLCD_NGANG; NGANG++)  
0418:  CLRF   x73
041A:  MOVF   x73,W
041C:  SUBLW  0F
041E:  BNC   0478
....................     {  
....................       gdram_vdk.PIXEL[DOC][NGANG].word = d;  
0420:  MOVLB  4
0422:  CLRF   xA1
0424:  MOVFF  72,4A0
0428:  CLRF   xA3
042A:  MOVLW  20
042C:  MOVWF  xA2
042E:  MOVLB  0
0430:  RCALL  03DC
0432:  MOVFF  02,03
0436:  MOVF   01,W
0438:  ADDLW  01
043A:  MOVLB  4
043C:  MOVWF  x83
043E:  MOVLW  00
0440:  ADDWFC 02,W
0442:  MOVWF  x84
0444:  CLRF   03
0446:  MOVLB  0
0448:  MOVFF  73,02
044C:  BCF    FD8.0
044E:  RLCF   02,F
0450:  RLCF   03,F
0452:  MOVF   02,W
0454:  MOVLB  4
0456:  ADDWF  x83,F
0458:  MOVF   03,W
045A:  ADDWFC x84,F
045C:  MOVLW  74
045E:  ADDWF  x83,W
0460:  MOVWF  FE9
0462:  MOVLW  00
0464:  ADDWFC x84,W
0466:  MOVWF  FEA
0468:  MOVFF  482,FEC
046C:  MOVF   FED,F
046E:  MOVFF  481,FEF
0472:  MOVLB  0
0474:  INCF   x73,F
0476:  BRA    041A
....................     }  
0478:  INCF   x72,F
047A:  BRA    0412
....................   }  
....................   gdram_vdk.refresh = TRUE;  
047C:  BSF    x74.0
047E:  RETURN 0
.................... }  
....................  
.................... void glcd_pixel(int8 x, int8 y, int1 color)  
.................... {  
....................   int8  b;  
....................   if(y>31){x += 128; y-= 32;};  
*
0706:  MOVLB  4
0708:  MOVF   x9D,W
070A:  SUBLW  1F
070C:  BC    0716
070E:  MOVLW  80
0710:  ADDWF  x9C,F
0712:  MOVLW  20
0714:  SUBWF  x9D,F
....................   DOC = y;  
0716:  MOVFF  49D,72
....................   NGANG = x/16;  
071A:  SWAPF  x9C,W
071C:  MOVLB  0
071E:  MOVWF  x73
0720:  MOVLW  0F
0722:  ANDWF  x73,F
....................   b = 15 - (x % 16);  
0724:  MOVLB  4
0726:  MOVF   x9C,W
0728:  ANDLW  0F
072A:  XORLW  FF
072C:  ADDLW  10
072E:  MOVWF  x9F
....................    
....................   if (color == 1) bit_set (gdram_vdk.PIXEL[DOC][NGANG].word, b);  
0730:  DECFSZ x9E,W
0732:  BRA    07A2
0734:  CLRF   xA1
0736:  MOVFF  72,4A0
073A:  CLRF   xA3
073C:  MOVLW  20
073E:  MOVWF  xA2
0740:  MOVLB  0
0742:  RCALL  03DC
0744:  MOVFF  02,03
0748:  MOVF   01,W
074A:  ADDLW  01
074C:  MOVLB  4
074E:  MOVWF  xA0
0750:  MOVLW  00
0752:  ADDWFC 02,W
0754:  MOVWF  xA1
0756:  CLRF   03
0758:  MOVLB  0
075A:  MOVFF  73,02
075E:  BCF    FD8.0
0760:  RLCF   02,F
0762:  RLCF   03,F
0764:  MOVF   02,W
0766:  MOVLB  4
0768:  ADDWF  xA0,F
076A:  MOVF   03,W
076C:  ADDWFC xA1,F
076E:  MOVLW  74
0770:  ADDWF  xA0,W
0772:  MOVWF  01
0774:  MOVLW  00
0776:  ADDWFC xA1,W
0778:  MOVWF  03
077A:  MOVFF  01,FE9
077E:  MOVWF  FEA
0780:  CLRF   03
0782:  MOVLW  01
0784:  MOVWF  02
0786:  MOVF   x9F,W
0788:  MOVWF  00
078A:  BZ    0796
078C:  BCF    FD8.0
078E:  RLCF   02,F
0790:  RLCF   03,F
0792:  DECFSZ 00,F
0794:  BRA    078C
0796:  MOVF   02,W
0798:  IORWF  FEF,F
079A:  MOVF   03,W
079C:  IORWF  FEC,W
079E:  MOVWF  FEF
07A0:  BRA    0818
....................   else bit_clear (gdram_vdk.PIXEL[DOC][NGANG].word, b);  
07A2:  CLRF   xA1
07A4:  MOVFF  72,4A0
07A8:  CLRF   xA3
07AA:  MOVLW  20
07AC:  MOVWF  xA2
07AE:  MOVLB  0
07B0:  RCALL  03DC
07B2:  MOVFF  02,03
07B6:  MOVF   01,W
07B8:  ADDLW  01
07BA:  MOVLB  4
07BC:  MOVWF  xA0
07BE:  MOVLW  00
07C0:  ADDWFC 02,W
07C2:  MOVWF  xA1
07C4:  CLRF   03
07C6:  MOVLB  0
07C8:  MOVFF  73,02
07CC:  BCF    FD8.0
07CE:  RLCF   02,F
07D0:  RLCF   03,F
07D2:  MOVF   02,W
07D4:  MOVLB  4
07D6:  ADDWF  xA0,F
07D8:  MOVF   03,W
07DA:  ADDWFC xA1,F
07DC:  MOVLW  74
07DE:  ADDWF  xA0,W
07E0:  MOVWF  01
07E2:  MOVLW  00
07E4:  ADDWFC xA1,W
07E6:  MOVWF  03
07E8:  MOVFF  01,FE9
07EC:  MOVWF  FEA
07EE:  CLRF   03
07F0:  MOVLW  01
07F2:  MOVWF  02
07F4:  MOVF   x9F,W
07F6:  MOVWF  00
07F8:  BZ    0804
07FA:  BCF    FD8.0
07FC:  RLCF   02,F
07FE:  RLCF   03,F
0800:  DECFSZ 00,F
0802:  BRA    07FA
0804:  MOVF   02,W
0806:  XORLW  FF
0808:  MOVWF  00
080A:  MOVLW  FF
080C:  XORWF  03,F
080E:  MOVF   00,W
0810:  ANDWF  FEF,F
0812:  MOVF   03,W
0814:  ANDWF  FEC,W
0816:  MOVWF  FEF
....................   gdram_vdk.refresh = TRUE;  
0818:  MOVLB  0
081A:  BSF    x74.0
081C:  RETURN 0
.................... }  
....................  
....................  
.................... void GDRAM_VDK_TO_GDRAM_GLCD_ALL()  
.................... {  
....................   if (gdram_vdk.refresh)  
*
0C26:  BTFSS  x74.0
0C28:  BRA    0D18
....................   {  
....................     for (DOC = 0; DOC <GLCD_DOC; DOC++)  
0C2A:  CLRF   x72
0C2C:  MOVF   x72,W
0C2E:  SUBLW  1F
0C30:  BNC   0D16
....................     {  
....................       GLCD_COMMAND( 0x80 | DOC);   // Set Vertical Address.  
0C32:  MOVF   x72,W
0C34:  IORLW  80
0C36:  MOVLB  4
0C38:  MOVWF  x80
0C3A:  MOVWF  x82
0C3C:  MOVLB  0
0C3E:  CALL   037A
....................       GLCD_COMMAND( 0x80 | 0);   // Set Horizontal Address.  
0C42:  MOVLW  80
0C44:  MOVLB  4
0C46:  MOVWF  x82
0C48:  MOVLB  0
0C4A:  CALL   037A
....................  
....................       for (NGANG=0; NGANG <GLCD_NGANG; NGANG++)  
0C4E:  CLRF   x73
0C50:  MOVF   x73,W
0C52:  SUBLW  0F
0C54:  BNC   0D12
....................       {  
....................         GLCD_DATA( gdram_vdk.PIXEL[DOC][NGANG].nbyte[1]);   // Write High Byte.  
0C56:  MOVLB  4
0C58:  CLRF   xA1
0C5A:  MOVFF  72,4A0
0C5E:  CLRF   xA3
0C60:  MOVLW  20
0C62:  MOVWF  xA2
0C64:  MOVLB  0
0C66:  CALL   03DC
0C6A:  MOVFF  02,03
0C6E:  MOVF   01,W
0C70:  ADDLW  01
0C72:  MOVLB  4
0C74:  MOVWF  x80
0C76:  MOVLW  00
0C78:  ADDWFC 02,W
0C7A:  MOVWF  x81
0C7C:  CLRF   03
0C7E:  MOVLB  0
0C80:  MOVFF  73,02
0C84:  BCF    FD8.0
0C86:  RLCF   02,F
0C88:  RLCF   03,F
0C8A:  MOVF   02,W
0C8C:  MOVLB  4
0C8E:  ADDWF  x80,F
0C90:  MOVF   03,W
0C92:  ADDWFC x81,F
0C94:  MOVLW  01
0C96:  ADDWF  x80,W
0C98:  MOVWF  01
0C9A:  MOVLW  00
0C9C:  ADDWFC x81,W
0C9E:  MOVWF  03
0CA0:  MOVF   01,W
0CA2:  ADDLW  74
0CA4:  MOVWF  FE9
0CA6:  MOVLW  00
0CA8:  ADDWFC 03,W
0CAA:  MOVWF  FEA
0CAC:  MOVFF  FEF,480
0CB0:  MOVFF  480,483
0CB4:  MOVLB  0
0CB6:  RCALL  065E
....................         GLCD_DATA( gdram_vdk.PIXEL[DOC][NGANG].nbyte[0]);   // Write Low Byte.  
0CB8:  MOVLB  4
0CBA:  CLRF   xA1
0CBC:  MOVFF  72,4A0
0CC0:  CLRF   xA3
0CC2:  MOVLW  20
0CC4:  MOVWF  xA2
0CC6:  MOVLB  0
0CC8:  CALL   03DC
0CCC:  MOVFF  02,03
0CD0:  MOVF   01,W
0CD2:  ADDLW  01
0CD4:  MOVLB  4
0CD6:  MOVWF  x80
0CD8:  MOVLW  00
0CDA:  ADDWFC 02,W
0CDC:  MOVWF  x81
0CDE:  CLRF   03
0CE0:  MOVLB  0
0CE2:  MOVFF  73,02
0CE6:  BCF    FD8.0
0CE8:  RLCF   02,F
0CEA:  RLCF   03,F
0CEC:  MOVF   02,W
0CEE:  MOVLB  4
0CF0:  ADDWF  x80,F
0CF2:  MOVF   03,W
0CF4:  ADDWFC x81,F
0CF6:  MOVLW  74
0CF8:  ADDWF  x80,W
0CFA:  MOVWF  FE9
0CFC:  MOVLW  00
0CFE:  ADDWFC x81,W
0D00:  MOVWF  FEA
0D02:  MOVFF  FEF,482
0D06:  MOVFF  482,483
0D0A:  MOVLB  0
0D0C:  RCALL  065E
0D0E:  INCF   x73,F
0D10:  BRA    0C50
....................       }  
0D12:  INCF   x72,F
0D14:  BRA    0C2C
....................     }  
....................     gdram_vdk.refresh = FALSE;  
0D16:  BCF    x74.0
....................   }  
0D18:  RETURN 0
.................... }  
....................  
.................... void GDRAM_VDK_TO_GDRAM_GLCD_AREA (int8 x,int8 y,int8 rong, int8 cao) 
.................... { 
....................   int8 hesox,hesoy;  
....................   if (gdram_vdk.refresh)  
....................   {  
....................       if((x/16)!=(x + rong)/16) 
....................             rong=((rong+15)/16)+1; 
....................       else rong=((rong+15)/16);  
....................        
....................       x = x/16; 
....................       for (DOC = y; DOC <(y+cao); DOC++)  
....................       {  
....................          if(DOC>31) 
....................             {   
....................                hesox = 8+x; 
....................                hesoy = DOC-32; 
....................                } 
....................          else {hesox = x; hesoy = DOC;} 
....................          GLCD_COMMAND( 0x80 |hesoy);    
....................          GLCD_COMMAND( 0x80 |hesox);   
....................        
....................          for (NGANG=hesox; NGANG <(hesox+rong); NGANG++)  
....................          {  
....................             GLCD_DATA( gdram_vdk.PIXEL[hesoy][NGANG].nbyte[1]);   // Write High Byte.  
....................             GLCD_DATA( gdram_vdk.PIXEL[hesoy][NGANG].nbyte[0]);   // Write Low Byte.  
....................          }  
....................        }  
....................     gdram_vdk.refresh = FALSE;  
....................   }       
.................... } 
....................  
....................  
.................... //!const unsigned char Logo_DHSPKTTP []= { 0X00,0X01,0X2E,0X00,0X39,0X00, 
.................... //!0X00,0X00,0X00,0X00,0X00,0X00,0X00,0X00,0X00,0X00,0X00,0X00,0X00,0X00,0X00,0X00, 
.................... //!0X00,0X00,0X00,0X00,0X00,0X00,0X00,0X00,0X00,0X00,0X00,0X00,0X00,0X00,0X00,0X00, 
.................... //!0X00,0X00,0X00,0X00,0X00,0X00,0X00,0X00,0X00,0X00,0X00,0X00,0X02,0X00,0X00,0X00, 
.................... //!0X00,0X00,0X02,0X00,0X00,0X00,0X00,0X00,0X02,0X04,0X00,0X00,0X00,0X01,0X02,0X0C, 
.................... //!0X00,0X00,0X00,0X01,0X82,0X0C,0X00,0X00,0X00,0X00,0X80,0X08,0X00,0X00,0X00,0X00, 
.................... //!0X80,0X00,0X00,0X00,0X00,0X00,0X0F,0X80,0X00,0X00,0X00,0X00,0X3F,0XC0,0X00,0X00, 
.................... //!0X00,0X70,0X70,0X70,0X70,0X00,0X00,0X38,0XC8,0X18,0XE0,0X00,0X00,0X18,0XD8,0X18, 
.................... //!0XC0,0X00,0X00,0X01,0XB0,0X0C,0X00,0X00,0X00,0X01,0XA0,0X0C,0X00,0X00,0X00,0X01, 
.................... //!0X60,0X0C,0X00,0X00,0X00,0X01,0X00,0X04,0X00,0X00,0X00,0X01,0X00,0X04,0X00,0X00, 
.................... //!0X00,0X31,0X00,0X04,0X00,0X00,0X00,0X79,0X80,0X0C,0XF0,0X00,0X00,0X71,0X80,0X0C, 
.................... //!0X70,0X00,0X00,0X01,0X80,0X0C,0X00,0X00,0X00,0X00,0XC0,0X18,0X00,0X00,0X00,0X00, 
.................... //!0XC0,0X18,0X00,0X00,0X00,0X00,0X60,0X30,0X00,0X00,0X00,0X00,0X60,0X30,0X00,0X00, 
.................... //!0X00,0X00,0X20,0X20,0X00,0X00,0X00,0X00,0X30,0X60,0X00,0X00,0X00,0X00,0X30,0X60, 
.................... //!0X00,0X00,0X00,0X00,0X3F,0XE0,0X00,0X00,0X00,0X00,0X3F,0XE0,0X00,0X00,0X00,0X00, 
.................... //!0X3F,0XE0,0X00,0X00,0X00,0X00,0X3F,0XE0,0X00,0X00,0X00,0X00,0X1F,0X80,0X00,0X00, 
.................... //!0X00,0X00,0X3E,0X60,0X00,0X00,0X00,0X00,0X39,0XE0,0X00,0X00,0X00,0X00,0X07,0XE0, 
.................... //!0X00,0X00,0X00,0X00,0X1F,0X80,0X00,0X00,0X00,0X00,0X3E,0X60,0X00,0X00,0X00,0X00, 
.................... //!0X3D,0XE0,0X00,0X00,0X00,0X00,0X3F,0XE0,0X00,0X00,0X00,0X00,0X1F,0XC0,0X00,0X00, 
.................... //!0X00,0X00,0X0F,0X80,0X00,0X00,0X00,0X00,0X02,0X00,0X00,0X00,0X00,0X00,0X00,0X00, 
.................... //!0X00,0X00,0X00,0X00,0X00,0X00,0X00,0X00,0X00,0X00,0X00,0X00,0X00,0X00,0X00,0X00, 
.................... //!0X00,0X00,0X00,0X00,0X00,0X00,0X00,0X00,0X00,0X00,0X00,0X00,0X00,0X00,0X00,0X00, 
.................... //!0X00,0X00,0X00,0X00,0X00,0X00,}; 
.................... //! 
.................... const unsigned char Logo_DHSPKTTP [] = { 
.................... 0x00, 0x00, 0x00, 0x00, 0x00, 0x00, 0x00, 0x00, 0x00, 0x00, 0x00, 0x00, 0x00, 0x00, 0x00, 0x00, 
.................... 0x00, 0x00, 0x00, 0x00, 0x00, 0x00, 0x00, 0x00, 0x00, 0x00, 0x00, 0x01, 0x80, 0x00, 0x00, 0x00, 
.................... 0x00, 0x00, 0x00, 0x01, 0x80, 0x00, 0x00, 0x00, 0x00, 0x00, 0x00, 0x01, 0x80, 0x00, 0x00, 0x00, 
.................... 0x00, 0x00, 0x00, 0x07, 0xE0, 0x00, 0x00, 0x00, 0x00, 0x00, 0x00, 0x07, 0xA0, 0x00, 0x00, 0x00, 
.................... 0x00, 0x00, 0x00, 0x03, 0x20, 0x00, 0x00, 0x00, 0x00, 0x00, 0x00, 0x03, 0x20, 0x00, 0x00, 0x00, 
.................... 0x00, 0x00, 0x00, 0x02, 0x20, 0x00, 0x00, 0x00, 0x00, 0x00, 0x00, 0x02, 0x30, 0x00, 0x00, 0x00, 
.................... 0x00, 0x00, 0x00, 0x02, 0x30, 0x00, 0x00, 0x00, 0x00, 0x7F, 0x00, 0x00, 0x30, 0x00, 0x7E, 0x00, 
.................... 0x00, 0xFE, 0x00, 0x07, 0xE0, 0x00, 0x3F, 0x00, 0x01, 0xF8, 0x00, 0x03, 0xE0, 0x00, 0x1F, 0x80, 
.................... 0x03, 0xF0, 0x00, 0x01, 0xC0, 0x00, 0x0F, 0xC0, 0x03, 0xE0, 0x00, 0x01, 0xC0, 0x00, 0x07, 0xE0, 
.................... 0x07, 0xC0, 0x00, 0x03, 0xC0, 0x00, 0x03, 0xF0, 0x0F, 0xC0, 0x00, 0x17, 0xF4, 0x00, 0x01, 0xF0, 
.................... 0x0F, 0x80, 0x00, 0x1D, 0x98, 0x00, 0x00, 0xF8, 0x1F, 0x00, 0x00, 0x11, 0x8C, 0x00, 0x00, 0xF8, 
.................... 0x1F, 0x01, 0x00, 0x31, 0x84, 0x00, 0x80, 0x7C, 0x3E, 0x06, 0x00, 0x31, 0x86, 0x00, 0x20, 0x7C, 
.................... 0x3E, 0x18, 0x00, 0x71, 0x86, 0x00, 0x1C, 0x3E, 0x3C, 0x43, 0x00, 0x31, 0x84, 0x00, 0xC3, 0x3E, 
.................... 0x7C, 0x0C, 0x00, 0x11, 0x8C, 0x00, 0x38, 0x1E, 0x7C, 0x31, 0x00, 0x1D, 0x98, 0x00, 0x86, 0x1F, 
.................... 0x78, 0xC6, 0x00, 0x1F, 0xFC, 0x00, 0x63, 0x1F, 0x78, 0x18, 0x00, 0x03, 0xC0, 0x00, 0x0C, 0x1F, 
.................... 0xF8, 0x63, 0x80, 0x01, 0x80, 0x00, 0xC7, 0x0F, 0xF9, 0x8E, 0x00, 0x00, 0x00, 0x00, 0x38, 0x8F, 
.................... 0xF8, 0x38, 0x80, 0x00, 0x00, 0x01, 0x0C, 0x0F, 0xF8, 0xC3, 0x80, 0x00, 0x00, 0x00, 0xE3, 0x8F, 
.................... 0xF9, 0x8E, 0x00, 0x00, 0x00, 0x00, 0x30, 0xCF, 0xF8, 0x38, 0xF8, 0x00, 0x00, 0x1F, 0x9E, 0x0F, 
.................... 0xF8, 0xE3, 0xFE, 0x00, 0x00, 0x7F, 0xE3, 0x8F, 0xF9, 0x9F, 0xFF, 0xC0, 0x03, 0xFF, 0xF9, 0xCF, 
.................... 0x78, 0xFF, 0xFF, 0xE0, 0x07, 0xFF, 0xFF, 0x0F, 0x78, 0x1F, 0xFF, 0xE0, 0x07, 0xFF, 0xFC, 0x1F, 
.................... 0x7C, 0x07, 0xFF, 0xE0, 0x07, 0xFF, 0xE0, 0x1F, 0x7C, 0x00, 0xFF, 0xE0, 0x07, 0xFF, 0x80, 0x1E, 
.................... 0x7C, 0x00, 0x1F, 0xE0, 0x07, 0xFC, 0x00, 0x3E, 0x3E, 0x01, 0xCF, 0xE0, 0x07, 0xF3, 0x80, 0x3E, 
.................... 0x3E, 0x01, 0xFF, 0xE0, 0x03, 0xFF, 0x80, 0x7C, 0x1F, 0x01, 0xFF, 0xE0, 0x03, 0xFF, 0xC0, 0x7C, 
.................... 0x1F, 0x01, 0xFF, 0xC0, 0x03, 0xFF, 0xC0, 0xF8, 0x0F, 0x83, 0xFF, 0xC0, 0x01, 0xFF, 0xC0, 0xF8, 
.................... 0x0F, 0x83, 0xFF, 0xC0, 0x01, 0xFF, 0xC1, 0xF0, 0x07, 0xC3, 0xFF, 0x80, 0x01, 0xFF, 0xE3, 0xF0, 
.................... 0x03, 0xE3, 0xFF, 0x80, 0x01, 0xFF, 0xE7, 0xE0, 0x03, 0xF7, 0xFF, 0x80, 0x00, 0xFF, 0xEF, 0xC0, 
.................... 0x01, 0xFF, 0xFF, 0x80, 0x00, 0xFF, 0xFF, 0x80, 0x00, 0xFF, 0xFF, 0x00, 0x00, 0xFF, 0xFF, 0x80, 
.................... 0x00, 0x7F, 0xFF, 0x00, 0x00, 0xFF, 0xFF, 0x00, 0x00, 0x3F, 0xFF, 0x00, 0x00, 0xFF, 0xFE, 0x00, 
.................... 0x00, 0x1F, 0xFF, 0x00, 0x00, 0x7F, 0xF8, 0x00, 0x00, 0x0F, 0xFE, 0x00, 0x00, 0x7F, 0xF0, 0x00, 
.................... 0x00, 0x03, 0xFF, 0x00, 0x00, 0x7F, 0xE0, 0x00, 0x00, 0x00, 0xFF, 0xFC, 0x1F, 0xFF, 0x80, 0x00, 
.................... 0x00, 0x00, 0x7F, 0xFF, 0xFF, 0xFE, 0x00, 0x00, 0x00, 0x00, 0x0F, 0xFF, 0xFF, 0xF8, 0x00, 0x00, 
.................... 0x00, 0x00, 0x01, 0xFF, 0xFF, 0xC0, 0x00, 0x00, 0x00, 0x00, 0x00, 0x0F, 0xF0, 0x00, 0x00, 0x00 
.................... }; 
....................  
....................  
.................... void GLCD_XUAT_ANH(int width,int height,int x,int y)  
.................... {  
....................    unsigned int i=0, j=0, k=0;  
....................    unsigned int16 count=0;  
....................    for(j=0;j<height;j++)  
....................       {     
....................          for(;i<width;)  
....................          {  
....................             for(k=8;k>0;k--) 
....................             { 
....................                glcd_pixel(i+x,j+y,bit_test(Logo_DHSPKTTP[count],(k-1)));  
....................                i++;  
....................             }  
....................             count++;  
....................          }  
....................       i=0;  
....................       }  
.................... }  
....................  
.................... #INCLUDE <GRAPHICS.C> 
.................... ///////////////////////////////////////////////////////////////////////// 
.................... ////                          graphics.c                             //// 
.................... ////                                                                 //// 
.................... ////   This file contains functions to draw lines, rectangles, bars, //// 
.................... ////   circles and text to a display. A function which draws a       //// 
.................... ////   single pixel must be defined before calling the functions in  //// 
.................... ////   this file. Call it glcd_pixel(x, y, color) where x is the     //// 
.................... ////   horizontal coordinate, y is the vertical coordinate, and      //// 
.................... ////   color is 1 bit to turn the pixel on or off.                   //// 
.................... ////                                                                 //// 
.................... ////   * Note: (0, 0) is treated as the upper left corner            //// 
.................... ////                                                                 //// 
.................... ///////////////////////////////////////////////////////////////////////// 
.................... ////                                                                 //// 
.................... ////  glcd_line(x1, y1, x2, y2, color)                               //// 
.................... ////     * Draws a line from the first point to the second point     //// 
.................... ////       with the given color                                      //// 
.................... ////       - color can be ON or OFF                                  //// 
.................... ////                                                                 //// 
.................... ////  glcd_rect(x1, y1, x2, y2, fill, color)                         //// 
.................... ////     * Draws a rectangle with one corner at point (x1,y1) and    //// 
.................... ////       the other corner at point (x2,y2)                         //// 
.................... ////       - fill can be YES or NO                                   //// 
.................... ////       - color can be ON or OFF                                  //// 
.................... ////                                                                 //// 
.................... ////  glcd_bar(x1, y1, x2, y2, width, color)                         //// 
.................... ////     * Draws a bar (wide line) from the first point to the       //// 
.................... ////       second point                                              //// 
.................... ////       - width is the number of pixels wide                      //// 
.................... ////       - color is ON or OFF                                      //// 
.................... ////                                                                 //// 
.................... ////  glcd_circle(x, y, radius, fill, color)                         //// 
.................... ////     * Draws a circle with center at (x,y)                       //// 
.................... ////       - fill can be YES or NO                                   //// 
.................... ////       - color can be ON or OFF                                  //// 
.................... ////                                                                 //// 
.................... ////  glcd_text57(x, y, textptr, size, color)                        //// 
.................... ////     * Write the null terminated text pointed to by textptr with //// 
.................... ////       the upper left coordinate of the first character at (x,y) //// 
.................... ////       Characters are 5 pixels wide and 7 pixels tall            //// 
.................... ////       - size is an integer that scales the size of the text     //// 
.................... ////       - color is ON or OFF                                      //// 
.................... ////     * Note - This function wraps characters to the next line    //// 
.................... ////              use #define GLCD_WIDTH to specify a display width  //// 
.................... ////                                                                 //// 
.................... ///////////////////////////////////////////////////////////////////////// 
.................... ////        (C) Copyright 1996, 2010 Custom Computer Services        //// 
.................... //// This source code may only be used by licensed users of the CCS  //// 
.................... //// C compiler.  This source code may only be distributed to other  //// 
.................... //// licensed users of the CCS C compiler.  No other use,            //// 
.................... //// reproduction or distribution is permitted without written       //// 
.................... //// permission.  Derivative programs created using this software    //// 
.................... //// in object code form are not restricted in any way.              //// 
.................... ///////////////////////////////////////////////////////////////////////// 
....................  
....................  
.................... ///////////////////////////////////////////////////////////////////////// 
.................... #ifndef GRAPHICS_DRAWING_FUNCTIONS 
.................... #define GRAPHICS_DRAWING_FUNCTIONS 
.................... ///////////////////////////////////////////////////////////////////////// 
....................  
....................  
.................... ///////////////////////////////////////////////////////////////////////// 
.................... #ifndef ON 
.................... #define ON  1 
.................... #endif 
....................  
.................... #ifndef OFF 
.................... #define OFF 0 
.................... #endif 
....................  
.................... #ifndef YES 
.................... #define YES 1 
.................... #endif 
....................  
.................... #ifndef NO 
.................... #define NO  0 
.................... #endif 
.................... ///////////////////////////////////////////////////////////////////////// 
....................  
....................  
.................... ///////////////////////////////////////////////////////////////////////// 
.................... //// Defines a 5x7 font 
.................... ///////////////////////////////////////////////////////////////////////// 
.................... const unsigned int8 FONT[51][5] ={0x00, 0x00, 0x00, 0x00, 0x00, // SPACE 
....................                          0x00, 0x00, 0x5F, 0x00, 0x00, // ! 
....................                          0x00, 0x03, 0x00, 0x03, 0x00, // " 
....................                          0x14, 0x3E, 0x14, 0x3E, 0x14, // # 
....................                          0x24, 0x2A, 0x7F, 0x2A, 0x12, // $ 
....................                          0x43, 0x33, 0x08, 0x66, 0x61, // % 
....................                          0x36, 0x49, 0x55, 0x22, 0x50, // & 
....................                          0x00, 0x05, 0x03, 0x00, 0x00, // ' 
....................                          0x00, 0x1C, 0x22, 0x41, 0x00, // ( 
....................                          0x00, 0x41, 0x22, 0x1C, 0x00, // ) 
....................                          0x14, 0x08, 0x3E, 0x08, 0x14, // * 
....................                          0x08, 0x08, 0x3E, 0x08, 0x08, // + 
....................                          0x00, 0x50, 0x30, 0x00, 0x00, // , 
....................                          0x08, 0x08, 0x08, 0x08, 0x08, // - 
....................                          0x00, 0x60, 0x60, 0x00, 0x00, // . 
....................                          0x20, 0x10, 0x08, 0x04, 0x02, // / 
....................                          0x3E, 0x51, 0x49, 0x45, 0x3E, // 0 
....................                          0x00, 0x04, 0x02, 0x7F, 0x00, // 1 
....................                          0x42, 0x61, 0x51, 0x49, 0x46, // 2 
....................                          0x22, 0x41, 0x49, 0x49, 0x36, // 3 
....................                          0x18, 0x14, 0x12, 0x7F, 0x10, // 4 
....................                          0x27, 0x45, 0x45, 0x45, 0x39, // 5 
....................                          0x3E, 0x49, 0x49, 0x49, 0x32, // 6 
....................                          0x01, 0x01, 0x71, 0x09, 0x07, // 7 
....................                          0x36, 0x49, 0x49, 0x49, 0x36, // 8 
....................                          0x26, 0x49, 0x49, 0x49, 0x3E, // 9 
....................                          0x00, 0x36, 0x36, 0x00, 0x00, // : 
....................                          0x00, 0x56, 0x36, 0x00, 0x00, // ; 
....................                          0x08, 0x14, 0x22, 0x41, 0x00, // < 
....................                          0x14, 0x14, 0x14, 0x14, 0x14, // = 
....................                          0x00, 0x41, 0x22, 0x14, 0x08, // > 
....................                          0x02, 0x01, 0x51, 0x09, 0x06, // ? 
....................                          0x3E, 0x41, 0x59, 0x55, 0x5E, // @ 
....................                          0x7E, 0x09, 0x09, 0x09, 0x7E, // A 
....................                          0x7F, 0x49, 0x49, 0x49, 0x36, // B 
....................                          0x3E, 0x41, 0x41, 0x41, 0x22, // C 
....................                          0x7F, 0x41, 0x41, 0x41, 0x3E, // D 
....................                          0x7F, 0x49, 0x49, 0x49, 0x41, // E 
....................                          0x7F, 0x09, 0x09, 0x09, 0x01, // F 
....................                          0x3E, 0x41, 0x41, 0x49, 0x3A, // G 
....................                          0x7F, 0x08, 0x08, 0x08, 0x7F, // H 
....................                          0x00, 0x41, 0x7F, 0x41, 0x00, // I 
....................                          0x30, 0x40, 0x40, 0x40, 0x3F, // J 
....................                          0x7F, 0x08, 0x14, 0x22, 0x41, // K 
....................                          0x7F, 0x40, 0x40, 0x40, 0x40, // L 
....................                          0x7F, 0x02, 0x0C, 0x02, 0x7F, // M 
....................                          0x7F, 0x02, 0x04, 0x08, 0x7F, // N 
....................                          0x3E, 0x41, 0x41, 0x41, 0x3E, // O 
....................                          0x7F, 0x09, 0x09, 0x09, 0x06, // P 
....................                          0x1E, 0x21, 0x21, 0x21, 0x5E, // Q 
....................                          0x7F, 0x09, 0x09, 0x09, 0x76};// R 
....................  
.................... const unsigned int8 FONT2[44][5]={0x26, 0x49, 0x49, 0x49, 0x32, // S 
....................                          0x01, 0x01, 0x7F, 0x01, 0x01, // T 
....................                          0x3F, 0x40, 0x40, 0x40, 0x3F, // U 
....................                          0x1F, 0x20, 0x40, 0x20, 0x1F, // V 
....................                          0x7F, 0x20, 0x10, 0x20, 0x7F, // W 
....................                          0x41, 0x22, 0x1C, 0x22, 0x41, // X 
....................                          0x07, 0x08, 0x70, 0x08, 0x07, // Y 
....................                          0x61, 0x51, 0x49, 0x45, 0x43, // Z 
....................                          0x00, 0x7F, 0x41, 0x00, 0x00, // [ 
....................                          0x02, 0x04, 0x08, 0x10, 0x20, // \ 
....................                          0x00, 0x00, 0x41, 0x7F, 0x00, // ] 
....................                          0x04, 0x02, 0x01, 0x02, 0x04, // ^ 
....................                          0x40, 0x40, 0x40, 0x40, 0x40, // _ 
....................                          0x00, 0x01, 0x02, 0x04, 0x00, // ` 
....................                          0x20, 0x54, 0x54, 0x54, 0x78, // a 
....................                          0x7F, 0x44, 0x44, 0x44, 0x38, // b 
....................                          0x38, 0x44, 0x44, 0x44, 0x44, // c 
....................                          0x38, 0x44, 0x44, 0x44, 0x7F, // d 
....................                          0x38, 0x54, 0x54, 0x54, 0x18, // e 
....................                          0x04, 0x04, 0x7E, 0x05, 0x05, // f 
....................                          0x08, 0x54, 0x54, 0x54, 0x3C, // g 
....................                          0x7F, 0x08, 0x04, 0x04, 0x78, // h 
....................                          0x00, 0x44, 0x7D, 0x40, 0x00, // i 
....................                          0x20, 0x40, 0x44, 0x3D, 0x00, // j 
....................                          0x7F, 0x10, 0x28, 0x44, 0x00, // k 
....................                          0x00, 0x41, 0x7F, 0x40, 0x00, // l 
....................                          0x7C, 0x04, 0x78, 0x04, 0x78, // m 
....................                          0x7C, 0x08, 0x04, 0x04, 0x78, // n 
....................                          0x38, 0x44, 0x44, 0x44, 0x38, // o 
....................                          0x7C, 0x14, 0x14, 0x14, 0x08, // p 
....................                          0x08, 0x14, 0x14, 0x14, 0x7C, // q 
....................                          0x00, 0x7C, 0x08, 0x04, 0x04, // r 
....................                          0x48, 0x54, 0x54, 0x54, 0x20, // s 
....................                          0x04, 0x04, 0x3F, 0x44, 0x44, // t 
....................                          0x3C, 0x40, 0x40, 0x20, 0x7C, // u 
....................                          0x1C, 0x20, 0x40, 0x20, 0x1C, // v 
....................                          0x3C, 0x40, 0x30, 0x40, 0x3C, // w 
....................                          0x44, 0x28, 0x10, 0x28, 0x44, // x 
....................                          0x0C, 0x50, 0x50, 0x50, 0x3C, // y 
....................                          0x44, 0x64, 0x54, 0x4C, 0x44, // z 
....................                          0x00, 0x08, 0x36, 0x41, 0x41, // { 
....................                          0x00, 0x00, 0x7F, 0x00, 0x00, // | 
....................                          0x41, 0x41, 0x36, 0x08, 0x00, // } 
....................                          0x02, 0x01, 0x02, 0x04, 0x02};// ~ 
.................... ///////////////////////////////////////////////////////////////////////// 
....................  
....................  
.................... ///////////////////////////////////////////////////////////////////////// 
.................... // Purpose:       Draw a line on a graphic LCD using Bresenham's 
.................... //                line drawing algorithm 
.................... // Inputs:        (x1, y1) - the start coordinate 
.................... //                (x2, y2) - the end coordinate 
.................... //                color - ON or OFF 
.................... // Dependencies:  glcd_pixel() 
.................... ///////////////////////////////////////////////////////////////////////// 
.................... #ifdef LARGE_LCD 
.................... void glcd_line(unsigned int16 x1, unsigned int16 y1, unsigned int16 x2, iunsigned nt16 y2, int1 color) 
.................... #else 
.................... void glcd_line(unsigned int8 x1, unsigned int8 y1, unsigned int8 x2, unsigned int8 y2, int1 color) 
.................... #endif 
*
081E:  MOVLW  01
0820:  MOVLB  4
0822:  MOVWF  x95
0824:  MOVWF  x96
0826:  CLRF   x9B
.................... { 
....................    unsigned int16        dy, dx; 
....................    signed int8  addx=1, addy=1; 
....................    signed int16 P, diff; 
....................  
....................    #ifdef LARGE_LCD 
....................    unsigned int16 i=0; 
....................    dx = abs((signed int16)(x2 - x1)); 
....................    dy = abs((signed int16)(y2 - y1)); 
....................    #else 
....................    unsigned int8 i=0; 
....................    dx = abs((signed int8)(x2 - x1)); 
0828:  MOVF   x8C,W
082A:  SUBWF  x8E,W
082C:  MOVWF  x9C
082E:  MOVF   x9C,W
0830:  BTFSS  x9C.7
0832:  BRA    083A
0834:  MOVLW  00
0836:  BSF    FD8.0
0838:  SUBFWB x9C,W
083A:  CLRF   03
083C:  MOVWF  x93
083E:  MOVFF  03,494
....................    dy = abs((signed int8)(y2 - y1)); 
0842:  MOVF   x8D,W
0844:  SUBWF  x8F,W
0846:  MOVWF  x9C
0848:  MOVF   x9C,W
084A:  BTFSS  x9C.7
084C:  BRA    0854
084E:  MOVLW  00
0850:  BSF    FD8.0
0852:  SUBFWB x9C,W
0854:  CLRF   03
0856:  MOVWF  x91
0858:  MOVFF  03,492
....................    #endif 
....................  
....................    if(x1 > x2) 
085C:  MOVF   x8C,W
085E:  SUBWF  x8E,W
0860:  BC    0864
....................       addx = -1; 
0862:  SETF   x95
....................    if(y1 > y2) 
0864:  MOVF   x8D,W
0866:  SUBWF  x8F,W
0868:  BC    086C
....................       addy = -1; 
086A:  SETF   x96
....................  
....................    if(dx >= dy) 
086C:  MOVF   x92,W
086E:  SUBWF  x94,W
0870:  BNC   08E6
0872:  BNZ   087A
0874:  MOVF   x91,W
0876:  SUBWF  x93,W
0878:  BNC   08E6
....................    { 
....................       dy *= 2; 
087A:  BCF    FD8.0
087C:  RLCF   x91,F
087E:  RLCF   x92,F
....................       P = dy - dx; 
0880:  MOVF   x93,W
0882:  SUBWF  x91,W
0884:  MOVWF  00
0886:  MOVF   x94,W
0888:  SUBWFB x92,W
088A:  MOVFF  00,497
088E:  MOVWF  x98
....................       diff = P - dx; 
0890:  MOVF   x93,W
0892:  SUBWF  x97,W
0894:  MOVWF  x99
0896:  MOVF   x94,W
0898:  SUBWFB x98,W
089A:  MOVWF  x9A
....................  
....................       for(; i<=dx; ++i) 
089C:  MOVF   x94,F
089E:  BNZ   08A6
08A0:  MOVF   x9B,W
08A2:  SUBWF  x93,W
08A4:  BNC   08E4
....................       { 
....................          glcd_pixel(x1, y1, color); 
08A6:  MOVFF  48C,49C
08AA:  MOVFF  48D,49D
08AE:  MOVFF  490,49E
08B2:  MOVLB  0
08B4:  RCALL  0706
....................  
....................          if(P < 0) 
08B6:  MOVLB  4
08B8:  BTFSS  x98.7
08BA:  BRA    08CC
....................          { 
....................             P  += dy; 
08BC:  MOVF   x91,W
08BE:  ADDWF  x97,F
08C0:  MOVF   x92,W
08C2:  ADDWFC x98,F
....................             x1 += addx; 
08C4:  MOVF   x95,W
08C6:  ADDWF  x8C,W
08C8:  MOVWF  x8C
....................          } 
08CA:  BRA    08E0
....................          else 
....................          { 
....................             P  += diff; 
08CC:  MOVF   x99,W
08CE:  ADDWF  x97,F
08D0:  MOVF   x9A,W
08D2:  ADDWFC x98,F
....................             x1 += addx; 
08D4:  MOVF   x95,W
08D6:  ADDWF  x8C,W
08D8:  MOVWF  x8C
....................             y1 += addy; 
08DA:  MOVF   x96,W
08DC:  ADDWF  x8D,W
08DE:  MOVWF  x8D
....................          } 
08E0:  INCF   x9B,F
08E2:  BRA    089C
....................       } 
....................    } 
08E4:  BRA    0950
....................    else 
....................    { 
....................       dx *= 2; 
08E6:  BCF    FD8.0
08E8:  RLCF   x93,F
08EA:  RLCF   x94,F
....................       P = dx - dy; 
08EC:  MOVF   x91,W
08EE:  SUBWF  x93,W
08F0:  MOVWF  00
08F2:  MOVF   x92,W
08F4:  SUBWFB x94,W
08F6:  MOVFF  00,497
08FA:  MOVWF  x98
....................       diff = P - dy; 
08FC:  MOVF   x91,W
08FE:  SUBWF  x97,W
0900:  MOVWF  x99
0902:  MOVF   x92,W
0904:  SUBWFB x98,W
0906:  MOVWF  x9A
....................  
....................       for(; i<=dy; ++i) 
0908:  MOVF   x92,F
090A:  BNZ   0912
090C:  MOVF   x9B,W
090E:  SUBWF  x91,W
0910:  BNC   0950
....................       { 
....................          glcd_pixel(x1, y1, color); 
0912:  MOVFF  48C,49C
0916:  MOVFF  48D,49D
091A:  MOVFF  490,49E
091E:  MOVLB  0
0920:  RCALL  0706
....................  
....................          if(P < 0) 
0922:  MOVLB  4
0924:  BTFSS  x98.7
0926:  BRA    0938
....................          { 
....................             P  += dx; 
0928:  MOVF   x93,W
092A:  ADDWF  x97,F
092C:  MOVF   x94,W
092E:  ADDWFC x98,F
....................             y1 += addy; 
0930:  MOVF   x96,W
0932:  ADDWF  x8D,W
0934:  MOVWF  x8D
....................          } 
0936:  BRA    094C
....................          else 
....................          { 
....................             P  += diff; 
0938:  MOVF   x99,W
093A:  ADDWF  x97,F
093C:  MOVF   x9A,W
093E:  ADDWFC x98,F
....................             x1 += addx; 
0940:  MOVF   x95,W
0942:  ADDWF  x8C,W
0944:  MOVWF  x8C
....................             y1 += addy; 
0946:  MOVF   x96,W
0948:  ADDWF  x8D,W
094A:  MOVWF  x8D
....................          } 
094C:  INCF   x9B,F
094E:  BRA    0908
....................       } 
....................    } 
0950:  MOVLB  0
0952:  RETURN 0
.................... } 
....................  
....................  
.................... ///////////////////////////////////////////////////////////////////////// 
.................... // Purpose:       Draw a rectangle on a graphic LCD 
.................... // Inputs:        (x1, y1) - the start coordinate 
.................... //                (x2, y2) - the end coordinate 
.................... //                fill  - YES or NO 
.................... //                color - ON or OFF 
.................... // Dependencies:  glcd_pixel(), glcd_line() 
.................... ///////////////////////////////////////////////////////////////////////// 
.................... #ifdef LARGE_LCD 
.................... void glcd_rect(unsigned int16 x1, unsigned int16 y1, unsigned int16 x2, unsigned int16 y2, int1 fill, int1 color) 
.................... #else 
.................... void glcd_rect(unsigned int8 x1, unsigned int8 y1, unsigned int8 x2, unsigned int8 y2, int1 fill, int1 color) 
.................... #endif 
.................... { 
....................    if(fill) 
*
0B64:  MOVLB  4
0B66:  MOVF   x84,F
0B68:  BZ    0BC6
....................    { 
....................       #ifdef LARGE_LCD 
....................       unsigned int16 i, xmin, xmax, ymin, ymax; 
....................       #else 
....................       unsigned int8  i, xmin, xmax, ymin, ymax; 
....................       #endif 
....................  
....................       if(x1 < x2)                            //  Find x min and max 
0B6A:  MOVF   x82,W
0B6C:  SUBWF  x80,W
0B6E:  BC    0B7A
....................       { 
....................          xmin = x1; 
0B70:  MOVFF  480,487
....................          xmax = x2; 
0B74:  MOVFF  482,488
....................       } 
0B78:  BRA    0B82
....................       else 
....................       { 
....................          xmin = x2; 
0B7A:  MOVFF  482,487
....................          xmax = x1; 
0B7E:  MOVFF  480,488
....................       } 
....................  
....................       if(y1 < y2)                            // Find the y min and max 
0B82:  MOVF   x83,W
0B84:  SUBWF  x81,W
0B86:  BC    0B92
....................       { 
....................          ymin = y1; 
0B88:  MOVFF  481,489
....................          ymax = y2; 
0B8C:  MOVFF  483,48A
....................       } 
0B90:  BRA    0B9A
....................       else 
....................       { 
....................          ymin = y2; 
0B92:  MOVFF  483,489
....................          ymax = y1; 
0B96:  MOVFF  481,48A
....................       } 
....................  
....................       for(; xmin <= xmax; ++xmin) 
0B9A:  MOVF   x87,W
0B9C:  SUBWF  x88,W
0B9E:  BNC   0BC4
....................       { 
....................          for(i=ymin; i<=ymax; ++i) 
0BA0:  MOVFF  489,486
0BA4:  MOVF   x86,W
0BA6:  SUBWF  x8A,W
0BA8:  BNC   0BC0
....................          { 
....................             glcd_pixel(xmin, i, color); 
0BAA:  MOVFF  487,49C
0BAE:  MOVFF  486,49D
0BB2:  MOVFF  485,49E
0BB6:  MOVLB  0
0BB8:  RCALL  0706
0BBA:  MOVLB  4
0BBC:  INCF   x86,F
0BBE:  BRA    0BA4
....................          } 
0BC0:  INCF   x87,F
0BC2:  BRA    0B9A
....................       } 
....................    } 
0BC4:  BRA    0C22
....................    else 
....................    { 
....................       glcd_line(x1, y1, x2, y1, color);      // Draw the 4 sides 
0BC6:  MOVFF  480,48C
0BCA:  MOVFF  481,48D
0BCE:  MOVFF  482,48E
0BD2:  MOVFF  481,48F
0BD6:  MOVFF  485,490
0BDA:  MOVLB  0
0BDC:  RCALL  081E
....................       glcd_line(x1, y2, x2, y2, color); 
0BDE:  MOVFF  480,48C
0BE2:  MOVFF  483,48D
0BE6:  MOVFF  482,48E
0BEA:  MOVFF  483,48F
0BEE:  MOVFF  485,490
0BF2:  RCALL  081E
....................       glcd_line(x1, y1, x1, y2, color); 
0BF4:  MOVFF  480,48C
0BF8:  MOVFF  481,48D
0BFC:  MOVFF  480,48E
0C00:  MOVFF  483,48F
0C04:  MOVFF  485,490
0C08:  RCALL  081E
....................       glcd_line(x2, y1, x2, y2, color); 
0C0A:  MOVFF  482,48C
0C0E:  MOVFF  481,48D
0C12:  MOVFF  482,48E
0C16:  MOVFF  483,48F
0C1A:  MOVFF  485,490
0C1E:  RCALL  081E
0C20:  MOVLB  4
....................    } 
0C22:  MOVLB  0
0C24:  RETURN 0
.................... } 
....................  
.................... ///////////////////////////////////////////////////////////////////////// 
.................... // Purpose:       Draw a bar (wide line) on a graphic LCD 
.................... // Inputs:        (x1, y1) - the start coordinate 
.................... //                (x2, y2) - the end coordinate 
.................... //                width  - The number of pixels wide 
.................... //                color - ON or OFF 
.................... ///////////////////////////////////////////////////////////////////////// 
.................... #ifdef LARGE_LCD 
.................... void glcd_bar(unsigned int16 x1, unsigned int16 y1, unsigned int16 x2, unsigned int16 y2, unsigned int8 width, int1 color) 
.................... #else 
.................... void glcd_bar(unsigned int8 x1, unsigned int8 y1, unsigned int8 x2, unsigned int8 y2, unsigned int8 width, int1 color) 
.................... #endif 
.................... { 
....................    unsigned int8         half_width; 
....................    signed int16 dy, dx; 
....................    signed int8  addx=1, addy=1, j; 
....................    signed int16 P, diff, c1, c2; 
....................  
....................    #ifdef LARGE_LCD 
....................    unsigned int16 i=0; 
....................    dx = abs((signed int16)(x2 - x1)); 
....................    dy = abs((signed int16)(y2 - y1)); 
....................    #else 
....................    unsigned int8 i=0; 
....................    dx = abs((signed int8)(x2 - x1)); 
....................    dy = abs((signed int8)(y2 - y1)); 
....................    #endif 
....................  
....................    half_width = width/2; 
....................    c1 = -(dx*x1 + dy*y1); 
....................    c2 = -(dx*x2 + dy*y2); 
....................  
....................    if(x1 > x2) 
....................    { 
....................       signed int16 temp; 
....................       temp = c1; 
....................       c1 = c2; 
....................       c2 = temp; 
....................       addx = -1; 
....................    } 
....................    if(y1 > y2) 
....................    { 
....................       signed int16 temp; 
....................       temp = c1; 
....................       c1 = c2; 
....................       c2 = temp; 
....................       addy = -1; 
....................    } 
....................  
....................    if(dx >= dy) 
....................    { 
....................       P = 2*dy - dx; 
....................       diff = P - dx; 
....................  
....................       for(i=0; i<=dx; ++i) 
....................       { 
....................          for(j=-half_width; j<half_width+width%2; ++j) 
....................          { 
....................                glcd_pixel(x1, y1+j, color); 
....................          } 
....................          if(P < 0) 
....................          { 
....................             P  += 2*dy; 
....................             x1 += addx; 
....................          } 
....................          else 
....................          { 
....................             P  += diff; 
....................             x1 += addx; 
....................             y1 += addy; 
....................          } 
....................       } 
....................    } 
....................    else 
....................    { 
....................       P = 2*dx - dy; 
....................       diff = P - dy; 
....................  
....................       for(i=0; i<=dy; ++i) 
....................       { 
....................          if(P < 0) 
....................          { 
....................             P  += 2*dx; 
....................             y1 += addy; 
....................          } 
....................          else 
....................          { 
....................             P  += diff; 
....................             x1 += addx; 
....................             y1 += addy; 
....................          } 
....................          for(j=-half_width; j<half_width+width%2; ++j) 
....................          { 
....................                glcd_pixel(x1+j, y1, color); 
....................          } 
....................       } 
....................    } 
.................... } 
....................  
....................  
.................... ///////////////////////////////////////////////////////////////////////// 
.................... // Purpose:       Draw a circle on a graphic LCD 
.................... // Inputs:        (x,y) - the center of the circle 
.................... //                radius - the radius of the circle 
.................... //                fill - YES or NO 
.................... //                color - ON or OFF 
.................... ///////////////////////////////////////////////////////////////////////// 
.................... #ifdef LARGE_LCD 
.................... void glcd_circle(unsigned int16 x, unsigned int16 y, unsigned int16 radius, int1 fill, int1 color) 
.................... #else 
.................... void glcd_circle(unsigned int8 x, unsigned int8 y, unsigned int8 radius, int1 fill, int1 color) 
.................... #endif 
.................... { 
....................    #ifdef LARGE_LCD 
....................    signed int16 a, b, P; 
....................    #else 
....................    signed int8  a, b, P; 
....................    #endif 
....................  
....................    a = 0; 
*
0954:  MOVLB  4
0956:  CLRF   x85
....................    b = radius; 
0958:  MOVFF  482,486
....................    P = 1 - radius; 
095C:  MOVLW  01
095E:  BSF    FD8.0
0960:  SUBFWB x82,W
0962:  MOVWF  x87
....................  
....................    do 
....................    { 
....................       if(fill) 
0964:  MOVF   x83,F
0966:  BZ    0A2A
....................       { 
....................          glcd_line(x-a, y+b, x+a, y+b, color); 
0968:  MOVF   x85,W
096A:  SUBWF  x80,W
096C:  MOVWF  x88
096E:  MOVF   x86,W
0970:  ADDWF  x81,W
0972:  MOVWF  x89
0974:  MOVF   x85,W
0976:  ADDWF  x80,W
0978:  MOVWF  x8A
097A:  MOVF   x86,W
097C:  ADDWF  x81,W
097E:  MOVWF  x8B
0980:  MOVFF  488,48C
0984:  MOVFF  489,48D
0988:  MOVFF  48A,48E
098C:  MOVWF  x8F
098E:  MOVFF  484,490
0992:  MOVLB  0
0994:  RCALL  081E
....................          glcd_line(x-a, y-b, x+a, y-b, color); 
0996:  MOVLB  4
0998:  MOVF   x85,W
099A:  SUBWF  x80,W
099C:  MOVWF  x88
099E:  MOVF   x86,W
09A0:  SUBWF  x81,W
09A2:  MOVWF  x89
09A4:  MOVF   x85,W
09A6:  ADDWF  x80,W
09A8:  MOVWF  x8A
09AA:  MOVF   x86,W
09AC:  SUBWF  x81,W
09AE:  MOVWF  x8B
09B0:  MOVFF  488,48C
09B4:  MOVFF  489,48D
09B8:  MOVFF  48A,48E
09BC:  MOVWF  x8F
09BE:  MOVFF  484,490
09C2:  MOVLB  0
09C4:  RCALL  081E
....................          glcd_line(x-b, y+a, x+b, y+a, color); 
09C6:  MOVLB  4
09C8:  MOVF   x86,W
09CA:  SUBWF  x80,W
09CC:  MOVWF  x88
09CE:  MOVF   x85,W
09D0:  ADDWF  x81,W
09D2:  MOVWF  x89
09D4:  MOVF   x86,W
09D6:  ADDWF  x80,W
09D8:  MOVWF  x8A
09DA:  MOVF   x85,W
09DC:  ADDWF  x81,W
09DE:  MOVWF  x8B
09E0:  MOVFF  488,48C
09E4:  MOVFF  489,48D
09E8:  MOVFF  48A,48E
09EC:  MOVWF  x8F
09EE:  MOVFF  484,490
09F2:  MOVLB  0
09F4:  RCALL  081E
....................          glcd_line(x-b, y-a, x+b, y-a, color); 
09F6:  MOVLB  4
09F8:  MOVF   x86,W
09FA:  SUBWF  x80,W
09FC:  MOVWF  x88
09FE:  MOVF   x85,W
0A00:  SUBWF  x81,W
0A02:  MOVWF  x89
0A04:  MOVF   x86,W
0A06:  ADDWF  x80,W
0A08:  MOVWF  x8A
0A0A:  MOVF   x85,W
0A0C:  SUBWF  x81,W
0A0E:  MOVWF  x8B
0A10:  MOVFF  488,48C
0A14:  MOVFF  489,48D
0A18:  MOVFF  48A,48E
0A1C:  MOVWF  x8F
0A1E:  MOVFF  484,490
0A22:  MOVLB  0
0A24:  RCALL  081E
....................       } 
0A26:  BRA    0B08
0A28:  MOVLB  4
....................       else 
....................       { 
....................          glcd_pixel(a+x, b+y, color); 
0A2A:  MOVF   x80,W
0A2C:  ADDWF  x85,W
0A2E:  MOVWF  x88
0A30:  MOVF   x81,W
0A32:  ADDWF  x86,W
0A34:  MOVWF  x89
0A36:  MOVFF  488,49C
0A3A:  MOVWF  x9D
0A3C:  MOVFF  484,49E
0A40:  MOVLB  0
0A42:  RCALL  0706
....................          glcd_pixel(b+x, a+y, color); 
0A44:  MOVLB  4
0A46:  MOVF   x80,W
0A48:  ADDWF  x86,W
0A4A:  MOVWF  x88
0A4C:  MOVF   x81,W
0A4E:  ADDWF  x85,W
0A50:  MOVWF  x89
0A52:  MOVFF  488,49C
0A56:  MOVWF  x9D
0A58:  MOVFF  484,49E
0A5C:  MOVLB  0
0A5E:  RCALL  0706
....................          glcd_pixel(x-a, b+y, color); 
0A60:  MOVLB  4
0A62:  MOVF   x85,W
0A64:  SUBWF  x80,W
0A66:  MOVWF  x88
0A68:  MOVF   x81,W
0A6A:  ADDWF  x86,W
0A6C:  MOVWF  x89
0A6E:  MOVFF  488,49C
0A72:  MOVWF  x9D
0A74:  MOVFF  484,49E
0A78:  MOVLB  0
0A7A:  RCALL  0706
....................          glcd_pixel(x-b, a+y, color); 
0A7C:  MOVLB  4
0A7E:  MOVF   x86,W
0A80:  SUBWF  x80,W
0A82:  MOVWF  x88
0A84:  MOVF   x81,W
0A86:  ADDWF  x85,W
0A88:  MOVWF  x89
0A8A:  MOVFF  488,49C
0A8E:  MOVWF  x9D
0A90:  MOVFF  484,49E
0A94:  MOVLB  0
0A96:  RCALL  0706
....................          glcd_pixel(b+x, y-a, color); 
0A98:  MOVLB  4
0A9A:  MOVF   x80,W
0A9C:  ADDWF  x86,W
0A9E:  MOVWF  x88
0AA0:  MOVF   x85,W
0AA2:  SUBWF  x81,W
0AA4:  MOVWF  x89
0AA6:  MOVFF  488,49C
0AAA:  MOVWF  x9D
0AAC:  MOVFF  484,49E
0AB0:  MOVLB  0
0AB2:  RCALL  0706
....................          glcd_pixel(a+x, y-b, color); 
0AB4:  MOVLB  4
0AB6:  MOVF   x80,W
0AB8:  ADDWF  x85,W
0ABA:  MOVWF  x88
0ABC:  MOVF   x86,W
0ABE:  SUBWF  x81,W
0AC0:  MOVWF  x89
0AC2:  MOVFF  488,49C
0AC6:  MOVWF  x9D
0AC8:  MOVFF  484,49E
0ACC:  MOVLB  0
0ACE:  RCALL  0706
....................          glcd_pixel(x-a, y-b, color); 
0AD0:  MOVLB  4
0AD2:  MOVF   x85,W
0AD4:  SUBWF  x80,W
0AD6:  MOVWF  x88
0AD8:  MOVF   x86,W
0ADA:  SUBWF  x81,W
0ADC:  MOVWF  x89
0ADE:  MOVFF  488,49C
0AE2:  MOVWF  x9D
0AE4:  MOVFF  484,49E
0AE8:  MOVLB  0
0AEA:  RCALL  0706
....................          glcd_pixel(x-b, y-a, color); 
0AEC:  MOVLB  4
0AEE:  MOVF   x86,W
0AF0:  SUBWF  x80,W
0AF2:  MOVWF  x88
0AF4:  MOVF   x85,W
0AF6:  SUBWF  x81,W
0AF8:  MOVWF  x89
0AFA:  MOVFF  488,49C
0AFE:  MOVWF  x9D
0B00:  MOVFF  484,49E
0B04:  MOVLB  0
0B06:  RCALL  0706
....................       } 
....................  
....................       if(P < 0) 
0B08:  MOVLB  4
0B0A:  BTFSS  x87.7
0B0C:  BRA    0B2A
....................          P += 3 + 2 * a++; 
0B0E:  MOVF   x85,W
0B10:  INCF   x85,F
0B12:  MOVWF  x88
0B14:  MOVLW  02
0B16:  MOVWF  x89
0B18:  MOVFF  488,48A
0B1C:  MOVLB  0
0B1E:  RCALL  04CE
0B20:  MOVF   01,W
0B22:  ADDLW  03
0B24:  MOVLB  4
0B26:  ADDWF  x87,F
0B28:  BRA    0B4C
....................       else 
....................          P += 5 + 2 * (a++ - b--); 
0B2A:  MOVF   x85,W
0B2C:  INCF   x85,F
0B2E:  MOVWF  x88
0B30:  MOVF   x86,W
0B32:  DECF   x86,F
0B34:  SUBWF  x88,W
0B36:  MOVWF  x88
0B38:  MOVLW  02
0B3A:  MOVWF  x89
0B3C:  MOVFF  488,48A
0B40:  MOVLB  0
0B42:  RCALL  04CE
0B44:  MOVF   01,W
0B46:  ADDLW  05
0B48:  MOVLB  4
0B4A:  ADDWF  x87,F
....................     } while(a <= b); 
0B4C:  MOVF   x85,W
0B4E:  XORLW  80
0B50:  MOVWF  00
0B52:  MOVF   x86,W
0B54:  XORLW  80
0B56:  SUBWF  00,W
0B58:  BTFSC  FD8.2
0B5A:  BRA    0964
0B5C:  BTFSS  FD8.0
0B5E:  BRA    0964
0B60:  MOVLB  0
0B62:  RETURN 0
.................... } 
....................  
....................  
.................... ///////////////////////////////////////////////////////////////////////// 
.................... // Purpose:       Write text on a graphic LCD 
.................... // Inputs:        (x,y) - The upper left coordinate of the first letter 
.................... //                textptr - A pointer to an array of text to display 
.................... //                size - The size of the text: 1 = 5x7, 2 = 10x14, ... 
.................... //                color - ON or OFF 
.................... ///////////////////////////////////////////////////////////////////////// 
.................... #ifdef LARGE_LCD 
.................... void glcd_text57(unsigned int16 x, unsigned int16 y, char* textptr, unsigned int8 size, int1 color) 
.................... #else 
.................... void glcd_text57(unsigned int8 x, unsigned int8 y, char* textptr, unsigned int8 size, int1 color) 
.................... #endif 
.................... { 
....................    unsigned int8 j, k, l, m;                       // Loop counters 
....................    unsigned int8 pixelData[5];                     // Stores character data 
....................  
....................    for(; *textptr != '\0'; ++textptr, ++x)// Loop through the passed string 
....................    { 
....................       if(*textptr < 'S') // Checks if the letter is in the first font array 
....................          memcpy(pixelData, FONT[*textptr - ' '], 5); 
....................       else if(*textptr <= '~') // Check if the letter is in the second font array 
....................          memcpy(pixelData, FONT2[*textptr - 'S'], 5); 
....................       else 
....................          memcpy(pixelData, FONT[0], 5);   // Default to space 
....................  
....................       // Handles newline and carriage returns 
....................       switch(*textptr) 
....................       { 
....................          case '\n': 
....................             y += 7*size + 1; 
....................             continue; 
....................          case '\r': 
....................             x = 0; 
....................             continue; 
....................       } 
....................  
....................       if(x+5*size >= GLCD_WIDTH)          // Performs character wrapping 
....................       { 
....................          x = 0;                           // Set x at far left position 
....................          y += 7*size + 1;                 // Set y at next position down 
....................       } 
....................       for(j=0; j<5; ++j, x+=size)         // Loop through character byte data 
....................       { 
....................          for(k=0; k < 7; ++k)             // Loop through the vertical pixels 
....................          { 
....................             if(bit_test(pixelData[j], k)) // Check if the pixel should be set 
....................             { 
....................                for(l=0; l < size; ++l)    // These two loops change the 
....................                {                          // character's size 
....................                   for(m=0; m < size; ++m) 
....................                   { 
....................                      glcd_pixel(x+m, y+k*size+l, color); // Draws the pixel 
....................                   } 
....................                } 
....................             } 
....................          } 
....................       } 
....................    } 
.................... } 
....................  
.................... #endif 
....................  
....................  
.................... UNSIGNED INT8 T0, T0_TAM; 
.................... UNSIGNED INT8 I, CHUC_LCD, DONVI_LCD, CHUC_GLCD, DONVI_GLCD, MP; 
.................... UNSIGNED INT1 TT_HT; 
....................  
.................... // HIEN THI CHU U 
.................... CONST UNSIGNED CHAR LCD_CHU_U[1][6] = 
.................... { 
....................     
....................    0,32,2,5,3,4,  
.................... }; 
....................  
.................... // NGAT 
.................... SIGNED INT8 GIAY, BDN; 
.................... #INT_TIMER1 
.................... VOID INTERRUPT_TIMER1() 
.................... { 
....................    BDN++; 
*
01AE:  MOVLB  4
01B0:  INCF   x7F,F
....................    SET_TIMER1 (3036); 
01B2:  MOVLW  0B
01B4:  MOVWF  FCF
01B6:  MOVLW  DC
01B8:  MOVWF  FCE
01BA:  BCF    F9E.0
01BC:  MOVLB  0
01BE:  GOTO   0054
.................... } 
....................  
.................... // HAM HIEN THI CHU X 
.................... VOID LCD_HIENTHI_CHU_Z_TOADO_XY(SIGNED INT8 LCD_SO, X1, Y1) 
.................... { 
....................    LCD_GOTO_XY (X1, Y1) ; 
*
058C:  MOVFF  482,485
0590:  MOVFF  483,486
0594:  RCALL  04AC
....................    FOR (I = 0; I < 6; I++) 
0596:  MOVLB  4
0598:  CLRF   x77
059A:  MOVF   x77,W
059C:  SUBLW  05
059E:  BNC   05F8
....................    { 
....................       IF (I == 3) LCD_GOTO_XY (X1 + 1, Y1); 
05A0:  MOVF   x77,W
05A2:  SUBLW  03
05A4:  BNZ   05B8
05A6:  MOVLW  01
05A8:  ADDWF  x82,W
05AA:  MOVWF  x84
05AC:  MOVWF  x85
05AE:  MOVFF  483,486
05B2:  MOVLB  0
05B4:  RCALL  04AC
05B6:  MOVLB  4
....................       LCD_DATA (LCD_CHU_U[LCD_SO][I]); 
05B8:  MOVFF  481,489
05BC:  MOVLW  06
05BE:  MOVWF  x8A
05C0:  MOVLB  0
05C2:  RCALL  04CE
05C4:  MOVF   01,W
05C6:  MOVLB  4
05C8:  CLRF   x85
05CA:  MOVWF  x84
05CC:  CLRF   03
05CE:  MOVF   x77,W
05D0:  ADDWF  x84,W
05D2:  MOVWF  01
05D4:  MOVF   x85,W
05D6:  ADDWFC 03,F
05D8:  MOVF   01,W
05DA:  MOVFF  FF2,484
05DE:  BCF    FF2.7
05E0:  MOVLB  0
05E2:  RCALL  018E
05E4:  MOVLB  4
05E6:  BTFSC  x84.7
05E8:  BSF    FF2.7
05EA:  MOVWF  x84
05EC:  MOVWF  x85
05EE:  MOVLB  0
05F0:  RCALL  0336
05F2:  MOVLB  4
05F4:  INCF   x77,F
05F6:  BRA    059A
....................    } 
05F8:  MOVLB  0
05FA:  GOTO   065A (RETURN)
.................... } 
....................  
.................... // HAM HIEN THI SO LON 
.................... VOID LCD_HIENTHI_SO_Z_TOADO_XY(SIGNED INT8 LCD_SO, X1, Y1) 
.................... { 
....................    LCD_GOTO_XY (X1, Y1) ; 
*
051C:  MOVFF  482,485
0520:  MOVFF  483,486
0524:  RCALL  04AC
....................    FOR (I = 0; I < 6; I++) 
0526:  MOVLB  4
0528:  CLRF   x77
052A:  MOVF   x77,W
052C:  SUBLW  05
052E:  BNC   0588
....................    { 
....................       IF (I == 3) LCD_GOTO_XY (X1 + 1, Y1); 
0530:  MOVF   x77,W
0532:  SUBLW  03
0534:  BNZ   0548
0536:  MOVLW  01
0538:  ADDWF  x82,W
053A:  MOVWF  x84
053C:  MOVWF  x85
053E:  MOVFF  483,486
0542:  MOVLB  0
0544:  RCALL  04AC
0546:  MOVLB  4
....................       LCD_DATA (LCD_SO_X[LCD_SO][I]); 
0548:  MOVFF  481,489
054C:  MOVLW  06
054E:  MOVWF  x8A
0550:  MOVLB  0
0552:  RCALL  04CE
0554:  MOVF   01,W
0556:  MOVLB  4
0558:  CLRF   x85
055A:  MOVWF  x84
055C:  CLRF   03
055E:  MOVF   x77,W
0560:  ADDWF  x84,W
0562:  MOVWF  01
0564:  MOVF   x85,W
0566:  ADDWFC 03,F
0568:  MOVF   01,W
056A:  MOVFF  FF2,484
056E:  BCF    FF2.7
0570:  MOVLB  0
0572:  RCALL  0096
0574:  MOVLB  4
0576:  BTFSC  x84.7
0578:  BSF    FF2.7
057A:  MOVWF  x84
057C:  MOVWF  x85
057E:  MOVLB  0
0580:  RCALL  0336
0582:  MOVLB  4
0584:  INCF   x77,F
0586:  BRA    052A
....................    } 
0588:  MOVLB  0
058A:  RETURN 0
.................... } 
....................  
.................... // HIEN THI RA LCD FONT TO 
.................... VOID HIEN_THI_LCD (UNSIGNED T0) 
.................... { 
....................    CHUC_LCD = T0 / 10; 
*
05FE:  MOVFF  480,481
0602:  MOVLW  0A
0604:  MOVLB  4
0606:  MOVWF  x82
0608:  MOVLB  0
060A:  RCALL  0480
060C:  MOVFF  01,478
....................    DONVI_LCD = T0 % 10; 
0610:  MOVFF  480,481
0614:  MOVLW  0A
0616:  MOVLB  4
0618:  MOVWF  x82
061A:  MOVLB  0
061C:  RCALL  0480
061E:  MOVFF  00,479
....................    IF (CHUC_LCD == 0) CHUC_LCD = 10; 
0622:  MOVLB  4
0624:  MOVF   x78,F
0626:  BNZ   062C
0628:  MOVLW  0A
062A:  MOVWF  x78
....................    LCD_HIENTHI_SO_Z_TOADO_XY (CHUC_LCD, 2, 16); 
062C:  MOVFF  478,481
0630:  MOVLW  02
0632:  MOVWF  x82
0634:  MOVLW  10
0636:  MOVWF  x83
0638:  MOVLB  0
063A:  RCALL  051C
....................    LCD_HIENTHI_SO_Z_TOADO_XY (DONVI_LCD, 2, 0); 
063C:  MOVFF  479,481
0640:  MOVLW  02
0642:  MOVLB  4
0644:  MOVWF  x82
0646:  CLRF   x83
0648:  MOVLB  0
064A:  RCALL  051C
....................    LCD_HIENTHI_CHU_Z_TOADO_XY (0, 0, 9); 
064C:  MOVLB  4
064E:  CLRF   x81
0650:  CLRF   x82
0652:  MOVLW  09
0654:  MOVWF  x83
0656:  MOVLB  0
0658:  BRA    058C
065A:  GOTO   0FE0 (RETURN)
.................... } 
....................  
.................... //!// Hien thi LCD so nho 
.................... //!VOID HIENTHI_LCD() 
.................... //!{ 
.................... //!    
.................... //!   DELAY_US (20); 
.................... //!    
.................... //!   CHUC_LCD = (T0 / 10 % 10) + 0x30; 
.................... //!   DONVI_LCD = T0 % 10 + 0x30; 
.................... //!    
.................... //!   IF (CH_LCD == 0x30) 
.................... //!   { 
.................... //!      CH_LCD = " "; 
.................... //!   } 
.................... //!} 
....................  
.................... // HIEN THI RA GLCD 
.................... VOID HIEN_THI_GLCD(UNSIGNED GIAY) 
.................... { 
....................    SETUP_GLCD (GLCD_TEXT_MODE); 
*
0688:  MOVLW  30
068A:  MOVLB  4
068C:  MOVWF  x81
068E:  MOVLB  0
0690:  RCALL  0384
....................    CHUC_GLCD = GIAY / 10 + 0X30; 
0692:  MOVFF  480,481
0696:  MOVLW  0A
0698:  MOVLB  4
069A:  MOVWF  x82
069C:  MOVLB  0
069E:  RCALL  0480
06A0:  MOVLW  30
06A2:  ADDWF  01,W
06A4:  MOVLB  4
06A6:  MOVWF  x7A
....................    DONVI_GLCD = GIAY % 10 + 0X30; 
06A8:  MOVFF  480,481
06AC:  MOVLW  0A
06AE:  MOVWF  x82
06B0:  MOVLB  0
06B2:  RCALL  0480
06B4:  MOVLW  30
06B6:  ADDWF  00,W
06B8:  MOVLB  4
06BA:  MOVWF  x7B
....................    IF (CHUC_GLCD == 0X30) CHUC_GLCD = 0X20; 
06BC:  MOVF   x7A,W
06BE:  SUBLW  30
06C0:  BNZ   06C6
06C2:  MOVLW  20
06C4:  MOVWF  x7A
....................    GLCD_COMMAND (0X89); 
06C6:  MOVLW  89
06C8:  MOVWF  x82
06CA:  MOVLB  0
06CC:  RCALL  037A
....................    GLCD_DATA ("Gi"); 
06CE:  MOVLW  C2
06D0:  MOVWF  FF6
06D2:  MOVLW  01
06D4:  MOVWF  FF7
06D6:  RCALL  0668
....................    GLCD_COMMAND (0X8C); 
06D8:  MOVLW  8C
06DA:  MOVLB  4
06DC:  MOVWF  x82
06DE:  MOVLB  0
06E0:  RCALL  037A
....................    GLCD_DATA ("="); 
06E2:  MOVLW  C6
06E4:  MOVWF  FF6
06E6:  MOVLW  01
06E8:  MOVWF  FF7
06EA:  RCALL  0668
....................     
....................    GLCD_COMMAND (0X8E); 
06EC:  MOVLW  8E
06EE:  MOVLB  4
06F0:  MOVWF  x82
06F2:  MOVLB  0
06F4:  RCALL  037A
....................    GLCD_DATA (CHUC_GLCD); 
06F6:  MOVFF  47A,483
06FA:  RCALL  065E
....................    GLCD_DATA (DONVI_GLCD); 
06FC:  MOVFF  47B,483
0700:  RCALL  065E
0702:  GOTO   1012 (RETURN)
.................... } 
....................  
.................... // CHUYEN DOI HINH 
.................... VOID HIEN_THI_IMAGE() 
.................... { 
....................  
....................    IF (TT_HT == 0) 
*
0D1A:  MOVLB  4
0D1C:  BTFSC  x7D.0
0D1E:  BRA    0D62
....................    { 
....................       SETUP_GLCD (GLCD_GRAPHIC_MODE); 
0D20:  MOVLW  36
0D22:  MOVWF  x81
0D24:  MOVLB  0
0D26:  CALL   0384
....................       GLCD_CIRCLE (30, 30, 20, 0, 1) ; 
0D2A:  MOVLW  1E
0D2C:  MOVLB  4
0D2E:  MOVWF  x80
0D30:  MOVWF  x81
0D32:  MOVLW  14
0D34:  MOVWF  x82
0D36:  CLRF   x83
0D38:  MOVLW  01
0D3A:  MOVWF  x84
0D3C:  MOVLB  0
0D3E:  RCALL  0954
....................       GLCD_RECT (75, 11, 115, 51, 0, 1) ; 
0D40:  MOVLW  4B
0D42:  MOVLB  4
0D44:  MOVWF  x80
0D46:  MOVLW  0B
0D48:  MOVWF  x81
0D4A:  MOVLW  73
0D4C:  MOVWF  x82
0D4E:  MOVLW  33
0D50:  MOVWF  x83
0D52:  CLRF   x84
0D54:  MOVLW  01
0D56:  MOVWF  x85
0D58:  MOVLB  0
0D5A:  RCALL  0B64
....................       GDRAM_VDK_TO_GDRAM_GLCD_ALL (); 
0D5C:  RCALL  0C26
....................    } 
0D5E:  BRA    0DA2
0D60:  MOVLB  4
....................  
....................    ELSE 
....................    { 
....................       SETUP_GLCD (GLCD_GRAPHIC_MODE); 
0D62:  MOVLW  36
0D64:  MOVWF  x81
0D66:  MOVLB  0
0D68:  CALL   0384
....................       GLCD_CIRCLE (100, 31, 20, 0, 1) ; 
0D6C:  MOVLW  64
0D6E:  MOVLB  4
0D70:  MOVWF  x80
0D72:  MOVLW  1F
0D74:  MOVWF  x81
0D76:  MOVLW  14
0D78:  MOVWF  x82
0D7A:  CLRF   x83
0D7C:  MOVLW  01
0D7E:  MOVWF  x84
0D80:  MOVLB  0
0D82:  RCALL  0954
....................       GLCD_RECT (10, 11, 50, 51, 0, 1) ; 
0D84:  MOVLW  0A
0D86:  MOVLB  4
0D88:  MOVWF  x80
0D8A:  MOVLW  0B
0D8C:  MOVWF  x81
0D8E:  MOVLW  32
0D90:  MOVWF  x82
0D92:  MOVLW  33
0D94:  MOVWF  x83
0D96:  CLRF   x84
0D98:  MOVLW  01
0D9A:  MOVWF  x85
0D9C:  MOVLB  0
0D9E:  RCALL  0B64
....................       GDRAM_VDK_TO_GDRAM_GLCD_ALL (); 
0DA0:  RCALL  0C26
....................    } 
0DA2:  GOTO   102A (RETURN)
.................... } 
....................  
....................  
....................  
....................  
.................... VOID MAIN() 
*
0E62:  CLRF   FF8
0E64:  BCF    FD0.7
0E66:  BSF    07.7
0E68:  CLRF   18
0E6A:  CLRF   1F
0E6C:  CLRF   20
0E6E:  CLRF   21
0E70:  CLRF   22
0E72:  CLRF   2B
0E74:  CLRF   2F
0E76:  CLRF   2E
0E78:  CLRF   2D
0E7A:  CLRF   2C
0E7C:  CLRF   33
0E7E:  CLRF   32
0E80:  CLRF   31
0E82:  MOVLW  01
0E84:  MOVWF  30
0E86:  MOVLW  80
0E88:  MOVWF  37
0E8A:  CLRF   36
0E8C:  CLRF   35
0E8E:  CLRF   34
0E90:  CLRF   3B
0E92:  CLRF   3A
0E94:  CLRF   39
0E96:  CLRF   38
0E98:  MOVWF  3F
0E9A:  CLRF   3E
0E9C:  CLRF   41
0E9E:  MOVLW  01
0EA0:  MOVWF  40
0EA2:  CLRF   43
0EA4:  CLRF   42
0EA6:  MOVLW  80
0EA8:  MOVWF  47
0EAA:  CLRF   46
0EAC:  CLRF   49
0EAE:  MOVLW  01
0EB0:  MOVWF  48
0EB2:  CLRF   4B
0EB4:  CLRF   4A
0EB6:  CLRF   4D
0EB8:  CLRF   4C
0EBA:  CLRF   4E
0EBC:  MOVLW  20
0EBE:  MOVWF  4F
0EC0:  CLRF   50
0EC2:  MOVLW  01
0EC4:  MOVWF  51
0EC6:  MOVLW  10
0EC8:  MOVWF  52
0ECA:  CLRF   53
0ECC:  CLRF   57
0ECE:  CLRF   56
0ED0:  CLRF   55
0ED2:  MOVLW  01
0ED4:  MOVWF  54
0ED6:  CLRF   5B
0ED8:  CLRF   5A
0EDA:  CLRF   59
0EDC:  MOVWF  58
0EDE:  SETF   5F
0EE0:  SETF   5E
0EE2:  SETF   5D
0EE4:  MOVLW  FE
0EE6:  MOVWF  5C
0EE8:  MOVLW  80
0EEA:  MOVWF  x63
0EEC:  CLRF   x62
0EEE:  CLRF   x61
0EF0:  CLRF   x60
0EF2:  MOVWF  x67
0EF4:  CLRF   x66
0EF6:  CLRF   x65
0EF8:  CLRF   x64
0EFA:  MOVLW  7F
0EFC:  MOVWF  x6B
0EFE:  SETF   x6A
0F00:  SETF   x69
0F02:  SETF   x68
0F04:  MOVLW  01
0F06:  MOVWF  x6C
0F08:  MOVWF  x6D
0F0A:  CLRF   x6F
0F0C:  CLRF   x70
0F0E:  MOVF   FC1,W
0F10:  ANDLW  C0
0F12:  IORLW  0F
0F14:  MOVWF  FC1
0F16:  MOVLW  07
0F18:  MOVWF  FB4
0F1A:  SETF   23
0F1C:  SETF   24
0F1E:  SETF   25
0F20:  SETF   26
0F22:  SETF   27
0F24:  SETF   28
0F26:  SETF   29
0F28:  SETF   2A
.................... { 
....................    SET_UP_PORT_IC_CHOT (); 
0F2A:  GOTO   01C8
....................    SET_TRIS_B (0X3C); 
0F2E:  MOVLW  3C
0F30:  MOVWF  F93
....................     
....................    //KHOI TAO COUNTER 
....................    SETUP_TIMER_0 (T0_EXT_L_TO_H|T0_DIV_1|T0_8_BIT); 
0F32:  MOVLW  E8
0F34:  MOVWF  FD5
....................    SET_TIMER0 (8); 
0F36:  CLRF   FD7
0F38:  MOVLW  08
0F3A:  MOVWF  FD6
....................     
....................    // KHOI TAO LCD 
....................    SETUP_LCD (); 
0F3C:  GOTO   02DA
....................    LCD_COMMAND (0X40); 
0F40:  MOVLW  40
0F42:  MOVLB  4
0F44:  MOVWF  x88
0F46:  MOVLB  0
0F48:  CALL   029C
....................    FOR (I = 0; I < 64; I++) 
0F4C:  MOVLB  4
0F4E:  CLRF   x77
0F50:  MOVF   x77,W
0F52:  SUBLW  3F
0F54:  BNC   0F7C
....................    { 
....................       LCD_DATA (LCD_MA_8DOAN[I]); 
0F56:  CLRF   03
0F58:  MOVF   x77,W
0F5A:  MOVFF  FF2,480
0F5E:  BCF    FF2.7
0F60:  MOVLB  0
0F62:  CALL   00F8
0F66:  MOVLB  4
0F68:  BTFSC  x80.7
0F6A:  BSF    FF2.7
0F6C:  MOVWF  x80
0F6E:  MOVWF  x85
0F70:  MOVLB  0
0F72:  CALL   0336
0F76:  MOVLB  4
0F78:  INCF   x77,F
0F7A:  BRA    0F50
....................    } 
....................     
....................    // DEM COUNTER 
....................    T0_TAM = T0 = 0; 
0F7C:  CLRF   x75
0F7E:  MOVFF  475,476
....................     
....................    //DEM GIAY DUNG NGAT 
....................    SETUP_TIMER_1 (T1_INTERNAL|T1_DIV_BY_8); 
0F82:  MOVLW  B5
0F84:  MOVWF  FCD
....................    SET_TIMER1 (3036); 
0F86:  MOVLW  0B
0F88:  MOVWF  FCF
0F8A:  MOVLW  DC
0F8C:  MOVWF  FCE
....................    ENABLE_INTERRUPTS (GLOBAL); 
0F8E:  MOVLW  C0
0F90:  IORWF  FF2,F
....................    ENABLE_INTERRUPTS (INT_TIMER1); 
0F92:  BSF    F9D.0
....................    GIAY = 15; 
0F94:  MOVLW  0F
0F96:  MOVWF  x7E
....................    BDN = 0; 
0F98:  CLRF   x7F
....................     
....................    // KHOI TAO GLCD 
....................    SETUP_GLCD (GLCD_CLEAR_DISPLAY); 
0F9A:  MOVLW  01
0F9C:  MOVWF  x81
0F9E:  MOVLB  0
0FA0:  CALL   0384
....................    SETUP_GLCD (GLCD_GRAPHIC_MODE); 
0FA4:  MOVLW  36
0FA6:  MOVLB  4
0FA8:  MOVWF  x81
0FAA:  MOVLB  0
0FAC:  CALL   0384
....................    GLCD_MAU_NEN (0); 
0FB0:  MOVLB  4
0FB2:  CLRF   x80
0FB4:  MOVLB  0
0FB6:  CALL   03FE
....................     
....................    WHILE (TRUE) 
....................    { 
....................       T0 = GET_TIMER0 (); 
0FBA:  MOVF   FD6,W
0FBC:  MOVLB  4
0FBE:  MOVWF  x75
....................       IF (T0 != T0_TAM) 
0FC0:  MOVF   x76,W
0FC2:  SUBWF  x75,W
0FC4:  BZ    0FE2
....................       { 
....................          T0_TAM = T0; 
0FC6:  MOVFF  475,476
.................... //!         IF (T0 > 22) SET_TIMER0 (12) ; 
....................          IF (T0 > 14) SET_TIMER0 (8) ; 
0FCA:  MOVF   x75,W
0FCC:  SUBLW  0E
0FCE:  BC    0FD6
0FD0:  CLRF   FD7
0FD2:  MOVLW  08
0FD4:  MOVWF  FD6
.................... //!         HIEN_THI_AB (); 
....................             HIEN_THI_LCD (T0); 
0FD6:  MOVFF  475,480
0FDA:  MOVLB  0
0FDC:  GOTO   05FE
0FE0:  MOVLB  4
....................       } 
....................        
....................       IF (BDN < 10) HIEN_THI_GLCD (GIAY);  
0FE2:  BTFSC  x7F.7
0FE4:  BRA    0FEC
0FE6:  MOVF   x7F,W
0FE8:  SUBLW  09
0FEA:  BNC   0FFC
0FEC:  MOVFF  47E,480
0FF0:  MOVLB  0
0FF2:  GOTO   0688
0FF6:  MOVLB  0
0FF8:  BRA    1012
0FFA:  MOVLB  4
....................       ELSE 
....................       { 
....................          BDN = BDN - 10; 
0FFC:  MOVLW  0A
0FFE:  SUBWF  x7F,F
....................          GIAY--; 
1000:  DECF   x7E,F
....................          IF (GIAY < 5) GIAY = 15; 
1002:  BTFSC  x7E.7
1004:  BRA    100C
1006:  MOVF   x7E,W
1008:  SUBLW  04
100A:  BNC   1010
100C:  MOVLW  0F
100E:  MOVWF  x7E
1010:  MOVLB  0
....................       } 
....................        
....................       SETUP_GLCD (GLCD_GRAPHIC_MODE); 
1012:  MOVLW  36
1014:  MOVLB  4
1016:  MOVWF  x81
1018:  MOVLB  0
101A:  CALL   0384
....................       GLCD_MAU_NEN (0); 
101E:  MOVLB  4
1020:  CLRF   x80
1022:  MOVLB  0
1024:  CALL   03FE
.................... //!      GLCD_CIRCLE (30, 30, 20, 0, 1) ; 
.................... //!      GLCD_RECT (75, 11, 115, 51, 0, 1) ; 
....................       HIEN_THI_IMAGE(); 
1028:  BRA    0D1A
....................       GDRAM_VDK_TO_GDRAM_GLCD_ALL (); 
102A:  RCALL  0C26
....................        
....................       MP = KEY_4X4_DW (); 
102C:  BRA    0E30
102E:  MOVFF  01,47C
....................       IF (MP != 0XFF) 
1032:  MOVLB  4
1034:  INCFSZ x7C,W
1036:  BRA    103A
1038:  BRA    1042
....................       { 
....................          IF (MP == 10) TT_HT = ~TT_HT; 
103A:  MOVF   x7C,W
103C:  SUBLW  0A
103E:  BNZ   1042
1040:  BTG    x7D.0
....................       } 
1042:  MOVLB  0
1044:  BRA    0FBA
....................    } 
.................... } 
1046:  SLEEP 

Configuration Fuses:
   Word  1: CC27   PLL12 CPUDIV1 USBDIV HS FCMEN IESO
   Word  2: 1E3E   PUT BROWNOUT BORV21 VREGEN NOWDT WDT32768
   Word  3: 8700   CCP2C1 PBADEN LPT1OSC MCLR
   Word  4: 00A1   STVREN NOLVP ICSP2 NOXINST NODEBUG
   Word  5: C00F   NOPROTECT NOCPB NOCPD
   Word  6: E00F   NOWRT NOWRTC NOWRTB NOWRTD
   Word  7: 400F   NOEBTR NOEBTRB
