CCS PCH C Compiler, Version 5.015, 5967               17-Aug-20 16:03

               Filename:   C:\Users\tsqua\OneDrive - student.mtsac.edu\Desktop\BAI_TAP_VXL_NEW_3\KIEMTRA_CUOIKI_ABC.lst

               ROM used:   5252 bytes (16%)
                           Largest free fragment is 27516
               RAM used:   1095 (53%) at main() level
                           1131 (55%) worst case
               Stack used: 8 locations
               Stack size: 31

*
0000:  GOTO   1354
.................... #include <tv_pickit2_shift_1.c> 
.................... #INCLUDE    <18F4550.H> 
.................... //////////// Standard Header file for the PIC18F4550 device //////////////// 
.................... /////////////////////////////////////////////////////////////////////////// 
.................... ////        (C) Copyright 1996, 2013 Custom Computer Services          //// 
.................... //// This source code may only be used by licensed users of the CCS C  //// 
.................... //// compiler.  This source code may only be distributed to other      //// 
.................... //// licensed users of the CCS C compiler.  No other use, reproduction //// 
.................... //// or distribution is permitted without written permission.          //// 
.................... //// Derivative programs created using this software in object code    //// 
.................... //// form are not restricted in any way.                               //// 
.................... /////////////////////////////////////////////////////////////////////////// 
.................... #device PIC18F4550 
0004:  CLRF   FF7
0006:  ADDLW  14
0008:  MOVWF  FF6
000A:  MOVLW  00
000C:  ADDWFC FF7,F
000E:  TBLRD*+
0010:  MOVF   FF5,W
0012:  RETURN 0
0014:  DATA 00,01
0016:  DATA 02,05
0018:  DATA 03,04
001A:  DATA 01,02
001C:  DATA 20,03
001E:  DATA 07,03
0020:  DATA 06,06
0022:  DATA 02,05
0024:  DATA 03,03
0026:  DATA 06,06
0028:  DATA 02,03
002A:  DATA 03,04
002C:  DATA 07,03
002E:  DATA 07,20
0030:  DATA 20,07
0032:  DATA 07,06
0034:  DATA 06,03
0036:  DATA 03,04
0038:  DATA 00,06
003A:  DATA 06,05
003C:  DATA 03,04
003E:  DATA 01,01
0040:  DATA 07,20
0042:  DATA 20,07
0044:  DATA 00,06
0046:  DATA 02,05
0048:  DATA 03,04
004A:  DATA 00,06
004C:  DATA 02,03
004E:  DATA 03,04
0050:  DATA 20,20
0052:  DATA 20,20
0054:  DATA 20,20
0056:  DATA 00,06
0058:  DATA 02,05
005A:  DATA 20,20
005C:  DATA 20,20
005E:  DATA 20,20
0060:  DATA 07,20
0062:  DATA 07,20
0064:  DATA 20,07
0066:  DATA 06,07
0068:  DATA 07,03
006A:  DATA 07,07
006C:  DATA 20,07
006E:  DATA 03,03
0070:  DATA 07,07
0072:  DATA 03,07
0074:  DATA 20,20
0076:  DATA 20,03
0078:  DATA 03,03
007A:  DATA 20,01
007C:  DATA 20,20
007E:  DATA 20,20
0080:  DATA 07,01
0082:  DATA 01,07
0084:  DATA 03,03
0086:  DATA 20,01
0088:  DATA 20,20
008A:  DATA 01,20
008C:  CLRF   FF7
008E:  ADDLW  9C
0090:  MOVWF  FF6
0092:  MOVLW  00
0094:  ADDWFC FF7,F
0096:  TBLRD*+
0098:  MOVF   FF5,W
009A:  RETURN 0
009C:  DATA 07,0F
009E:  DATA 1F,1F
00A0:  DATA 1F,1F
00A2:  DATA 1F,1F
00A4:  DATA 1F,1F
00A6:  DATA 1F,00
00A8:  DATA 00,00
00AA:  DATA 00,00
00AC:  DATA 1C,1E
00AE:  DATA 1F,1F
00B0:  DATA 1F,1F
00B2:  DATA 1F,1F
00B4:  DATA 00,00
00B6:  DATA 00,00
00B8:  DATA 00,1F
00BA:  DATA 1F,1F
00BC:  DATA 1F,1F
00BE:  DATA 1F,1F
00C0:  DATA 1F,1F
00C2:  DATA 1E,1C
00C4:  DATA 1F,1F
00C6:  DATA 1F,1F
00C8:  DATA 1F,1F
00CA:  DATA 0F,07
00CC:  DATA 1F,1F
00CE:  DATA 1F,00
00D0:  DATA 00,00
00D2:  DATA 1F,1F
00D4:  DATA 1F,1F
00D6:  DATA 1F,1F
00D8:  DATA 1F,1F
00DA:  DATA 1F,1F
00DC:  CLRF   FF7
00DE:  ADDLW  EC
00E0:  MOVWF  FF6
00E2:  MOVLW  00
00E4:  ADDWFC FF7,F
00E6:  TBLRD*+
00E8:  MOVF   FF5,W
00EA:  RETURN 0
00EC:  DATA 80,C0
00EE:  DATA 94,D4
00F0:  CLRF   FF7
00F2:  ADDLW  00
00F4:  MOVWF  FF6
00F6:  MOVLW  01
00F8:  ADDWFC FF7,F
00FA:  TBLRD*+
00FC:  MOVF   FF5,W
00FE:  RETURN 0
0100:  DATA 3F,7F
0102:  DATA BF,FF
0104:  CLRF   FF7
0106:  ADDLW  14
0108:  MOVWF  FF6
010A:  MOVLW  01
010C:  ADDWFC FF7,F
010E:  TBLRD*+
0110:  MOVF   FF5,W
0112:  RETURN 0
0114:  DATA 07,01
0116:  DATA 01,07
0118:  DATA 03,03
011A:  CLRF   FF7
011C:  ADDLW  2A
011E:  MOVWF  FF6
0120:  MOVLW  01
0122:  ADDWFC FF7,F
0124:  TBLRD*+
0126:  MOVF   FF5,W
0128:  RETURN 0
012A:  DATA 20,20
012C:  DATA 20,07
012E:  DATA 01,07
*
06EA:  MOVLB  4
06EC:  MOVF   x66,W
06EE:  MULWF  x68
06F0:  MOVFF  FF3,01
06F4:  MOVFF  FF4,00
06F8:  MULWF  x69
06FA:  MOVF   FF3,W
06FC:  ADDWF  00,F
06FE:  MOVF   x67,W
0700:  MULWF  x68
0702:  MOVF   FF3,W
0704:  ADDWFC 00,W
0706:  MOVWF  02
0708:  MOVLB  0
070A:  RETURN 0
*
08E0:  CLRF   00
08E2:  CLRF   01
08E4:  MOVLB  4
08E6:  MOVF   x4F,W
08E8:  BCF    FD8.0
08EA:  BTFSC  x50.0
08EC:  ADDWF  00,F
08EE:  RRCF   00,F
08F0:  RRCF   01,F
08F2:  BTFSC  x50.1
08F4:  ADDWF  00,F
08F6:  RRCF   00,F
08F8:  RRCF   01,F
08FA:  BTFSC  x50.2
08FC:  ADDWF  00,F
08FE:  RRCF   00,F
0900:  RRCF   01,F
0902:  BTFSC  x50.3
0904:  ADDWF  00,F
0906:  RRCF   00,F
0908:  RRCF   01,F
090A:  BTFSC  x50.4
090C:  ADDWF  00,F
090E:  RRCF   00,F
0910:  RRCF   01,F
0912:  BTFSC  x50.5
0914:  ADDWF  00,F
0916:  RRCF   00,F
0918:  RRCF   01,F
091A:  BTFSC  x50.6
091C:  ADDWF  00,F
091E:  RRCF   00,F
0920:  RRCF   01,F
0922:  BTFSC  x50.7
0924:  ADDWF  00,F
0926:  RRCF   00,F
0928:  RRCF   01,F
092A:  MOVLB  0
092C:  RETURN 0
*
0AF0:  MOVLB  4
0AF2:  MOVF   x48,W
0AF4:  CLRF   01
0AF6:  SUBWF  x47,W
0AF8:  BC    0B00
0AFA:  MOVFF  447,00
0AFE:  BRA    0B18
0B00:  CLRF   00
0B02:  MOVLW  08
0B04:  MOVWF  x49
0B06:  RLCF   x47,F
0B08:  RLCF   00,F
0B0A:  MOVF   x48,W
0B0C:  SUBWF  00,W
0B0E:  BTFSC  FD8.0
0B10:  MOVWF  00
0B12:  RLCF   01,F
0B14:  DECFSZ x49,F
0B16:  BRA    0B06
0B18:  MOVLB  0
0B1A:  RETURN 0
....................  
.................... #list 
....................  
.................... #DEVICE     ADC=10 
.................... #FUSES      NOWDT,PUT,HS,NOPROTECT,NOLVP,CPUDIV1 
.................... #USE        I2C(MASTER,SLOW,SDA=PIN_B0,SCL=PIN_B1) 
*
029E:  MOVLW  08
02A0:  MOVWF  01
02A2:  NOP   
02A4:  BCF    F8A.1
02A6:  BCF    F93.1
02A8:  NOP   
02AA:  MOVLB  4
02AC:  RLCF   x46,F
02AE:  BCF    F8A.0
02B0:  BTFSC  FD8.0
02B2:  BSF    F93.0
02B4:  BTFSS  FD8.0
02B6:  BCF    F93.0
02B8:  BSF    F93.1
02BA:  BTFSS  F81.1
02BC:  BRA    02BA
02BE:  DECFSZ 01,F
02C0:  BRA    02C4
02C2:  BRA    02C8
02C4:  MOVLB  0
02C6:  BRA    02A2
02C8:  NOP   
02CA:  BCF    F8A.1
02CC:  BCF    F93.1
02CE:  NOP   
02D0:  BSF    F93.0
02D2:  NOP   
02D4:  NOP   
02D6:  BSF    F93.1
02D8:  BTFSS  F81.1
02DA:  BRA    02D8
02DC:  CLRF   01
02DE:  NOP   
02E0:  BTFSC  F81.0
02E2:  BSF    01.0
02E4:  BCF    F8A.1
02E6:  BCF    F93.1
02E8:  BCF    F8A.0
02EA:  BCF    F93.0
02EC:  MOVLB  0
02EE:  RETURN 0
02F0:  MOVLW  08
02F2:  MOVLB  4
02F4:  MOVWF  x47
02F6:  MOVFF  00,448
02FA:  BSF    F93.0
02FC:  NOP   
02FE:  BSF    F93.1
0300:  BTFSS  F81.1
0302:  BRA    0300
0304:  BTFSC  F81.0
0306:  BSF    FD8.0
0308:  BTFSS  F81.0
030A:  BCF    FD8.0
030C:  RLCF   01,F
030E:  NOP   
0310:  BCF    F93.1
0312:  BCF    F8A.1
0314:  DECFSZ x47,F
0316:  BRA    02FA
0318:  BSF    F93.0
031A:  NOP   
031C:  BCF    F8A.0
031E:  MOVF   x48,W
0320:  BTFSS  FD8.2
0322:  BCF    F93.0
0324:  NOP   
0326:  BSF    F93.1
0328:  BTFSS  F81.1
032A:  BRA    0328
032C:  NOP   
032E:  BCF    F8A.1
0330:  BCF    F93.1
0332:  NOP   
0334:  BCF    F8A.0
0336:  BCF    F93.0
0338:  MOVLB  0
033A:  RETURN 0
.................... #USE        DELAY(CLOCK=20000000) 
*
021A:  MOVLW  04
021C:  MOVWF  FEA
021E:  MOVLW  47
0220:  MOVWF  FE9
0222:  MOVF   FEF,W
0224:  BZ    0240
0226:  MOVLW  06
0228:  MOVWF  01
022A:  CLRF   00
022C:  DECFSZ 00,F
022E:  BRA    022C
0230:  DECFSZ 01,F
0232:  BRA    022A
0234:  MOVLW  7B
0236:  MOVWF  00
0238:  DECFSZ 00,F
023A:  BRA    0238
023C:  DECFSZ FEF,F
023E:  BRA    0226
0240:  RETURN 0
*
041E:  MOVLW  03
0420:  MOVLB  4
0422:  SUBWF  x48,F
0424:  BNC   043A
0426:  MOVLW  04
0428:  MOVWF  FEA
042A:  MOVLW  48
042C:  MOVWF  FE9
042E:  MOVF   FEF,W
0430:  BZ    043A
0432:  BRA    0436
0434:  BRA    0436
0436:  DECFSZ FEF,F
0438:  BRA    0434
043A:  MOVLB  0
043C:  RETURN 0
.................... //#USE        rs232(baud=9600, xmit=PIN_C6,rcv=PIN_C7) 
.................... //NUT NHAN: 
.................... #DEFINE  BT0     PIN_B5 
.................... #DEFINE  BT1     PIN_B4 
.................... #DEFINE  BT2     PIN_B3 
.................... #DEFINE  BT3     PIN_B2 
....................  
.................... #DEFINE  ON      BT0       //DK LED DON, MOTOR 
.................... #DEFINE  OFF     BT1 
.................... #DEFINE  INV     BT2 
....................  
.................... #DEFINE  UP      BT0    //DK LED DON 
.................... #DEFINE  DW      BT1 
.................... #DEFINE  CLR     BT2 
.................... #DEFINE  MOD     BT3 
....................  
.................... #DEFINE  STOP    BT3 
....................  
.................... #DEFINE  ON1     BT0      
.................... #DEFINE  OFF1    BT1 
.................... #DEFINE  ON2     BT2        
.................... #DEFINE  OFF2    BT3 
....................  
....................  
.................... #DEFINE     TRIGGER      PIN_E2 
.................... #DEFINE     ECHO         PIN_E1 
.................... //   IC74138_A    PIN_B6   //OUTPUT GIAI MA 2 SANG 4 TICH CUC MUC 0 
.................... //   IC74138_B    PIN_B7   //OUTPUT GIAI MA 2 SANG 4 TICH CUC MUC 0 
....................  
.................... //          ENCODER  PIN_C0   //RC0/T13CKI 
....................  
.................... //          CB_KC    PIN_A2   //RA2/AN2 
.................... //          PIR      PIN_A3   //RA3/AN3 
.................... //          CBXUNG   PIN_A4   //RA4/T0CKI 
.................... //          LEDTHU   PIN_A4   //RA4/T0CKI//SW802 
....................  
.................... //          CB_KCSA_TRIGGER  PIN_E2   //RE2/SDO  DUNG CHUNG 
.................... //          CB_KCSA_RCHO     PIN_E1   //RE1 
....................  
.................... //          CB_TCS3200_OUT    PIN_E1   //RE1 //CAM BIEN MAU TCS3200 
.................... //          CB_TCS3200_S0     B12      //LAY TU MBI5026 
.................... //          CB_TCS3200_S1     B13      //LAY TU MBI5026 
.................... //          CB_TCS3200_S2     B14      //LAY TU MBI5026 
.................... //          CB_TCS3200_S3     B15      //LAY TU MBI5026 
....................  
.................... //          CB_POWER  SW803 
.................... //          CB_GAS      AIN3_PCF8591T   //RE1 
.................... //          CB_QUANG    AIN2_PCF8591T    
.................... //          CB_LM35B    AIN1_PCF8591T   //RA1/AN1 
.................... //          CB_LM35A    AIN0_PCF8591T   //RE1/AN0 
....................  
.................... //XXXXXXXXXXXXXXXXXXXXXXXXXXXXXXXXXXXXXXXXXXXXXXXXX 
.................... #DEFINE      ENABLE_573A      PIN_D1         //CS0 CUA A 
.................... #DEFINE      ENABLE_573B      PIN_D0         //CS1 CUA B 
.................... //XXXXXXXXXXXXXXXXXXXXXXXXXXXXXXXXXXXXXXXXXXXXXXXXX 
.................... #DEFINE      SSDO             PIN_E2         //CHUNG TAT CA 
.................... #DEFINE      SSCK             PIN_E0         //CHUNG TAT CA 
.................... //XXXXXXXXXXXXXXXXXXXXXXXXXXXXXXXXXXXXXXXXXXXXXXXXX 
.................... #DEFINE      RCK_4LED7DOAN    PIN_D7         //A - 4 BYTE 
.................... #DEFINE      G_4LED7DOAN      PIN_D6         //A - 4 BYTE 
.................... //XXXXXXXXXXXXXXXXXXXXXXXXXXXXXXXXXXXXXXXXXXXX     
.................... #DEFINE      RCK_MATRANLED    PIN_D7         //B - 3 BYTE DAO 
.................... #DEFINE      G_MATRANLED      PIN_D6         //B - 3 BYTE DAO 
.................... //XXXXXXXXXXXXXXXXXXXXXXXXXXXXXXXXXXXXXXXXXXXXXXXXX 
.................... #DEFINE      RCK_32LED        PIN_D5         //A - 4 BYTE 
.................... #DEFINE      G_32LED          PIN_D4         //A - 4 BYTE 
.................... //XXXXXXXXXXXXXXXXXXXXXXXXXXXXXXXXXXXXXXXXXXXX  
.................... #DEFINE      RCK_8LEDQUET     PIN_D5         //B - 2 BYTE DAO 
.................... #DEFINE      G_8LEDQUET       PIN_D4         //B - 2 BYTE DAO 
.................... //XXXXXXXXXXXXXXXXXXXXXXXXXXXXXXXXXXXXXXXXXXXXXXXXX 
.................... #DEFINE      RCK_LCD20X4      PIN_D3         //A - 2 BYTE DAO 
.................... #DEFINE      G_LCD20X4         PIN_D2         //A - 2 BYTE DAO 
.................... //XXXXXXXXXXXXXXXXXXXXXXXXXXXXXXXXXXXXXXXXXXXX  
.................... #DEFINE      RCK_BUZERELAY    PIN_D3     //B - 1 BYTE  
.................... #DEFINE      G_BUZERELAY      PIN_D2         //B - 1 BYTE  
....................  
.................... VOID XUAT_LCD20X4(UNSIGNED INT8 LCD_SIGNAL,LCD_INS_HTHI); 
....................  
.................... VOID XUAT_BUZZER_RELAY(); 
.................... //XXXXXXXXXXXXXXXXXXXXXXXXXXXXXXXXXXXXXXXXXXXX    
.................... #DEFINE     CHOT_2_IC_74573_A_B  OUTPUT_D(0XFC) 
....................  
.................... UNSIGNED INT8 TIN_HIEU_DK_74573_A; 
.................... #BIT G_4A         = TIN_HIEU_DK_74573_A.6 
.................... #BIT G_32A        = TIN_HIEU_DK_74573_A.4 
.................... #BIT G_LCDA       = TIN_HIEU_DK_74573_A.2 
.................... //XXXXXXXXXXXXXXXXXXXXXXXXXXXXXXXXXXXXXXXXXXXX          
.................... #DEFINE     MO_32_LED_DON        G_32A=0; //OUTPUT_LOW(G_32LED)  
.................... #DEFINE     TAT_32_LED_DON       G_32A=1; //OUTPUT_HIGH(G_32LED)  
.................... //XXXXXXXXXXXXXXXXXXXXXXXXXXXXXXXXXXXXXXXXXXXX          
.................... #DEFINE     MO_4_LED_7DOAN       G_4A=0;  //OUTPUT_LOW(G_4LED7DOAN) 
.................... #DEFINE     TAT_4_LED_7DOAN      G_4A=1;  //OUTPUT_HIGH(G_4LED7DOAN) 
.................... //XXXXXXXXXXXXXXXXXXXXXXXXXXXXXXXXXXXXXXXXXXXX  
.................... #DEFINE     MO_GLCD_LCD           G_LCDA=0;   //OUTPUT_LOW(G_LCD20X4) 
.................... #DEFINE     TAT_GLCD_LCD          G_LCDA=1;   // OUTPUT_LOW(G_LCD20X4) 
....................  
.................... UNSIGNED INT8 TIN_HIEU_DK_74573_B;   
.................... #BIT G_MTB        = TIN_HIEU_DK_74573_B.6 
.................... #BIT G_8B         = TIN_HIEU_DK_74573_B.4 
.................... #BIT G_RBDCB      = TIN_HIEU_DK_74573_B.2 
.................... //XXXXXXXXXXXXXXXXXXXXXXXXXXXXXXXXXXXXXXXXXXXX  
.................... #DEFINE     MO_LED_MATRAN        G_MTB=0; //OUTPUT_LOW(G_MATRANLED) 
.................... #DEFINE     TAT_LED_MATRAN       G_MTB=1; //OUTPUT_LOW(G_MATRANLED) 
.................... //XXXXXXXXXXXXXXXXXXXXXXXXXXXXXXXXXXXXXXXXXXXX        
.................... #DEFINE     MO_8_LED_QUET        G_8B=0;  //OUTPUT_LOW(G_8LEDQUET) 
.................... #DEFINE     TAT_8_LED_QUET       G_8B=1;  //OUTPUT_LOW(G_8LEDQUET) 
.................... //XXXXXXXXXXXXXXXXXXXXXXXXXXXXXXXXXXXXXXXXXXXX          
.................... #DEFINE     MO_RELAY_BUZZER_DC   G_RBDCB=0;  //OUTPUT_LOW(G_BUZERELAY) 
.................... #DEFINE     TAT_RELAY_BUZZER_DC  G_RBDCB=1;  //OUTPUT_LOW(G_BUZERELAY) 
....................  
.................... //XXXXXXXXXXXXXXXXXXXXXXXXXXXXXXXXXXXXXXXXXXXX 
.................... //CHUONG TRINH KIEM TRA PHIM BT1 
.................... //XXXXXXXXXXXXXXXXXXXXXXXXXXXXXXXXXXXXXXXXXXXX 
.................... UNSIGNED INT8 DL_BTN=0; 
.................... INT1 PHIM_BT0(UNSIGNED INT16 DL) 
.................... {   
....................     IF (!INPUT(BT0)) 
....................     {   
....................       DL_BTN++; 
....................        
....................       IF (DL_BTN>= DL) 
....................          { 
....................             DL_BTN =0; 
....................             RETURN(1); 
....................          } 
....................       ELSE RETURN(0); 
....................     } 
....................     ELSE    RETURN(0); 
.................... }  
.................... //XXXXXXXXXXXXXXXXXXXXXXXXXXXXXXXXXXXXXXXXXXXX 
.................... //CHUONG TRINH KIEM TRA PHIM BT1 
.................... //XXXXXXXXXXXXXXXXXXXXXXXXXXXXXXXXXXXXXXXXXXXX 
.................... INT1 PHIM_BT1(UNSIGNED INT16 DL ) 
.................... {   
....................     IF (!INPUT(BT1)) 
....................     {   
....................       DL_BTN++; 
....................        
....................       IF (DL_BTN>= DL) 
....................          { 
....................             DL_BTN =0; 
....................             RETURN(1); 
....................          } 
....................       ELSE RETURN(0); 
....................     } 
....................     ELSE    RETURN(0); 
.................... }  
.................... //XXXXXXXXXXXXXXXXXXXXXXXXXXXXXXXXXXXXXXXXXXXX 
.................... //CHUONG TRINH KIEM TRA PHIM BT2       
.................... //XXXXXXXXXXXXXXXXXXXXXXXXXXXXXXXXXXXXXXXXXXXX                                     
.................... INT1 PHIM_BT2(UNSIGNED INT16 DL ) 
.................... {                                         
....................     IF (!INPUT(BT2)) 
....................     {   
....................       DL_BTN++; 
....................        
....................       IF (DL_BTN>= DL) 
....................          { 
....................             DL_BTN =0; 
....................             RETURN(1); 
....................          } 
....................       ELSE RETURN(0); 
....................     } 
....................     ELSE    RETURN(0); 
....................                                           
.................... }       
....................  
.................... //XXXXXXXXXXXXXXXXXXXXXXXXXXXXXXXXXXXXXXXXXXXX 
.................... //CHUONG TRINH KIEM TRA PHIM BT3 
.................... //XXXXXXXXXXXXXXXXXXXXXXXXXXXXXXXXXXXXXXXXXXXX 
.................... INT1 PHIM_BT3(UNSIGNED INT16 DL,  UNSIGNED INT8 SOLAN  ) 
.................... {   
....................     IF (!INPUT(BT3)) 
....................     {   
....................       DL_BTN++; 
....................       IF(DL_BTN==1) RETURN(1); 
....................       ELSE 
....................       { 
....................          IF (DL_BTN>= DL) 
....................          DL_BTN =SOLAN; 
....................       } 
....................     } 
....................     ELSE    
....................     { 
....................       //DL_BTN =0; 
....................       RETURN(0); 
....................     } 
.................... }  
.................... //XXXXXXXXXXXXXXXXXXXXXXXXXXXXXXXXXXXXXXXXXXXX 
.................... //KHAI BAO DU LIEU 16 BIT CHO MODULE RELAY, TRIAC, BUZZER, DONG CO 
.................... //XXXXXXXXXXXXXXXXXXXXXXXXXXXXXXXXXXXXXXXXXXXX 
.................... UNSIGNED INT16 RBDC; 
.................... #BIT STEP_MOTOR_ENABLE  = RBDC.0    //1=ENA,0=DIS 
.................... #BIT STEP_MOTOR_IN1     = RBDC.1     
.................... #BIT STEP_MOTOR_IN2     = RBDC.2 
.................... #BIT STEP_MOTOR_IN3     = RBDC.3 
.................... #BIT STEP_MOTOR_IN4     = RBDC.4 
.................... #BIT DC_ENABLE          = RBDC.5    //1=ENA,0=DIS 
.................... #BIT PWRKEY             = RBDC.6    //KHOI TAO SIM900 
....................  
.................... #BIT BUZZER             = RBDC.8    //1=ON,0=OFF 
.................... #BIT TRIAC_1            = RBDC.9    //1=ON,0=OFF 
.................... #BIT TRIAC_2            = RBDC.10   //1=ON,0=OFF 
.................... #BIT RELAY_1            = RBDC.11   //0=ON,1=OFF 
.................... #BIT RELAY_2            = RBDC.12   //0=ON,1=OFF 
....................  
.................... //HAM 103 
.................... //XXXXXXXXXXXXXXXXXXXXXXXXXXXXXXXXXXXXXXXXXXXX 
.................... //CHUONG TRINH CON KHOI TAO IC CHOT 
.................... //XXXXXXXXXXXXXXXXXXXXXXXXXXXXXXXXXXXXXXXXXXXX          
.................... #DEFINE     CHO_IC_74573_A_GOI_DU_LIEU     OUTPUT_HIGH(ENABLE_573A) 
.................... #DEFINE     CHOT_IC_74573_A_GOI_DU_LIEU    OUTPUT_LOW(ENABLE_573A) 
....................  
.................... #DEFINE     CHO_IC_74573_B_GOI_DU_LIEU     OUTPUT_HIGH(ENABLE_573B) 
.................... #DEFINE     CHOT_IC_74573_B_GOI_DU_LIEU    OUTPUT_LOW(ENABLE_573B) 
.................... VOID MO_IC_74573_A_THONG_DL(); 
....................  
.................... //XXXXXXXXXXXXXXXXXXXXXXXXXXXXXXXXXXXXXXXXXXXX    
.................... CONST UNSIGNED CHAR MA7DOAN[16]= {0XC0,0XF9,0xA4,0XB0,0X99,0X92,0X82,0XF8, 
.................... 0X80,0X90,0x88, 0x83, 0xC6, 0xA1, 0x86, 0x8E}; 
.................... #DEFINE     MASO0    0XC0 
.................... #DEFINE     MASO1    0XF9 
.................... #DEFINE     MASO2    0XA4 
.................... #DEFINE     MASO3    0XB0 
.................... #DEFINE     MASO4    0X99 
.................... #DEFINE     MASO5    0X92 
.................... #DEFINE     MASO6    0X82 
.................... #DEFINE     MASO7    0XF8 
....................  
.................... //XXXXXXXXXXXXXXXXXXXXXXXXXXXXXXXXXXXXXXXXXXXX  
.................... //HAM 102 
.................... //XXXXXXXXXXXXXXXXXXXXXXXXXXXXXXXXXXXXXXXXXXXX     
.................... //XUAT 1 BYTE RA THANH GHI DICH 
.................... //XXXXXXXXXXXXXXXXXXXXXXXXXXXXXXXXXXXXXXXXXXXX     
.................... VOID XUAT_1BYTE(UNSIGNED INT8 BYTEXUAT) 
.................... { 
....................    UNSIGNED INT8   SB,X;    
....................    #BIT BSERI  = X.7 
....................    X = BYTEXUAT; 
*
014E:  MOVFF  451,453
....................    FOR (SB=0;SB<8;SB++) 
0152:  MOVLB  4
0154:  CLRF   x52
0156:  MOVF   x52,W
0158:  SUBLW  07
015A:  BNC   0178
....................       {                                                  
....................          OUTPUT_BIT(SSDO,BSERI);     
015C:  BTFSC  x53.7
015E:  BRA    0164
0160:  BCF    F8D.2
0162:  BRA    0166
0164:  BSF    F8D.2
0166:  BCF    F96.2
....................          OUTPUT_LOW(SSCK); OUTPUT_HIGH(SSCK); 
0168:  BCF    F96.0
016A:  BCF    F8D.0
016C:  BCF    F96.0
016E:  BSF    F8D.0
....................          X= X<<1;          
0170:  BCF    FD8.0
0172:  RLCF   x53,F
0174:  INCF   x52,F
0176:  BRA    0156
....................      } 
0178:  MOVLB  0
017A:  RETURN 0
.................... } 
.................... //XXXXXXXXXXXXXXXXXXXXXXXXXXXXXXXXXXXXXXXXXXXX  
.................... //HAM 301 
.................... //XXXXXXXXXXXXXXXXXXXXXXXXXXXXXXXXXXXXXXXXXXXX 
.................... //CHUONG TRINH CON XUAT 4 BYTE RA 32 LED DON 
.................... //XXXXXXXXXXXXXXXXXXXXXXXXXXXXXXXXXXXXXXXXXXXX 
.................... VOID XUAT_32LED_DON_4BYTE(UNSIGNED INT8 BLD3,BLD2,BLD1,BLD0) 
.................... {      
....................       XUAT_1BYTE(BLD3);           
....................       XUAT_1BYTE(BLD2); 
....................       XUAT_1BYTE(BLD1);           
....................       XUAT_1BYTE(BLD0);             
....................       MO_32_LED_DON;       
....................       MO_IC_74573_A_THONG_DL();             
....................       OUTPUT_HIGH(RCK_32LED);    OUTPUT_LOW(RCK_32LED); 
....................       CHOT_IC_74573_A_GOI_DU_LIEU;       
.................... } 
.................... //HAM 302 
.................... //XXXXXXXXXXXXXXXXXXXXXXXXXXXXXXXXXXXXXXXXXXXX 
.................... //CHUONG TRINH CON XUAT 2 WORD 16 BITRA 32 LED DON 
.................... //XXXXXXXXXXXXXXXXXXXXXXXXXXXXXXXXXXXXXXXXXXXX 
.................... VOID XUAT_32LED_DON_2WORD(UNSIGNED INT16 WLD1, UNSIGNED INT16 WLD0) 
.................... {      
....................      UNSIGNED INT8  B3,B2,B1,B0; 
....................      B3 = WLD1>>8;  B2 = WLD1;  
....................      B1 = WLD0>>8;  B0 = WLD0; 
....................      XUAT_32LED_DON_4BYTE(B3,B2,B1,B0); 
.................... } 
.................... //HAM 303 
.................... //XXXXXXXXXXXXXXXXXXXXXXXXXXXXXXXXXXXXXXXXXXXX 
.................... //CHUONG TRINH CON XUAT 1 DOUBLE WORD RA 32 LED DON 
.................... //XXXXXXXXXXXXXXXXXXXXXXXXXXXXXXXXXXXXXXXXXXXX 
.................... VOID XUAT_32LED_DON_1DW(UNSIGNED LONG LONG DWLD) 
.................... {      
....................      UNSIGNED INT16  WD1,WD0; 
....................      WD1 = DWLD>>16;  WD0 = DWLD; 
....................      XUAT_32LED_DON_2WORD(WD1,WD0); 
.................... } 
....................  
.................... //HAM 304 
.................... //XXXXXXXXXXXXXXXXXXXXXXXXXXXXXXXXXXXXXXXXXXXX 
.................... //CHUONG TRINH CON MO 32 LED DON SANG 
.................... //XXXXXXXXXXXXXXXXXXXXXXXXXXXXXXXXXXXXXXXXXXXX 
.................... VOID MO_32LED_DON() 
.................... {         
....................      XUAT_32LED_DON_1DW(0XFFFFFFFF); 
.................... } 
.................... //HAM 305 
.................... //XXXXXXXXXXXXXXXXXXXXXXXXXXXXXXXXXXXXXXXXXXXX 
.................... //CHUONG TRINH CON TAT 32 LED DON  
.................... //XXXXXXXXXXXXXXXXXXXXXXXXXXXXXXXXXXXXXXXXXXXX 
.................... VOID TAT_32LED_DON() 
.................... {         
....................      XUAT_32LED_DON_1DW(0); 
.................... } 
.................... //XXXXXXXXXXXXXXXXXXXXXXXXXXXXXXXXXXXXXXXXXXXX     
.................... //XUAT 1 BIT ROI TRA LAI KET QUA SAU KHI DICH DI 1 BIT 
.................... //XXXXXXXXXXXXXXXXXXXXXXXXXXXXXXXXXXXXXXXXXXXX     
.................... UNSIGNED  INT8 XUAT_1BIT(UNSIGNED INT8 BYTEXUAT) 
.................... { 
....................       UNSIGNED INT8   XBITX;    
....................       #BIT BSERIX  = XBITX.0 
....................       XBITX = BYTEXUAT; 
....................                                              
....................       OUTPUT_BIT(SSDO,BSERIX);     
....................       OUTPUT_LOW(SSCK); OUTPUT_HIGH(SSCK); 
....................       XBITX= XBITX>>1;    
....................       RETURN(XBITX);   
.................... } 
.................... //XXXXXXXXXXXXXXXXXXXXXXXXXXXXXXXXXXXXXXXXXXXX  
.................... //HAM 101 
.................... //XXXXXXXXXXXXXXXXXXXXXXXXXXXXXXXXXXXXXXXXXXXX     
.................... //HAM KHOI TAO CAC PORT VA IC CHOT 
.................... //XXXXXXXXXXXXXXXXXXXXXXXXXXXXXXXXXXXXXXXXXXXX     
.................... VOID SET_UP_PORT_IC_CHOT() 
.................... {      
....................       SET_TRIS_D(0x00);     
*
0130:  MOVLW  00
0132:  MOVWF  F95
....................       SET_TRIS_E(0X00); 
0134:  MOVWF  F96
....................       OUTPUT_D(0XFF); 
0136:  CLRF   F95
0138:  SETF   F8C
....................       TIN_HIEU_DK_74573_A=0XFF;   
013A:  SETF   04
....................       TIN_HIEU_DK_74573_B=0XFF;       
013C:  SETF   05
....................       CHOT_IC_74573_A_GOI_DU_LIEU; 
013E:  BCF    F95.1
0140:  BCF    F8C.1
....................       CHOT_IC_74573_B_GOI_DU_LIEU;   
0142:  BCF    F95.0
0144:  BCF    F8C.0
....................       RBDC=0; 
0146:  CLRF   08
0148:  CLRF   07
014A:  GOTO   138E (RETURN)
.................... } 
.................... //HAM 104 
.................... //XXXXXXXXXXXXXXXXXXXXXXXXXXXXXXXXXXXXXXXXXXXX     
.................... //XUAT CÁC THIEU DIEU KHIEN  
.................... //GIU NGUYEN CAC TRANG THAI CUA 2 MODULE KHAC 
.................... //XXXXXXXXXXXXXXXXXXXXXXXXXXXXXXXXXXXXXXXXXXXX     
.................... VOID MO_IC_74573_A_THONG_DL() 
.................... {      
....................       OUTPUT_D(0X00); 
*
017C:  CLRF   F95
017E:  CLRF   F8C
....................       OUTPUT_BIT(G_32LED,G_32A); 
0180:  BTFSC  04.4
0182:  BRA    0188
0184:  BCF    F8C.4
0186:  BRA    018A
0188:  BSF    F8C.4
018A:  BCF    F95.4
....................       OUTPUT_BIT(G_4LED7DOAN,G_4A); 
018C:  BTFSC  04.6
018E:  BRA    0194
0190:  BCF    F8C.6
0192:  BRA    0196
0194:  BSF    F8C.6
0196:  BCF    F95.6
....................       OUTPUT_BIT(G_LCD20X4,G_LCDA);   
0198:  BTFSC  04.2
019A:  BRA    01A0
019C:  BCF    F8C.2
019E:  BRA    01A2
01A0:  BSF    F8C.2
01A2:  BCF    F95.2
....................       CHO_IC_74573_A_GOI_DU_LIEU; 
01A4:  BCF    F95.1
01A6:  BSF    F8C.1
01A8:  GOTO   01C8 (RETURN)
.................... } 
.................... VOID MO_IC_74573_B_THONG_DL() 
.................... {      
....................       OUTPUT_D(0X00); 
....................       OUTPUT_BIT(G_MATRANLED,G_MTB); 
....................       OUTPUT_BIT(G_8LEDQUET,G_8B); 
....................       OUTPUT_BIT(G_BUZERELAY,G_RBDCB);  
....................       CHO_IC_74573_B_GOI_DU_LIEU; 
.................... } 
.................... //ham 401 
.................... //XXXXXXXXXXXXXXXXXXXXXXXXXXXXXXXXXXXXXXXXXXXX 
.................... //CHUONG TRINH CON XUAT 4 BYTE RA 4 LED 7 DOAN 
.................... //XXXXXXXXXXXXXXXXXXXXXXXXXXXXXXXXXXXXXXXXXXXX 
.................... VOID XUAT_4LED_7DOAN_4SO(UNSIGNED INT BL743,BL742,BL741,BL740) 
.................... {      
....................       XUAT_1BYTE(BL740);   XUAT_1BYTE(BL741); 
....................       XUAT_1BYTE(BL742);   XUAT_1BYTE(BL743); 
....................        
....................       MO_4_LED_7DOAN; 
....................       MO_IC_74573_A_THONG_DL(); 
....................         
....................       OUTPUT_LOW(RCK_4LED7DOAN);   OUTPUT_HIGH(RCK_4LED7DOAN);  
....................       CHOT_IC_74573_A_GOI_DU_LIEU; 
.................... } 
.................... //ham 404 
.................... VOID XUAT_4LED_7DOAN_3SO(UNSIGNED INT BL742,BL741,BL740) 
.................... {      
....................      XUAT_4LED_7DOAN_4SO(0XFF,BL742,BL741,BL740); 
.................... } 
.................... //ham 403 
.................... VOID XUAT_4LED_7DOAN_2SO(UNSIGNED INT BL741,BL740) 
.................... {      
....................      XUAT_4LED_7DOAN_4SO(0XFF,0XFF,BL741,BL740); 
.................... } 
.................... //ham 402 
.................... VOID XUAT_4LED_7DOAN_1SO(UNSIGNED INT BL740) 
.................... {      
....................      XUAT_4LED_7DOAN_4SO(0XFF,0XFF,0XFF,BL740); 
.................... } 
....................  
.................... //ham 405 
.................... //XXXXXXXXXXXXXXXXXXXXXXXXXXXXXXXXXXXXXXXXXXXXXXXXXXXXXXXXXXXXX 
.................... //CHUONG TRINH CON HIEN THI DU LIEU 16 BIT TREN 4 LED 7 DOAN 
.................... //XXXXXXXXXXXXXXXXXXXXXXXXXXXXXXXXXXXXXXXXXXXXXXXXXXXXXXXXXXXXX 
.................... UNSIGNED CHAR DONVI4,CHUC4,TRAM4,NGAN4; 
.................... VOID  XUAT_4LED_7DOAN_GIAIMA_XOA_SO0 (UNSIGNED INT16 TAM) 
.................... {          
....................       DONVI4 = MA7DOAN[TAM %10];          
....................       CHUC4  = MA7DOAN[TAM/10%10]; 
....................       TRAM4  = MA7DOAN[TAM/100%10];  
....................       NGAN4  = MA7DOAN[TAM/1000%10];        
....................       IF (NGAN4==0XC0) 
....................       { 
....................          NGAN4=0XFF; 
....................          IF (TRAM4==0XC0) 
....................          { 
....................             TRAM4=0XFF; 
....................             IF (CHUC4==0XC0)   CHUC4=0XFF; 
....................          } 
....................       } 
....................       XUAT_4LED_7DOAN_4SO(NGAN4,TRAM4,CHUC4,DONVI4);    
.................... } 
.................... UNSIGNED INT8 LCDDATA=0;  
.................... UNSIGNED INT8 LCDCONTROL=0; 
.................... UNSIGNED INT8 GLCDDATA=0; 
.................... UNSIGNED INT8 GLCDCONTROL=0;  
.................... //HAM 701 
.................... //XXXXXXXXXXXXXXXXXXXXXXXXXXXXXXXXXXXXXXXXXXXXXXXXXXXXXXXXXXXXX 
.................... //CHUONG TRINH CON XUAT DU LIEU 4 BYTE RA GLCD VA LCD 
.................... //XXXXXXXXXXXXXXXXXXXXXXXXXXXXXXXXXXXXXXXXXXXXXXXXXXXXXXXXXXXXX 
.................... VOID XUAT_GLCD_LCD() 
.................... {       
....................     XUAT_1BYTE(GLCDCONTROL);              
01AC:  MOVFF  10,451
01B0:  RCALL  014E
....................     XUAT_1BYTE(GLCDDATA); 
01B2:  MOVFF  0F,451
01B6:  RCALL  014E
....................     XUAT_1BYTE(LCDCONTROL);        
01B8:  MOVFF  0E,451
01BC:  RCALL  014E
....................     XUAT_1BYTE(LCDDATA);       
01BE:  MOVFF  0D,451
01C2:  RCALL  014E
....................        
....................     MO_GLCD_LCD; 
01C4:  BCF    04.2
....................     MO_IC_74573_A_THONG_DL();             
01C6:  BRA    017C
....................     OUTPUT_HIGH(RCK_LCD20X4);      
01C8:  BCF    F95.3
01CA:  BSF    F8C.3
....................     OUTPUT_LOW(RCK_LCD20X4); 
01CC:  BCF    F95.3
01CE:  BCF    F8C.3
....................     CHOT_IC_74573_A_GOI_DU_LIEU; 
01D0:  BCF    F95.1
01D2:  BCF    F8C.1
01D4:  RETURN 0
.................... } 
.................... //HAM 702 
.................... VOID XUAT_LCD20X4(UNSIGNED INT8 LCD_SIGNAL,LCD_INS_HTHI) 
.................... {      
....................     LCDCONTROL = ~LCD_SIGNAL; 
01D6:  MOVLB  4
01D8:  MOVFF  44F,0E
01DC:  COMF   0E,F
....................     LCDDATA    = ~LCD_INS_HTHI;       
01DE:  MOVFF  450,0D
01E2:  COMF   0D,F
....................     XUAT_GLCD_LCD(); 
01E4:  MOVLB  0
01E6:  RCALL  01AC
01E8:  RETURN 0
.................... } 
.................... //HAM 703 
.................... VOID XUAT_GLCD128X64(UNSIGNED INT8 GLCD_SIGNAL,GLCD_INS_HTHI) 
.................... {      
....................     GLCDCONTROL = ~GLCD_SIGNAL; 
*
065A:  MOVLB  4
065C:  MOVFF  44B,10
0660:  COMF   10,F
....................     GLCDDATA    = ~GLCD_INS_HTHI;      
0662:  MOVFF  44C,0F
0666:  COMF   0F,F
....................     XUAT_GLCD_LCD(); 
0668:  MOVLB  0
066A:  RCALL  01AC
066C:  RETURN 0
.................... } 
.................... //HAM 501 
.................... //XXXXXXXXXXXXXXXXXXXXXXXXXXXXXXXXXXXXXXXXXXXX 
.................... //CHUONG TRINH CON XUAT 2 BYTE RA DK 1 LED QUET SANG 
.................... //XXXXXXXXXXXXXXXXXXXXXXXXXXXXXXXXXXXXXXXXXXXX 
.................... VOID XUAT_8LED_7DOAN_QUET_1(UNSIGNED INT MA,SO_HTHI) 
.................... {      
....................       XUAT_1BYTE(~MA);   XUAT_1BYTE(~SO_HTHI); 
....................        
....................       MO_8_LED_QUET; 
....................       MO_IC_74573_B_THONG_DL(); 
....................        
....................       OUTPUT_HIGH(RCK_8LEDQUET); OUTPUT_LOW(RCK_8LEDQUET); 
....................       CHOT_IC_74573_B_GOI_DU_LIEU; 
.................... } 
.................... //HAM 502 
.................... //XXXXXXXXXXXXXXXXXXXXXXXXXXXXXXXXXXXXXXXXXXXX 
.................... //CHUONG TRINH CON XUAT 2 BYTE RA TAT 8 LED QUET 
.................... //XXXXXXXXXXXXXXXXXXXXXXXXXXXXXXXXXXXXXXXXXXXX 
.................... VOID XUAT_8LED_7DOAN_QUET_TAT_LED() 
.................... { 
....................    XUAT_8LED_7DOAN_QUET_1(0XFF,0XFF); 
.................... } 
.................... //HAM 503 
.................... //XXXXXXXXXXXXXXXXXXXXXXXXXXXXXXXXXXXXXXXXXXXX 
.................... //CHUONG TRINH CON HIEN THI LED THEO THU TU 
.................... //XXXXXXXXXXXXXXXXXXXXXXXXXXXXXXXXXXXXXXXXXXXX 
.................... CONST UNSIGNED CHAR TTLEDQUET[8]= {0x7F,0xBF,0xDF,0xEF,0xF7,0xFB,0xFD,0xFE}; 
.................... VOID XUAT_8LED_7DOAN_QUET_2(UNSIGNED INT THUTULED,SO_HTHI) 
.................... {          
....................       XUAT_1BYTE(~ (TTLEDQUET[THUTULED]));   XUAT_1BYTE(~SO_HTHI);      
....................       MO_8_LED_QUET; 
....................       MO_IC_74573_B_THONG_DL(); 
....................       OUTPUT_HIGH(RCK_8LEDQUET); OUTPUT_LOW(RCK_8LEDQUET); 
....................       CHOT_IC_74573_B_GOI_DU_LIEU; 
.................... } 
.................... //HAM 504 
.................... //XXXXXXXXXXXXXXXXXXXXXXXXXXXXXXXXXXXXXXXXXXXX 
.................... //CHUONG TRINH CON HIEN THI 8 SO TREN 8 LED QUET - CO KIEM TRA 
.................... //XXXXXXXXXXXXXXXXXXXXXXXXXXXXXXXXXXXXXXXXXXXX 
.................... UNSIGNED INT8 LED_7DQ[8]={0XFF,0XFF,0XFF,0XFF,0XFF,0XFF,0XFF,0XFF}; 
.................... UNSIGNED INT8 TT8LED=0; 
.................... VOID HIEN_THI_8LED_7DOAN_QUET() 
.................... {      
....................       FOR(TT8LED=0;TT8LED<8;TT8LED++) 
....................          IF (LED_7DQ[TT8LED]!=0XFF) 
....................          {            
....................             XUAT_8LED_7DOAN_QUET_2(TT8LED, LED_7DQ[TT8LED]); 
....................             DELAY_US(100); 
....................             XUAT_8LED_7DOAN_QUET_TAT_LED();            
....................             } 
.................... } 
.................... //HAM 505 
.................... //XXXXXXXXXXXXXXXXXXXXXXXXXXXXXXXXXXXXXXXXXXXX 
.................... //CHUONG TRINH CON HIEN THI 8 SO TREN 8 LED QUET - KHONG KIEM TRA 
.................... //XXXXXXXXXXXXXXXXXXXXXXXXXXXXXXXXXXXXXXXXXXXX 
.................... VOID HIEN_THI_8LED_7DOAN_QUET_ALL() 
.................... {      
....................       FOR(TT8LED=0;TT8LED<8;TT8LED++)          
....................          {            
....................             XUAT_8LED_7DOAN_QUET_2(TT8LED, LED_7DQ[TT8LED]); 
....................             DELAY_US(100); 
....................             XUAT_8LED_7DOAN_QUET_TAT_LED();            
....................             } 
.................... } 
....................  
.................... VOID DELAY_QUET_8LED(UNSIGNED INT16 DL) 
.................... {  
....................       UNSIGNED INT8 I; 
....................       FOR (I=0; I<DL;I++) 
....................       HIEN_THI_8LED_7DOAN_QUET_ALL(); 
.................... }  
....................  
.................... VOID GIAI_MA_GAN_CHO_8LED_QUET_16_XOA(UNSIGNED INT16 X) 
.................... {      
....................       LED_7DQ[0]= MA7DOAN [X %10];     
....................       LED_7DQ[1]= MA7DOAN [X/10%10]; 
....................       LED_7DQ[2]= MA7DOAN [X/100%10];     
....................       LED_7DQ[3]= MA7DOAN [X/1000%10]; 
....................       LED_7DQ[4]= MA7DOAN [X/10000%10]; 
....................       IF (LED_7DQ[4]==MASO0)  
....................       { 
....................             LED_7DQ[4]=0XFF; 
....................             IF (LED_7DQ[3]==MASO0)  
....................             { 
....................                LED_7DQ[3]=0XFF; 
....................                IF (LED_7DQ[2]==MASO0)  
....................                { 
....................                   LED_7DQ[2]=0XFF; 
....................                   IF (LED_7DQ[1]==MASO0)  
....................                   { 
....................                      LED_7DQ[1]=0XFF; 
....................                   } 
....................                } 
....................             } 
....................       } 
....................              
.................... } 
.................... //XXXXXXXXXXXXXXXXXXXXXXXXXXXXXXXXXXXXXXXXXXXX          
.................... VOID XUAT_2BYTE(UNSIGNED INT16 BYTE2XUAT) 
.................... { 
....................    INT8 SBB; 
....................    UNSIGNED INT16   XX;   //SHORT  BSERI; 
....................    #BIT BSERIX  = XX.15 
....................    XX = BYTE2XUAT; 
....................    FOR (SBB=0;SBB<16;SBB++) 
....................       {                                                  
....................          OUTPUT_BIT(SSDO,BSERIX);     
....................          OUTPUT_LOW(SSCK);          
....................          OUTPUT_HIGH(SSCK); 
....................          XX= XX<<1;          
....................      } 
.................... } 
.................... //XXXXXXXXXXXXXXXXXXXXXXXXXXXXXXXXXXXXXXXXXXXX 
.................... //CHUONG TRINH CON XUAT RA LED MA TRAN 
.................... //XXXXXXXXXXXXXXXXXXXXXXXXXXXXXXXXXXXXXXXXXXXX 
.................... VOID XUAT_MATRANLED(UNSIGNED INT16 MAHANG,UNSIGNED INT16 MACOT1, 
.................... UNSIGNED INT16 MACOT2,UNSIGNED INT16 MACOT3) 
.................... {       
....................       XUAT_2BYTE(MACOT3); 
....................       XUAT_2BYTE(MACOT2); 
....................       XUAT_2BYTE(MACOT1); 
....................       XUAT_2BYTE(MAHANG); 
....................        
....................       MO_LED_MATRAN; 
....................       MO_IC_74573_B_THONG_DL(); 
....................        
....................       OUTPUT_HIGH(RCK_MATRANLED); OUTPUT_LOW(RCK_MATRANLED);  
....................       CHOT_IC_74573_B_GOI_DU_LIEU; 
.................... } 
.................... //XXXXXXXXXXXXXXXXXXXXXXXXXXXXXXXXXXXXXXXXXXXX 
.................... //CHUONG TRINH CON XUAT RA LED MA TRAN 
.................... //XXXXXXXXXXXXXXXXXXXXXXXXXXXXXXXXXXXXXXXXXXXX 
.................... VOID TAT_MATRANLED() 
.................... {       
....................       XUAT_2BYTE(0); 
....................       XUAT_2BYTE(0); 
....................       XUAT_2BYTE(0); 
....................       XUAT_2BYTE(0);            
....................       OUTPUT_HIGH(RCK_MATRANLED);  
....................       OUTPUT_LOW(RCK_MATRANLED); 
.................... } 
.................... UNSIGNED  INT8 HIEU_CHINH_4BIT_CAO(UNSIGNED INT8 XZY) 
.................... { 
....................       INT1  BTG; 
....................       UNSIGNED INT8   BX;    
....................       #BIT BIT4  = BX.4 
....................       #BIT BIT5  = BX.5 
....................       #BIT BIT6  = BX.6 
....................       #BIT BIT7  = BX.7 
....................       BX=XZY; 
....................       BTG=BIT4;   BIT4=BIT7;  BIT7=BTG; 
....................       BTG=BIT5;   BIT5=BIT6;  BIT6=BTG;       
....................       RETURN(BX);   
.................... } 
.................... //HAM 601 
.................... //XXXXXXXXXXXXXXXXXXXXXXXXXXXXXXXXXXXXXXXXXXXXXXXXXXXX 
.................... //MODULE DIEU KHIEN RELAY,TRIAC, BUZZER, DONG CO, SIM 
.................... //XXXXXXXXXXXXXXXXXXXXXXXXXXXXXXXXXXXXXXXXXXXXXXXXXXXX 
.................... VOID XUAT_BUZZER_RELAY() 
.................... {      
....................    UNSIGNED INT8 RBDC1,RBDC2; 
....................       RBDC1=RBDC; RBDC2=RBDC>>8;       
....................       XUAT_1BYTE(RBDC2);       
....................       XUAT_1BYTE(RBDC1); 
....................       MO_RELAY_BUZZER_DC; 
....................       MO_IC_74573_B_THONG_DL(); 
....................        
....................       OUTPUT_HIGH(RCK_BUZERELAY);   OUTPUT_LOW(RCK_BUZERELAY); 
....................       CHOT_IC_74573_B_GOI_DU_LIEU; 
.................... } 
.................... //HAM 602 
.................... //XXXXXXXXXXXXXXXXXXXXXXXXXXXXXXXXXXXXXXXXXXXXXXXXXXXX 
.................... VOID BUZZER_ON() 
.................... {     
....................       BUZZER=1; 
....................       XUAT_BUZZER_RELAY();          
.................... } 
.................... //HAM 603 
.................... //XXXXXXXXXXXXXXXXXXXXXXXXXXXXXXXXXXXXXXXXXXXXXXXXXXXX 
.................... VOID BUZZER_OFF() 
.................... {      
....................       BUZZER=0; 
....................       XUAT_BUZZER_RELAY(); 
.................... } 
.................... //HAM 604 
.................... //XXXXXXXXXXXXXXXXXXXXXXXXXXXXXXXXXXXXXXXXXXXXXXXXXXXX 
.................... VOID RELAY_1_ON() 
.................... {     
....................       RELAY_1=1; 
....................       XUAT_BUZZER_RELAY();          
.................... } 
.................... //HAM 603 
.................... //XXXXXXXXXXXXXXXXXXXXXXXXXXXXXXXXXXXXXXXXXXXXXXXXXXXX 
.................... VOID RELAY_1_OFF() 
.................... {     
....................       RELAY_1=0; 
....................       XUAT_BUZZER_RELAY();          
.................... } 
.................... //HAM 604 
.................... //XXXXXXXXXXXXXXXXXXXXXXXXXXXXXXXXXXXXXXXXXXXXXXXXXXXX 
.................... VOID RELAY_2_ON() 
.................... {     
....................       RELAY_2=1; 
....................       XUAT_BUZZER_RELAY();          
.................... } 
.................... //HAM 607 
.................... //XXXXXXXXXXXXXXXXXXXXXXXXXXXXXXXXXXXXXXXXXXXXXXXXXXXX 
.................... VOID RELAY_2_OFF() 
.................... {     
....................       RELAY_2=0; 
....................       XUAT_BUZZER_RELAY();          
.................... } 
.................... //HAM 608 
.................... //XXXXXXXXXXXXXXXXXXXXXXXXXXXXXXXXXXXXXXXXXXXXXXXXXXXX 
.................... VOID RELAY_1_RELAY_2_ON() 
.................... {     
....................       RELAY_1=1;  RELAY_2=1; 
....................       XUAT_BUZZER_RELAY();          
.................... } 
.................... //HAM 609 
.................... //XXXXXXXXXXXXXXXXXXXXXXXXXXXXXXXXXXXXXXXXXXXXXXXXXXXX 
.................... VOID RELAY_1_RELAY_2_OFF() 
.................... {     
....................       RELAY_1=0;  RELAY_2=0; 
....................       XUAT_BUZZER_RELAY();          
.................... } 
.................... //HAM 610 
.................... //XXXXXXXXXXXXXXXXXXXXXXXXXXXXXXXXXXXXXXXXXXXXXXXXXXXX 
.................... VOID TRIAC_1_ON() 
.................... {     
....................       TRIAC_1=1; 
....................       XUAT_BUZZER_RELAY();          
.................... } 
.................... //HAM 611 
.................... //XXXXXXXXXXXXXXXXXXXXXXXXXXXXXXXXXXXXXXXXXXXXXXXXXXXX 
.................... VOID TRIAC_1_OFF() 
.................... {     
....................       TRIAC_1=0; 
....................       XUAT_BUZZER_RELAY();          
.................... } 
.................... //HAM 612 
.................... //XXXXXXXXXXXXXXXXXXXXXXXXXXXXXXXXXXXXXXXXXXXXXXXXXXXX 
.................... VOID TRIAC_2_ON() 
.................... {     
....................       TRIAC_2=1; 
....................       XUAT_BUZZER_RELAY();          
.................... } 
.................... //HAM 613 
.................... //XXXXXXXXXXXXXXXXXXXXXXXXXXXXXXXXXXXXXXXXXXXXXXXXXXXX 
.................... VOID TRIAC_2_OFF() 
.................... {     
....................       TRIAC_2=0; 
....................       XUAT_BUZZER_RELAY();          
.................... } 
.................... //XXXXXXXXXXXXXXXXXXXXXXXXXXXXXXXXXXXXXXXXXXXX 
....................  
....................  
....................  
.................... //!#INCLUDE <TV_PICKIT2_SHIFT_LCD.C> 
.................... #include <TV_PICKIT2_SHIFT_DS13B07_I2C.c> 
.................... #INCLUDE <TV_PICKIT2_SHIFT_LCD.c> 
.................... UNSIGNED INT8 LCD_CONTROL;   
.................... #bit LCD_P = LCD_CONTROL.3 
.................... #bit LCD_RS = LCD_CONTROL.2 
.................... #bit LCD_RW = LCD_CONTROL.1 
.................... #bit LCD_E  = LCD_CONTROL.0 
....................  
.................... #DEFINE LCD_FUNCTION_SET       0X38 
.................... #DEFINE LCD_DISPLAY_CONTROL    0X0C 
.................... #DEFINE LCD_CLEAR_DISPLAY      0X01 
.................... #DEFINE LCD_ENTRY_MODE         0X06 
.................... #DEFINE LCD_SHIFT_LEFT         0X18 
.................... #DEFINE LCD_SHIFT_RIGHT        0X1C 
....................  
.................... #DEFINE LCD_ADDR_LINE1         0X80 
.................... #DEFINE LCD_ADDR_LINE2         0XC0 
.................... #DEFINE LCD_ADDR_LINE3         0X94 
.................... #DEFINE LCD_ADDR_LINE4         0XD4 
....................  
.................... VOID LCD_XUAT_8BIT(INT8 LCD_DATA_X) 
.................... { 
....................       LCD_E=1; XUAT_LCD20X4(LCD_CONTROL,LCD_DATA_X);      
*
01EA:  BSF    1A.0
01EC:  MOVFF  1A,44F
01F0:  MOVFF  44E,450
01F4:  RCALL  01D6
....................       LCD_E=0; XUAT_LCD20X4(LCD_CONTROL,LCD_DATA_X);  
01F6:  BCF    1A.0
01F8:  MOVFF  1A,44F
01FC:  MOVFF  44E,450
0200:  RCALL  01D6
0202:  RETURN 0
.................... } 
.................... void LCD_COMMAND(INT8 LCD_DATA_X)    
....................   { 
....................       LCD_RS = 0; 
0204:  BCF    1A.2
....................       LCD_XUAT_8BIT(LCD_DATA_X); 
0206:  MOVFF  44D,44E
020A:  RCALL  01EA
....................       DELAY_US(20); 
020C:  MOVLW  20
020E:  MOVWF  00
0210:  DECFSZ 00,F
0212:  BRA    0210
0214:  BRA    0216
0216:  NOP   
0218:  RETURN 0
....................   } 
.................... void LCD_DATA(INT8 LCD_DATA_X)        
....................   { 
....................       LCD_RS = 1;      
*
058C:  BSF    1A.2
....................       LCD_XUAT_8BIT(LCD_DATA_X); 
058E:  MOVFF  44A,44E
0592:  RCALL  01EA
....................       DELAY_US(20); 
0594:  MOVLW  20
0596:  MOVWF  00
0598:  DECFSZ 00,F
059A:  BRA    0598
059C:  BRA    059E
059E:  NOP   
05A0:  RETURN 0
....................   } 
....................    
.................... VOID SETUP_LCD () 
.................... {                      
....................          LCD_E  = 0;  
*
0242:  BCF    1A.0
....................          LCD_RW = 0;  
0244:  BCF    1A.1
....................          LCD_RS = 1;  
0246:  BSF    1A.2
....................          LCD_P =0; 
0248:  BCF    1A.3
....................          LCD_COMMAND(LCD_FUNCTION_SET);          
024A:  MOVLW  38
024C:  MOVLB  4
024E:  MOVWF  x4D
0250:  MOVLB  0
0252:  RCALL  0204
....................          DELAY_US(40); 
0254:  MOVLW  42
0256:  MOVWF  00
0258:  DECFSZ 00,F
025A:  BRA    0258
025C:  NOP   
....................          LCD_COMMAND(LCD_DISPLAY_CONTROL);    
025E:  MOVLW  0C
0260:  MOVLB  4
0262:  MOVWF  x4D
0264:  MOVLB  0
0266:  RCALL  0204
....................          DELAY_US(40); 
0268:  MOVLW  42
026A:  MOVWF  00
026C:  DECFSZ 00,F
026E:  BRA    026C
0270:  NOP   
....................          LCD_COMMAND(LCD_CLEAR_DISPLAY);       
0272:  MOVLW  01
0274:  MOVLB  4
0276:  MOVWF  x4D
0278:  MOVLB  0
027A:  RCALL  0204
....................          DELAY_MS(2); 
027C:  MOVLW  02
027E:  MOVLB  4
0280:  MOVWF  x47
0282:  MOVLB  0
0284:  RCALL  021A
....................          LCD_COMMAND(LCD_ENTRY_MODE);        
0286:  MOVLW  06
0288:  MOVLB  4
028A:  MOVWF  x4D
028C:  MOVLB  0
028E:  RCALL  0204
....................          DELAY_US(40);                 
0290:  MOVLW  42
0292:  MOVWF  00
0294:  DECFSZ 00,F
0296:  BRA    0294
0298:  NOP   
029A:  GOTO   1392 (RETURN)
.................... } 
....................  
.................... CONST UNSIGNED CHAR LCD_SO_X[10+1+1+1+7][6] ={ 
....................                   0,1,2,5,3,4,               // SO 0 
....................                   1,2,32,3,7,3,              // SO 1 
....................                   6,6,2,5,3,3,               // SO 2 
....................                   6,6,2,3,3,4,               // SO 3 
....................                   7,3,7,32,32,7,             // SO 4 
....................                   7,6,6,3,3,4,               // SO 5 
....................                   0,6,6,5,3,4,               // SO 6 
....................                   1,1,7,32,32,7,             // SO 7 
....................                   0,6,2,5,3,4,               // SO 8 
....................                   0,6,2,3,3,4,               // SO 9 
....................                   32,32,32,32,32,32,         // KHOANG TRANG 0x20 tai vi tri 10 
....................                   0,6,2,5,32,32,              // CHU "P" tai vi tri 11 
....................                   32,32,32,32,7,32,           // DAU CHAM tai vi tri 12 
....................                   7, 32, 32, 7, 6, 7,          // CHU "B" tai vi tri 13 
....................                   7, 3, 7, 7, 32, 7,          // CHU "H" tai vi tri 14 
....................                   3, 3, 7, 7, 3, 7,           // CHU "d" tai vi tri 15 
....................                   32, 32, 32, 3, 3, 3,        // dau gach duoi tai vi tri 16 
....................                   32, 1, 32, 32, 32, 32,      // dau do (oC) tai vi tri 17 
....................                   7, 1, 1, 7, 3, 3,           // CHU "C" tai vi tri 18 
....................                   32, 1, 32, 32, 1, 32       // DAU HAI CHAM : tai vi tri 19 
....................                   }; 
....................                    
....................                    
.................... CONST UNSIGNED CHAR LCD_MA_8DOAN[] = { 
....................    0x07,0x0F,0x1F,0x1F,0x1F,0x1F,0x1F,0x1F,  //DOAN F - 0 
....................    0x1F,0x1F,0x1F,0X00,0X00,0X00,0X00,0X00,  //DOAN A - 1 
....................    0x1C,0x1E,0x1F,0x1F,0x1F,0x1F,0x1F,0x1F,  //DOAN B - 2 
....................    0X00,0X00,0X00,0X00,0X00,0x1F,0x1F,0x1F,  //DOAN D - 3 
....................    0x1F,0x1F,0x1F,0x1F,0x1F,0x1F,0x1E,0x1C,  //DOAN C - 4 
....................    0x1F,0x1F,0x1F,0x1F,0x1F,0x1F,0x0F,0x07,  //DOAN E - 5 
....................    0x1F,0x1F,0x1F,0X00,0X00,0X00,0x1F,0x1F,  //DOAN G+D-6  
....................    0x1F,0x1F,0x1F,0x1F,0x1F,0x1F,0x1F,0x1F}; //DOAN I  -7 
....................     
.................... VOID LCD_GOTO_XY(SIGNED INT8 X, SIGNED INT8 Y) 
.................... {  
....................    CONST UNSIGNED INT8 LCD_VITRI[]={0x80,0xC0,0x94,0xD4}; 
....................    LCD_COMMAND(LCD_VITRI[X]+Y); 
*
08BE:  CLRF   03
08C0:  MOVLB  4
08C2:  MOVF   x4A,W
08C4:  MOVFF  FF2,44C
08C8:  BCF    FF2.7
08CA:  MOVLB  0
08CC:  RCALL  00DC
08CE:  MOVLB  4
08D0:  BTFSC  x4C.7
08D2:  BSF    FF2.7
08D4:  ADDWF  x4B,W
08D6:  MOVWF  x4C
08D8:  MOVWF  x4D
08DA:  MOVLB  0
08DC:  RCALL  0204
08DE:  RETURN 0
.................... } 
....................  
.................... VOID XXX() 
.................... {  
....................    SIGNED INT8 X; 
....................    X= LCD_SO_X[0][0]; 
....................    X= LCD_MA_8DOAN[0]; 
.................... } 
....................  
.................... #define   GIAY_HTAI      0X55 
.................... #define   PHUT_HTAI      0X32 
.................... #define   GIO_HTAI       0X16 
.................... #define   THU_HTAI       1 
.................... #define   NGAY_HTAI      0X10 
.................... #define   THANG_HTAI     0X08 
.................... #define   NAM_HTAI       0X20       
.................... #define   MA_DS          0X91 
....................  
.................... #define  ADDR_WR_13B07   0xD0 
.................... #define  ADDR_RD_13B07   0xD1 
.................... #define  ADDR_MEM        0x00 
....................  
.................... //!UNSIGNED CHAR GIATRI_MOD; 
....................  
.................... UNSIGNED  CHAR    NAM_DS13,THANG_DS13,NGAY_DS13,THU_DS13,GIO_DS13, 
....................                   PHUT_DS13,GIAY_DS13,MA_DS13,CONTROL_DS13,GIAYTAM; 
....................                                 
.................... void THIET_LAP_THOI_GIAN_HIEN_TAI() 
.................... {     GIAY_DS13   =   GIAY_HTAI;       PHUT_DS13  =    PHUT_HTAI;    
*
05A2:  MOVLW  55
05A4:  MOVWF  21
05A6:  MOVLW  32
05A8:  MOVWF  20
....................       GIO_DS13    =   GIO_HTAI;        THU_DS13   =    THU_HTAI; 
05AA:  MOVLW  16
05AC:  MOVWF  1F
05AE:  MOVLW  01
05B0:  MOVWF  1E
....................       NGAY_DS13   =   NGAY_HTAI;       THANG_DS13 =    THANG_HTAI;    
05B2:  MOVLW  10
05B4:  MOVWF  1D
05B6:  MOVLW  08
05B8:  MOVWF  1C
....................       NAM_DS13    =   NAM_HTAI;    
05BA:  MOVLW  20
05BC:  MOVWF  1B
....................       CONTROL_DS13 = 0X90;             MA_DS13      =   MA_DS; 
05BE:  MOVLW  90
05C0:  MOVWF  23
05C2:  MOVLW  91
05C4:  MOVWF  22
05C6:  GOTO   13E8 (RETURN)
.................... } 
....................   
.................... void NAP_THOI_GIAN_HTAI_VAO_DS13B07() 
.................... {     I2C_START();          
05CA:  BSF    F93.0
05CC:  MOVLW  05
05CE:  MOVWF  00
05D0:  DECFSZ 00,F
05D2:  BRA    05D0
05D4:  BSF    F93.1
05D6:  MOVLW  06
05D8:  MOVWF  00
05DA:  DECFSZ 00,F
05DC:  BRA    05DA
05DE:  BCF    F8A.0
05E0:  BCF    F93.0
05E2:  MOVLW  05
05E4:  MOVWF  00
05E6:  DECFSZ 00,F
05E8:  BRA    05E6
05EA:  BCF    F8A.1
05EC:  BCF    F93.1
....................       I2C_WRITE(ADDR_WR_13B07);     
05EE:  MOVLW  D0
05F0:  MOVLB  4
05F2:  MOVWF  x46
05F4:  MOVLB  0
05F6:  RCALL  029E
....................       I2C_WRITE(0X00); 
05F8:  MOVLB  4
05FA:  CLRF   x46
05FC:  MOVLB  0
05FE:  RCALL  029E
....................       I2C_WRITE(GIAY_DS13);        I2C_WRITE(PHUT_DS13);       
0600:  MOVFF  21,446
0604:  RCALL  029E
0606:  MOVFF  20,446
060A:  RCALL  029E
....................       I2C_WRITE(GIO_DS13);         I2C_WRITE(THU_DS13);       
060C:  MOVFF  1F,446
0610:  RCALL  029E
0612:  MOVFF  1E,446
0616:  RCALL  029E
....................       I2C_WRITE(NGAY_DS13);        I2C_WRITE(THANG_DS13);             
0618:  MOVFF  1D,446
061C:  RCALL  029E
061E:  MOVFF  1C,446
0622:  RCALL  029E
....................       I2C_WRITE(NAM_DS13);         I2C_WRITE(CONTROL_DS13);    
0624:  MOVFF  1B,446
0628:  RCALL  029E
062A:  MOVFF  23,446
062E:  RCALL  029E
....................       I2C_WRITE(MA_DS13); 
0630:  MOVFF  22,446
0634:  RCALL  029E
....................       I2C_STOP(); 
0636:  BCF    F93.0
0638:  NOP   
063A:  BSF    F93.1
063C:  BTFSS  F81.1
063E:  BRA    063C
0640:  MOVLW  05
0642:  MOVWF  00
0644:  DECFSZ 00,F
0646:  BRA    0644
0648:  BRA    064A
064A:  NOP   
064C:  BSF    F93.0
064E:  MOVLW  05
0650:  MOVWF  00
0652:  DECFSZ 00,F
0654:  BRA    0652
0656:  GOTO   13EC (RETURN)
.................... } 
....................      
.................... void DOC_THOI_GIAN_TU_REALTIME() 
.................... {    
....................       I2C_START(); 
*
033C:  BSF    F93.0
033E:  MOVLW  05
0340:  MOVWF  00
0342:  DECFSZ 00,F
0344:  BRA    0342
0346:  BSF    F93.1
0348:  MOVLW  06
034A:  MOVWF  00
034C:  DECFSZ 00,F
034E:  BRA    034C
0350:  BCF    F8A.0
0352:  BCF    F93.0
0354:  MOVLW  05
0356:  MOVWF  00
0358:  DECFSZ 00,F
035A:  BRA    0358
035C:  BCF    F8A.1
035E:  BCF    F93.1
....................       I2C_WRITE(ADDR_WR_13B07); 
0360:  MOVLW  D0
0362:  MOVLB  4
0364:  MOVWF  x46
0366:  MOVLB  0
0368:  RCALL  029E
....................       I2C_WRITE(ADDR_MEM);                      
036A:  MOVLB  4
036C:  CLRF   x46
036E:  MOVLB  0
0370:  RCALL  029E
....................       I2C_START();                 
0372:  BSF    F93.0
0374:  MOVLW  05
0376:  MOVWF  00
0378:  DECFSZ 00,F
037A:  BRA    0378
037C:  BSF    F93.1
037E:  MOVLW  06
0380:  MOVWF  00
0382:  DECFSZ 00,F
0384:  BRA    0382
0386:  BTFSS  F81.1
0388:  BRA    0386
038A:  BCF    F8A.0
038C:  BCF    F93.0
038E:  MOVLW  05
0390:  MOVWF  00
0392:  DECFSZ 00,F
0394:  BRA    0392
0396:  BCF    F8A.1
0398:  BCF    F93.1
....................                  
....................       I2C_WRITE(ADDR_RD_13B07); 
039A:  MOVLW  D1
039C:  MOVLB  4
039E:  MOVWF  x46
03A0:  MOVLB  0
03A2:  RCALL  029E
....................       GIAY_DS13      =  I2C_READ();               
03A4:  MOVLW  01
03A6:  MOVWF  00
03A8:  RCALL  02F0
03AA:  MOVFF  01,21
....................       PHUT_DS13      =  I2C_READ();              
03AE:  MOVLW  01
03B0:  MOVWF  00
03B2:  RCALL  02F0
03B4:  MOVFF  01,20
....................       GIO_DS13       =  I2C_READ();              
03B8:  MOVLW  01
03BA:  MOVWF  00
03BC:  RCALL  02F0
03BE:  MOVFF  01,1F
....................       THU_DS13       =  I2C_READ();  
03C2:  MOVLW  01
03C4:  MOVWF  00
03C6:  RCALL  02F0
03C8:  MOVFF  01,1E
....................       NGAY_DS13      =  I2C_READ();  
03CC:  MOVLW  01
03CE:  MOVWF  00
03D0:  RCALL  02F0
03D2:  MOVFF  01,1D
....................       THANG_DS13     =  I2C_READ();  
03D6:  MOVLW  01
03D8:  MOVWF  00
03DA:  RCALL  02F0
03DC:  MOVFF  01,1C
....................       NAM_DS13       =  I2C_READ();  
03E0:  MOVLW  01
03E2:  MOVWF  00
03E4:  RCALL  02F0
03E6:  MOVFF  01,1B
....................       CONTROL_DS13   =  I2C_READ();           
03EA:  MOVLW  01
03EC:  MOVWF  00
03EE:  RCALL  02F0
03F0:  MOVFF  01,23
....................       MA_DS13        =  I2C_READ(0);     //NOT ACK 
03F4:  CLRF   00
03F6:  RCALL  02F0
03F8:  MOVFF  01,22
....................       I2C_STOP(); 
03FC:  BCF    F93.0
03FE:  NOP   
0400:  BSF    F93.1
0402:  BTFSS  F81.1
0404:  BRA    0402
0406:  MOVLW  05
0408:  MOVWF  00
040A:  DECFSZ 00,F
040C:  BRA    040A
040E:  BRA    0410
0410:  NOP   
0412:  BSF    F93.0
0414:  MOVLW  05
0416:  MOVWF  00
0418:  DECFSZ 00,F
041A:  BRA    0418
041C:  RETURN 0
.................... }     
....................  
....................     
.................... void DOC_GIAY_TU_REALTIME() 
.................... {    
....................       I2C_START(); 
....................       I2C_WRITE(ADDR_WR_13B07); 
....................       I2C_WRITE(ADDR_MEM);                      
....................       I2C_START();                 
....................                  
....................       I2C_WRITE(ADDR_RD_13B07); 
....................       GIAY_DS13      =  I2C_READ(0);               
....................       I2C_STOP(); 
.................... }   
....................          
....................   
.................... void HIEN_THI_THOI_GIAN_DS13B07 ( ) 
.................... {     LCD_COMMAND (0x8C);    
....................       LCD_DATA(GIO_DS13/16  +0X30);    LCD_DATA(GIO_DS13%16  +0X30); 
....................       LCD_DATA(' '); 
....................       LCD_DATA(PHUT_DS13/16 +0X30);    LCD_DATA(PHUT_DS13%16 +0X30); 
....................       LCD_DATA(' '); 
....................       LCD_DATA(GIAY_DS13/16 +0X30);    LCD_DATA(GIAY_DS13%16 +0X30); 
....................       LCD_COMMAND (0xCC);   
....................       LCD_DATA(NGAY_DS13/16 +0X30);    LCD_DATA(NGAY_DS13%16 +0X30); 
....................       LCD_DATA(' '); 
....................       LCD_DATA(THANG_DS13/16 +0X30);   LCD_DATA(THANG_DS13%16 +0X30); 
....................       LCD_DATA(' '); 
....................       LCD_DATA(NAM_DS13/16 +0X30);     LCD_DATA(NAM_DS13%16 +0X30);  
.................... } 
....................  
.................... //!void HT_DS1307 ( ) 
.................... //!{      
.................... //!    LCD_COMMAND (0x8C);    
.................... //!      LCD_DATA(GIO_DS13/16  +0X30);    LCD_DATA(GIO_DS13%16  +0X30); 
.................... //!      LCD_DATA(' '); 
.................... //!      LCD_DATA(PHUT_DS13/16 +0X30);    LCD_DATA(PHUT_DS13%16 +0X30); 
.................... //!      LCD_DATA(' '); 
.................... //!      LCD_DATA(GIAY_DS13/16 +0X30);    LCD_DATA(GIAY_DS13%16 +0X30); 
.................... //!      LCD_COMMAND (0xC6); 
.................... //!      LCD_DATA("THU "); 
.................... //!      LCD_DATA(THU_DS13 +0X30);  
.................... //!      LCD_COMMAND (0xCC);   
.................... //!      LCD_DATA(NGAY_DS13/16 +0X30);    LCD_DATA(NGAY_DS13%16 +0X30); 
.................... //!      LCD_DATA(' '); 
.................... //!      LCD_DATA(THANG_DS13/16 +0X30);   LCD_DATA(THANG_DS13%16 +0X30); 
.................... //!      LCD_DATA(' '); 
.................... //!      LCD_DATA(NAM_DS13/16 +0X30);     LCD_DATA(NAM_DS13%16 +0X30);  
.................... //!} 
.................... //! 
.................... //!VOID HIEN_THI_GIA_TRI_MOD() 
.................... //!{ 
.................... //!   LCD_COMMAND(0X8A); 
.................... //!   LCD_DATA(GIATRI_MOD + 0X30); 
.................... //!} 
....................  
.................... // VI TRI 
.................... //!NAM_DS13==0XD2 
.................... //!THANG_DS13==0XCF 
.................... //!NGAY_DS13==0XCC 
.................... //!GIO_DS13==0X8C 
.................... //!PHUT_DS13==0X8F 
.................... //!GIAY_DS13==0X92 
....................  
.................... #include <tv_pickit2_shift_ds18b20.c> 
.................... #DEFINE     TOUCH_PIN PIN_A5 
.................... #INCLUDE    <TOUCH.c> 
.................... /////////////////////////////////////////////////////////////////////////// 
.................... ////                        Dallas Touch Driver                        //// 
.................... ////                                                                   //// 
.................... ////                                                                   //// 
.................... ////  data = touch_read_bit()     Reads one bit from a touch device    //// 
.................... ////                                                                   //// 
.................... ////  data = touch_read_BYTE()    Reads one byte from a touch device.  //// 
.................... ////                                                                   //// 
.................... ////  ok = touch_write_bit(data)  Writes one bit to a touch device     //// 
.................... ////                              and returns true if all went ok.     //// 
.................... ////                              A false indicates a collision with   //// 
.................... ////                              another device.                      //// 
.................... ////                                                                   //// 
.................... ////  ok = touch_write_byte(data) Writes one byte to a touch device    //// 
.................... ////                              and returns true if all went ok.     //// 
.................... ////                              A false indicates a collision with   //// 
.................... ////                              another device.                      //// 
.................... ////                                                                   //// 
.................... ////  present = touch_present()   Issues a reset and returns true      //// 
.................... ////                              if the touch device is there.        //// 
.................... ////                                                                   //// 
.................... ////  reset_pulse()               Issues a reset and waits for a       //// 
.................... ////                              present pulse.                       //// 
.................... ////                                                                   //// 
.................... /////////////////////////////////////////////////////////////////////////// 
.................... ////        (C) Copyright 1996,2010 Custom Computer Services           //// 
.................... //// This source code may only be used by licensed users of the CCS C  //// 
.................... //// compiler.  This source code may only be distributed to other      //// 
.................... //// licensed users of the CCS C compiler.  No other use, reproduction //// 
.................... //// or distribution is permitted without written permission.          //// 
.................... //// Derivative programs created using this software in object code    //// 
.................... //// form are not restricted in any way.                               //// 
.................... /////////////////////////////////////////////////////////////////////////// 
....................  
.................... #ifndef  TOUCH_C 
.................... #define  TOUCH_C 
....................  
.................... #ifndef TOUCH_PIN 
....................    #define TOUCH_PIN  PIN_B0 
.................... #endif 
....................  
.................... #define TOUCH_PIN_LOW()    output_drive(TOUCH_PIN); output_low(TOUCH_PIN) 
.................... #define TOUCH_PIN_HIGH()    output_drive(TOUCH_PIN); output_high(TOUCH_PIN) 
.................... #define TOUCH_PIN_FLOAT()  output_float(TOUCH_PIN) 
.................... #define TOUCH_PIN_READ()      input_state(TOUCH_PIN) 
....................  
.................... ///////////////////////////// 
.................... ////                     //// 
.................... //// Function Prototypes //// 
.................... ////                     //// 
.................... ///////////////////////////// 
....................  
.................... /* 
.................... int1 touch_read_bit() 
.................... This will read back a bit from the DS1993 
.................... PARAMS: none 
.................... RETURNS: A bit from the DS1993 
.................... */ 
.................... int1 touch_read_bit(); 
....................  
.................... /* 
.................... BYTE touch_read_byte() 
.................... This will read back a byte from the DS1993 
.................... PARAMS: none 
.................... RETURNS: A byte from the DS1993 
.................... */ 
.................... BYTE touch_read_byte(); 
....................  
.................... /* 
.................... BOOLEAN touch_write_bit(int1 data) 
.................... This will write a bit to the DS1993 
.................... PARAMS: The bit to write 
.................... RETURNS: True if completed successfully, false if otherwise 
.................... */ 
.................... BOOLEAN touch_write_bit(int1 data); 
....................  
.................... /* 
.................... BOOLEAN touch_write_byte(BYTE data) 
.................... This will write a byte to the DS1993 
.................... PARAMS: The byte to write 
.................... RETURNS: True if completed successfully, false if otherwise 
.................... */ 
.................... BOOLEAN touch_write_byte(BYTE data); 
....................  
.................... /* 
.................... BOOLEAN touch_present() 
.................... This will evaluate whether or not there is a touch present on the DS1993 
.................... PARAMS: none 
.................... RETURNS: True if a touch is present, false if otherwise 
.................... */ 
.................... BOOLEAN touch_present(); 
....................  
.................... /* 
.................... void reset_pulse() 
.................... This will send the DS1993 a reset pulse 
.................... PARAMS: none 
.................... RETURNS: none 
.................... */ 
.................... void reset_pulse(); 
....................  
.................... ////////////////////////////////// 
.................... ////                          //// 
.................... //// Function Implementations //// 
.................... ////                          //// 
.................... ////////////////////////////////// 
....................  
.................... /* 
.................... int1 touch_read_bit() 
.................... This will read back a bit from the DS1993 
.................... PARAMS: none 
.................... RETURNS: A bit from the DS1993 
.................... */ 
.................... int1 touch_read_bit() 
.................... { 
....................    int1 data; 
....................  
....................    TOUCH_PIN_LOW(); 
*
0786:  BCF    F92.5
0788:  BCF    F92.5
078A:  BCF    F89.5
....................    delay_us(14); 
078C:  MOVLW  16
078E:  MOVWF  00
0790:  DECFSZ 00,F
0792:  BRA    0790
0794:  BRA    0796
0796:  NOP   
....................    TOUCH_PIN_FLOAT(); 
0798:  BSF    F92.5
....................    delay_us(5); 
079A:  MOVLW  07
079C:  MOVWF  00
079E:  DECFSZ 00,F
07A0:  BRA    079E
07A2:  BRA    07A4
07A4:  NOP   
....................    data = TOUCH_PIN_READ(); 
07A6:  MOVLB  4
07A8:  BCF    x48.0
07AA:  BTFSC  F80.5
07AC:  BSF    x48.0
....................    delay_us(100); 
07AE:  MOVLW  A6
07B0:  MOVWF  00
07B2:  DECFSZ 00,F
07B4:  BRA    07B2
07B6:  NOP   
....................  
....................    return data; 
07B8:  MOVLW  00
07BA:  BTFSC  x48.0
07BC:  MOVLW  01
07BE:  MOVWF  01
07C0:  MOVLB  0
07C2:  GOTO   07D6 (RETURN)
.................... } 
....................  
.................... /* 
.................... BYTE touch_read_byte() 
.................... This will read back a byte from the DS1993 
.................... PARAMS: none 
.................... RETURNS: A byte from the DS1993 
.................... */ 
.................... BYTE touch_read_byte() 
.................... { 
....................    BYTE i,data; 
....................  
....................    for(i=1; i <= 8; ++i) 
07C6:  MOVLW  01
07C8:  MOVLB  4
07CA:  MOVWF  x46
07CC:  MOVF   x46,W
07CE:  SUBLW  08
07D0:  BNC   07E8
....................       shift_right(&data, 1, touch_read_bit()); 
07D2:  MOVLB  0
07D4:  BRA    0786
07D6:  MOVF   01,F
07D8:  BNZ   07DE
07DA:  BCF    FD8.0
07DC:  BRA    07E0
07DE:  BSF    FD8.0
07E0:  MOVLB  4
07E2:  RRCF   x47,F
07E4:  INCF   x46,F
07E6:  BRA    07CC
....................  
....................    return data; 
07E8:  MOVFF  447,01
07EC:  MOVLB  0
07EE:  RETURN 0
.................... } 
....................  
.................... /* 
.................... BOOLEAN touch_write_bit(int1 data) 
.................... This will write a bit to the DS1993 
.................... PARAMS: The bit to write 
.................... RETURNS: True if completed successfully, false if otherwise 
.................... */ 
.................... BOOLEAN touch_write_bit(int1 data) 
.................... { 
....................    TOUCH_PIN_LOW(); 
*
0498:  BCF    F92.5
049A:  BCF    F92.5
049C:  BCF    F89.5
....................    delay_us(10); 
049E:  MOVLW  10
04A0:  MOVWF  00
04A2:  DECFSZ 00,F
04A4:  BRA    04A2
04A6:  NOP   
....................    if(data) 
04A8:  MOVLB  4
04AA:  MOVF   x49,F
04AC:  BZ    04CA
....................    { 
....................       TOUCH_PIN_HIGH(); 
04AE:  BCF    F92.5
04B0:  BCF    F92.5
04B2:  BSF    F89.5
....................       delay_us(10); 
04B4:  MOVLW  10
04B6:  MOVWF  00
04B8:  DECFSZ 00,F
04BA:  BRA    04B8
04BC:  NOP   
....................       if(!TOUCH_PIN_READ()) 
04BE:  BTFSC  F80.5
04C0:  BRA    04C8
....................          return FALSE; 
04C2:  MOVLW  00
04C4:  MOVWF  01
04C6:  BRA    0506
....................    } 
04C8:  BRA    04E4
....................    else 
....................    { 
....................       TOUCH_PIN_LOW(); 
04CA:  BCF    F92.5
04CC:  BCF    F92.5
04CE:  BCF    F89.5
....................       delay_us(10); 
04D0:  MOVLW  10
04D2:  MOVWF  00
04D4:  DECFSZ 00,F
04D6:  BRA    04D4
04D8:  NOP   
....................       if(TOUCH_PIN_READ()) 
04DA:  BTFSS  F80.5
04DC:  BRA    04E4
....................          return FALSE; 
04DE:  MOVLW  00
04E0:  MOVWF  01
04E2:  BRA    0506
....................    } 
....................    delay_us(50); 
04E4:  MOVLW  52
04E6:  MOVWF  00
04E8:  DECFSZ 00,F
04EA:  BRA    04E8
04EC:  BRA    04EE
04EE:  NOP   
....................    TOUCH_PIN_HIGH(); 
04F0:  BCF    F92.5
04F2:  BCF    F92.5
04F4:  BSF    F89.5
....................    delay_us(50); 
04F6:  MOVLW  52
04F8:  MOVWF  00
04FA:  DECFSZ 00,F
04FC:  BRA    04FA
04FE:  BRA    0500
0500:  NOP   
....................    return TRUE; 
0502:  MOVLW  01
0504:  MOVWF  01
0506:  MOVLB  0
0508:  GOTO   052A (RETURN)
.................... } 
....................  
.................... /* 
.................... BOOLEAN touch_write_byte(BYTE data) 
.................... This will write a byte to the DS1993 
.................... PARAMS: The byte to write 
.................... RETURNS: True if completed successfully, false if otherwise 
.................... */ 
.................... BOOLEAN touch_write_byte(BYTE data) 
.................... { 
....................    BYTE i; 
....................  
....................    for(i=1; i<=8; ++i) 
050C:  MOVLW  01
050E:  MOVLB  4
0510:  MOVWF  x47
0512:  MOVF   x47,W
0514:  SUBLW  08
0516:  BNC   053A
....................       if(!touch_write_bit(shift_right(&data, 1, 0))) 
0518:  BCF    FD8.0
051A:  RRCF   x46,F
051C:  MOVLW  00
051E:  BTFSC  FD8.0
0520:  MOVLW  01
0522:  MOVWF  x48
0524:  MOVWF  x49
0526:  MOVLB  0
0528:  BRA    0498
052A:  MOVF   01,F
052C:  BNZ   0534
....................          return FALSE; 
052E:  MOVLW  00
0530:  MOVWF  01
0532:  BRA    0540
0534:  MOVLB  4
0536:  INCF   x47,F
0538:  BRA    0512
....................  
....................    return TRUE; 
053A:  MOVLW  01
053C:  MOVWF  01
053E:  MOVLB  0
0540:  RETURN 0
.................... } 
....................  
.................... /* 
.................... BOOLEAN touch_present() 
.................... This will evaluate whether or not there is a touch present on the DS1993 
.................... PARAMS: none 
.................... RETURNS: True if a touch is present, false if otherwise 
.................... */ 
.................... BOOLEAN touch_present() 
.................... { 
....................    BOOLEAN present; 
....................    TOUCH_PIN_LOW(); 
*
043E:  BCF    F92.5
0440:  BCF    F92.5
0442:  BCF    F89.5
....................    delay_us(500); 
0444:  MOVLW  02
0446:  MOVLB  4
0448:  MOVWF  x47
044A:  MOVLW  F9
044C:  MOVWF  x48
044E:  MOVLB  0
0450:  RCALL  041E
0452:  MOVLB  4
0454:  DECFSZ x47,F
0456:  BRA    044A
....................    TOUCH_PIN_FLOAT(); 
0458:  BSF    F92.5
....................    delay_us(5); 
045A:  MOVLW  07
045C:  MOVWF  00
045E:  DECFSZ 00,F
0460:  BRA    045E
0462:  BRA    0464
0464:  NOP   
....................  
....................    if(!TOUCH_PIN_READ()) 
0466:  BTFSC  F80.5
0468:  BRA    0470
....................       return FALSE; 
046A:  MOVLW  00
046C:  MOVWF  01
046E:  BRA    0494
....................  
....................    delay_us(65); 
0470:  MOVLW  6B
0472:  MOVWF  00
0474:  DECFSZ 00,F
0476:  BRA    0474
0478:  BRA    047A
047A:  NOP   
....................    present = !TOUCH_PIN_READ(); 
047C:  BCF    x46.0
047E:  BTFSS  F80.5
0480:  BSF    x46.0
....................    delay_us(240); 
0482:  MOVLW  F0
0484:  MOVWF  x48
0486:  MOVLB  0
0488:  RCALL  041E
....................    return present; 
048A:  MOVLW  00
048C:  MOVLB  4
048E:  BTFSC  x46.0
0490:  MOVLW  01
0492:  MOVWF  01
0494:  MOVLB  0
0496:  RETURN 0
.................... } 
....................  
.................... /* 
.................... void reset_pulse() 
.................... This will send the DS1993 a reset pulse 
.................... PARAMS: none 
.................... RETURNS: none 
.................... */ 
.................... void reset_pulse() 
.................... { 
....................    TOUCH_PIN_LOW(); 
....................    delay_us(500); 
....................    TOUCH_PIN_FLOAT(); 
....................    delay_us(5); 
....................    while(!touch_present()); 
.................... } 
....................  
....................  
.................... #endif 
....................  
.................... #DEFINE       SKIP_ROM              0xCC 
.................... #DEFINE       CONVERT_T             0x44 
.................... #DEFINE       READ_SCRATCHPAD       0xBE 
.................... #DEFINE       WRITE_SCRATCHPAD      0x4E 
.................... #DEFINE       COPY_SCRATCHPAD       0x48     
.................... UNSIGNED INT8     DS18AL, DS18AH, DS18A_TAM; 
.................... UNSIGNED INT16    DS18A; 
.................... unsigned int8 NGUYEN; 
.................... unsigned int8 TP; 
.................... VOID  KHOI_TAO_DS18B20() 
.................... {                          
....................       TOUCH_PRESENT(); 
*
0542:  RCALL  043E
....................       TOUCH_WRITE_BYTE(SKIP_ROM);       
0544:  MOVLW  CC
0546:  MOVLB  4
0548:  MOVWF  x46
054A:  MOVLB  0
054C:  RCALL  050C
....................       TOUCH_WRITE_BYTE(WRITE_SCRATCHPAD);     
054E:  MOVLW  4E
0550:  MOVLB  4
0552:  MOVWF  x46
0554:  MOVLB  0
0556:  RCALL  050C
....................       TOUCH_WRITE_BYTE(0x0);       // ghi 2 byte rong 
0558:  MOVLB  4
055A:  CLRF   x46
055C:  MOVLB  0
055E:  RCALL  050C
....................       TOUCH_WRITE_BYTE(0x0);       // 
0560:  MOVLB  4
0562:  CLRF   x46
0564:  MOVLB  0
0566:  RCALL  050C
.................... //!      TOUCH_WRITE_BYTE(0x1F);      //Cau hinh do phan giai 9 bit 
.................... //!      TOUCH_WRITE_BYTE(0x3F);      //Cau hinh do phan giai 10 bit 
....................       TOUCH_WRITE_BYTE(0x7F);      //Cau hinh do phan giai 11 bit 
0568:  MOVLW  7F
056A:  MOVLB  4
056C:  MOVWF  x46
056E:  MOVLB  0
0570:  RCALL  050C
....................  
....................       TOUCH_PRESENT(); 
0572:  RCALL  043E
....................       TOUCH_WRITE_BYTE(SKIP_ROM);       
0574:  MOVLW  CC
0576:  MOVLB  4
0578:  MOVWF  x46
057A:  MOVLB  0
057C:  RCALL  050C
....................       TOUCH_WRITE_BYTE(COPY_SCRATCHPAD);  
057E:  MOVLW  48
0580:  MOVLB  4
0582:  MOVWF  x46
0584:  MOVLB  0
0586:  RCALL  050C
0588:  GOTO   139A (RETURN)
.................... } 
.................... VOID  DOC_GIATRI_DS18B20() 
.................... {  
....................       TOUCH_WRITE_BYTE(SKIP_ROM); 
*
07F0:  MOVLW  CC
07F2:  MOVLB  4
07F4:  MOVWF  x46
07F6:  MOVLB  0
07F8:  RCALL  050C
....................       TOUCH_WRITE_BYTE (CONVERT_T);    
07FA:  MOVLW  44
07FC:  MOVLB  4
07FE:  MOVWF  x46
0800:  MOVLB  0
0802:  RCALL  050C
....................       TOUCH_PRESENT(); 
0804:  RCALL  043E
....................       TOUCH_WRITE_BYTE(SKIP_ROM); 
0806:  MOVLW  CC
0808:  MOVLB  4
080A:  MOVWF  x46
080C:  MOVLB  0
080E:  RCALL  050C
....................       TOUCH_WRITE_BYTE(READ_SCRATCHPAD);   
0810:  MOVLW  BE
0812:  MOVLB  4
0814:  MOVWF  x46
0816:  MOVLB  0
0818:  RCALL  050C
....................       DS18AL = TOUCH_READ_BYTE(); 
081A:  RCALL  07C6
081C:  MOVFF  01,25
....................       DS18AH = TOUCH_READ_BYTE();       
0820:  RCALL  07C6
0822:  MOVFF  01,26
....................       DS18A   =  MAKE16(DS18AH,DS18AL); 
0826:  MOVFF  26,29
082A:  MOVFF  25,28
....................        
....................       // MODIFIED 
....................       NGUYEN = DS18A >> 4; // LAY PHAN NGUYEN 
082E:  RRCF   29,W
0830:  MOVWF  03
0832:  RRCF   28,W
0834:  MOVWF  02
0836:  RRCF   03,F
0838:  RRCF   02,F
083A:  RRCF   03,F
083C:  RRCF   02,F
083E:  RRCF   03,F
0840:  RRCF   02,F
0842:  MOVFF  02,2A
....................        
.................... //!      TP = (DS18A&0X000F)*10/16; //LAY THAP PHAN 1 SO 
.................... //!      TP = (DS18A&0X000F)*100/16; //LAY THAP PHAN 2 SO 
....................       TP = (DS18A&0X000F)*1000/16; //LAY THAP PHAN 3 SO 
0846:  MOVF   28,W
0848:  ANDLW  0F
084A:  MOVLB  4
084C:  MOVWF  x46
084E:  CLRF   x47
0850:  MOVFF  447,467
0854:  MOVWF  x66
0856:  MOVLW  03
0858:  MOVWF  x69
085A:  MOVLW  E8
085C:  MOVWF  x68
085E:  MOVLB  0
0860:  RCALL  06EA
0862:  MOVFF  02,447
0866:  MOVLB  4
0868:  RRCF   02,W
086A:  MOVWF  03
086C:  RRCF   01,W
086E:  MOVWF  02
0870:  RRCF   03,F
0872:  RRCF   02,F
0874:  RRCF   03,F
0876:  RRCF   02,F
0878:  RRCF   03,F
087A:  RRCF   02,F
087C:  MOVFF  02,2B
0880:  MOVLB  0
0882:  GOTO   1434 (RETURN)
....................        
.................... } 
....................              
....................  
....................  
.................... #include <tv_pickit2_shift_glcd128x64.c> 
.................... UNSIGNED INT8 GLCD_CONTROL;   
.................... #bit GLCD_P    = GLCD_CONTROL.5 
.................... #bit GLCD_RS   = GLCD_CONTROL.4 
.................... #bit GLCD_RW   = GLCD_CONTROL.3 
.................... #bit GLCD_E    = GLCD_CONTROL.2 
.................... #bit GLCD_CS2  = GLCD_CONTROL.1 
.................... #bit GLCD_CS1  = GLCD_CONTROL.0 
....................  
.................... //#DEFINE GLCD_FUNCTION_SET       0X30 
.................... #DEFINE GLCD_TEXT_MODE          0x30 
.................... #DEFINE GLCD_GRAPHIC_MODE       0x36  
....................  
.................... #DEFINE GLCD_CLEAR_DISPLAY      0X01 
.................... #DEFINE GLCD_CURSOR_DISPLAY     0X0C 
.................... #DEFINE GLCD_ENTRY_MODE         0X06 
....................  
....................  
.................... #DEFINE GLCD_ADDR_LINE1         0X80 
.................... #DEFINE GLCD_ADDR_LINE2         0X90 
.................... #DEFINE GLCD_ADDR_LINE3         0X88 
.................... #DEFINE GLCD_ADDR_LINE4         0X98 
....................  
.................... VOID GLCD_XUAT_8BIT(INT8 GLCD_DATA1) 
.................... { 
....................       GLCD_E=1; XUAT_GLCD128X64(GLCD_CONTROL,GLCD_DATA1);      
*
066E:  BSF    2C.2
0670:  MOVFF  2C,44B
0674:  MOVFF  44A,44C
0678:  RCALL  065A
....................       GLCD_E=0; XUAT_GLCD128X64(GLCD_CONTROL,GLCD_DATA1);  
067A:  BCF    2C.2
067C:  MOVFF  2C,44B
0680:  MOVFF  44A,44C
0684:  RCALL  065A
0686:  RETURN 0
.................... } 
....................  
.................... void GLCD_COMMAND(INT8 GLCD_DATA2)    
....................   { 
....................       GLCD_RS = 0; 
0688:  BCF    2C.4
....................       GLCD_XUAT_8BIT(GLCD_DATA2);       
068A:  MOVFF  447,44A
068E:  RCALL  066E
0690:  RETURN 0
....................   } 
.................... void GLCD_DATA(INT8 GLCD_DATA3)        
....................   { 
....................       GLCD_RS = 1;      
*
0BAE:  BSF    2C.4
....................       GLCD_XUAT_8BIT(GLCD_DATA3);      
0BB0:  MOVFF  449,44A
0BB4:  RCALL  066E
0BB6:  RETURN 0
....................   } 
....................    
....................   VOID GLCD_DATA_X(INT8 GLCD_DATA3) 
.................... { 
....................       GLCD_RS = 1;      
....................       GLCD_XUAT_8BIT(0XA1); 
....................       GLCD_XUAT_8BIT(0X40);   
.................... } 
.................... VOID SETUP_GLCD (INT8 GLCD_FUNCTION_SET_MODE) 
.................... {                      
....................          GLCD_CS1 = 1; 
*
0692:  BSF    2C.0
....................          GLCD_CS2 = 1; 
0694:  BSF    2C.1
....................          GLCD_E  = 0; 
0696:  BCF    2C.2
....................          GLCD_RW = 0;           
0698:  BCF    2C.3
....................          GLCD_P =0;          
069A:  BCF    2C.5
....................          GLCD_COMMAND(GLCD_FUNCTION_SET_MODE);          
069C:  MOVFF  446,447
06A0:  RCALL  0688
....................          DELAY_US(10); 
06A2:  MOVLW  10
06A4:  MOVWF  00
06A6:  DECFSZ 00,F
06A8:  BRA    06A6
06AA:  NOP   
....................          GLCD_COMMAND(GLCD_CURSOR_DISPLAY);        
06AC:  MOVLW  0C
06AE:  MOVLB  4
06B0:  MOVWF  x47
06B2:  MOVLB  0
06B4:  RCALL  0688
....................          DELAY_US(10);     
06B6:  MOVLW  10
06B8:  MOVWF  00
06BA:  DECFSZ 00,F
06BC:  BRA    06BA
06BE:  NOP   
....................          GLCD_COMMAND(GLCD_CLEAR_DISPLAY);       
06C0:  MOVLW  01
06C2:  MOVLB  4
06C4:  MOVWF  x47
06C6:  MOVLB  0
06C8:  RCALL  0688
....................          DELAY_MS(2); 
06CA:  MOVLW  02
06CC:  MOVLB  4
06CE:  MOVWF  x47
06D0:  MOVLB  0
06D2:  RCALL  021A
....................          GLCD_COMMAND(GLCD_ENTRY_MODE);       
06D4:  MOVLW  06
06D6:  MOVLB  4
06D8:  MOVWF  x47
06DA:  MOVLB  0
06DC:  RCALL  0688
....................          DELAY_US(10);                           
06DE:  MOVLW  10
06E0:  MOVWF  00
06E2:  DECFSZ 00,F
06E4:  BRA    06E2
06E6:  NOP   
06E8:  RETURN 0
.................... } 
....................  
.................... #DEFINE GLCD_NGANG     16 //256 PIXEL 
.................... #DEFINE GLCD_DOC       32 //32 HANG 
.................... #DEFINE GLCD_WIDTH     128 //DANH CHO THU VIEN GRAPHIC.C 
.................... int8 DOC, NGANG; 
....................  
.................... typedef union  
.................... {  
....................   unsigned int16 word;  
....................   unsigned int8 nbyte[2];  
.................... } Dots;  
....................  
.................... typedef struct  
.................... {  
....................   int1 refresh;  
....................   Dots PIXEL[GLCD_DOC][GLCD_NGANG];     
....................   } GD_RAM;     
....................  
.................... GD_RAM gdram_vdk;  
....................  
....................  
.................... void GLCD_MAU_NEN(int1 GLCD_COLOR)  
.................... {   
....................   int16 d;  
....................   if(GLCD_COLOR)  d=0xffff; else d=0; 
*
070C:  MOVLB  4
070E:  MOVF   x46,F
0710:  BZ    0718
0712:  SETF   x48
0714:  SETF   x47
0716:  BRA    071C
0718:  CLRF   x48
071A:  CLRF   x47
....................   for (DOC=0; DOC < GLCD_DOC; DOC++)  
071C:  CLRF   2D
071E:  MOVF   2D,W
0720:  SUBLW  1F
0722:  BNC   0780
....................   {  
....................     for (NGANG=0; NGANG < GLCD_NGANG; NGANG++)  
0724:  CLRF   2E
0726:  MOVF   2E,W
0728:  SUBLW  0F
072A:  BNC   077C
....................     {  
....................       gdram_vdk.PIXEL[DOC][NGANG].word = d;  
072C:  CLRF   x67
072E:  MOVFF  2D,466
0732:  CLRF   x69
0734:  MOVLW  20
0736:  MOVWF  x68
0738:  MOVLB  0
073A:  RCALL  06EA
073C:  MOVFF  02,03
0740:  MOVF   01,W
0742:  ADDLW  01
0744:  MOVLB  4
0746:  MOVWF  x49
0748:  MOVLW  00
074A:  ADDWFC 02,W
074C:  MOVWF  x4A
074E:  CLRF   03
0750:  MOVFF  2E,02
0754:  BCF    FD8.0
0756:  RLCF   02,F
0758:  RLCF   03,F
075A:  MOVF   02,W
075C:  ADDWF  x49,F
075E:  MOVF   03,W
0760:  ADDWFC x4A,F
0762:  MOVLW  2F
0764:  ADDWF  x49,W
0766:  MOVWF  FE9
0768:  MOVLW  00
076A:  ADDWFC x4A,W
076C:  MOVWF  FEA
076E:  MOVFF  448,FEC
0772:  MOVF   FED,F
0774:  MOVFF  447,FEF
0778:  INCF   2E,F
077A:  BRA    0726
....................     }  
077C:  INCF   2D,F
077E:  BRA    071E
....................   }  
....................   gdram_vdk.refresh = TRUE;  
0780:  BSF    2F.0
0782:  MOVLB  0
0784:  RETURN 0
.................... }  
....................  
.................... void glcd_pixel(int8 x, int8 y, int1 color)  
.................... {  
....................   int8  b;  
....................   if(y>31){x += 128; y-= 32;};  
*
0C02:  MOVLB  4
0C04:  MOVF   x63,W
0C06:  SUBLW  1F
0C08:  BC    0C12
0C0A:  MOVLW  80
0C0C:  ADDWF  x62,F
0C0E:  MOVLW  20
0C10:  SUBWF  x63,F
....................   DOC = y;  
0C12:  MOVFF  463,2D
....................   NGANG = x/16;  
0C16:  SWAPF  x62,W
0C18:  MOVWF  2E
0C1A:  MOVLW  0F
0C1C:  ANDWF  2E,F
....................   b = 15 - (x % 16);  
0C1E:  MOVF   x62,W
0C20:  ANDLW  0F
0C22:  XORLW  FF
0C24:  ADDLW  10
0C26:  MOVWF  x65
....................    
....................   if (color == 1) bit_set (gdram_vdk.PIXEL[DOC][NGANG].word, b);  
0C28:  DECFSZ x64,W
0C2A:  BRA    0C96
0C2C:  CLRF   x67
0C2E:  MOVFF  2D,466
0C32:  CLRF   x69
0C34:  MOVLW  20
0C36:  MOVWF  x68
0C38:  MOVLB  0
0C3A:  RCALL  06EA
0C3C:  MOVFF  02,03
0C40:  MOVF   01,W
0C42:  ADDLW  01
0C44:  MOVLB  4
0C46:  MOVWF  x66
0C48:  MOVLW  00
0C4A:  ADDWFC 02,W
0C4C:  MOVWF  x67
0C4E:  CLRF   03
0C50:  MOVFF  2E,02
0C54:  BCF    FD8.0
0C56:  RLCF   02,F
0C58:  RLCF   03,F
0C5A:  MOVF   02,W
0C5C:  ADDWF  x66,F
0C5E:  MOVF   03,W
0C60:  ADDWFC x67,F
0C62:  MOVLW  2F
0C64:  ADDWF  x66,W
0C66:  MOVWF  01
0C68:  MOVLW  00
0C6A:  ADDWFC x67,W
0C6C:  MOVWF  03
0C6E:  MOVFF  01,FE9
0C72:  MOVWF  FEA
0C74:  CLRF   03
0C76:  MOVLW  01
0C78:  MOVWF  02
0C7A:  MOVF   x65,W
0C7C:  MOVWF  00
0C7E:  BZ    0C8A
0C80:  BCF    FD8.0
0C82:  RLCF   02,F
0C84:  RLCF   03,F
0C86:  DECFSZ 00,F
0C88:  BRA    0C80
0C8A:  MOVF   02,W
0C8C:  IORWF  FEF,F
0C8E:  MOVF   03,W
0C90:  IORWF  FEC,W
0C92:  MOVWF  FEF
0C94:  BRA    0D08
....................   else bit_clear (gdram_vdk.PIXEL[DOC][NGANG].word, b);  
0C96:  CLRF   x67
0C98:  MOVFF  2D,466
0C9C:  CLRF   x69
0C9E:  MOVLW  20
0CA0:  MOVWF  x68
0CA2:  MOVLB  0
0CA4:  RCALL  06EA
0CA6:  MOVFF  02,03
0CAA:  MOVF   01,W
0CAC:  ADDLW  01
0CAE:  MOVLB  4
0CB0:  MOVWF  x66
0CB2:  MOVLW  00
0CB4:  ADDWFC 02,W
0CB6:  MOVWF  x67
0CB8:  CLRF   03
0CBA:  MOVFF  2E,02
0CBE:  BCF    FD8.0
0CC0:  RLCF   02,F
0CC2:  RLCF   03,F
0CC4:  MOVF   02,W
0CC6:  ADDWF  x66,F
0CC8:  MOVF   03,W
0CCA:  ADDWFC x67,F
0CCC:  MOVLW  2F
0CCE:  ADDWF  x66,W
0CD0:  MOVWF  01
0CD2:  MOVLW  00
0CD4:  ADDWFC x67,W
0CD6:  MOVWF  03
0CD8:  MOVFF  01,FE9
0CDC:  MOVWF  FEA
0CDE:  CLRF   03
0CE0:  MOVLW  01
0CE2:  MOVWF  02
0CE4:  MOVF   x65,W
0CE6:  MOVWF  00
0CE8:  BZ    0CF4
0CEA:  BCF    FD8.0
0CEC:  RLCF   02,F
0CEE:  RLCF   03,F
0CF0:  DECFSZ 00,F
0CF2:  BRA    0CEA
0CF4:  MOVF   02,W
0CF6:  XORLW  FF
0CF8:  MOVWF  00
0CFA:  MOVLW  FF
0CFC:  XORWF  03,F
0CFE:  MOVF   00,W
0D00:  ANDWF  FEF,F
0D02:  MOVF   03,W
0D04:  ANDWF  FEC,W
0D06:  MOVWF  FEF
....................   gdram_vdk.refresh = TRUE;  
0D08:  BSF    2F.0
0D0A:  MOVLB  0
0D0C:  RETURN 0
.................... }  
....................  
....................  
.................... void GDRAM_VDK_TO_GDRAM_GLCD_ALL()  
.................... {  
....................   if (gdram_vdk.refresh)  
*
1116:  BTFSS  2F.0
1118:  BRA    1200
....................   {  
....................     for (DOC = 0; DOC <GLCD_DOC; DOC++)  
111A:  CLRF   2D
111C:  MOVF   2D,W
111E:  SUBLW  1F
1120:  BNC   11FE
....................     {  
....................       GLCD_COMMAND( 0x80 | DOC);   // Set Vertical Address.  
1122:  MOVF   2D,W
1124:  IORLW  80
1126:  MOVLB  4
1128:  MOVWF  x46
112A:  MOVWF  x47
112C:  MOVLB  0
112E:  CALL   0688
....................       GLCD_COMMAND( 0x80 | 0);   // Set Horizontal Address.  
1132:  MOVLW  80
1134:  MOVLB  4
1136:  MOVWF  x47
1138:  MOVLB  0
113A:  CALL   0688
....................  
....................       for (NGANG=0; NGANG <GLCD_NGANG; NGANG++)  
113E:  CLRF   2E
1140:  MOVF   2E,W
1142:  SUBLW  0F
1144:  BNC   11FA
....................       {  
....................         GLCD_DATA( gdram_vdk.PIXEL[DOC][NGANG].nbyte[1]);   // Write High Byte.  
1146:  MOVLB  4
1148:  CLRF   x67
114A:  MOVFF  2D,466
114E:  CLRF   x69
1150:  MOVLW  20
1152:  MOVWF  x68
1154:  MOVLB  0
1156:  CALL   06EA
115A:  MOVFF  02,03
115E:  MOVF   01,W
1160:  ADDLW  01
1162:  MOVLB  4
1164:  MOVWF  x46
1166:  MOVLW  00
1168:  ADDWFC 02,W
116A:  MOVWF  x47
116C:  CLRF   03
116E:  MOVFF  2E,02
1172:  BCF    FD8.0
1174:  RLCF   02,F
1176:  RLCF   03,F
1178:  MOVF   02,W
117A:  ADDWF  x46,F
117C:  MOVF   03,W
117E:  ADDWFC x47,F
1180:  MOVLW  01
1182:  ADDWF  x46,W
1184:  MOVWF  01
1186:  MOVLW  00
1188:  ADDWFC x47,W
118A:  MOVWF  03
118C:  MOVF   01,W
118E:  ADDLW  2F
1190:  MOVWF  FE9
1192:  MOVLW  00
1194:  ADDWFC 03,W
1196:  MOVWF  FEA
1198:  MOVFF  FEF,446
119C:  MOVFF  446,449
11A0:  MOVLB  0
11A2:  RCALL  0BAE
....................         GLCD_DATA( gdram_vdk.PIXEL[DOC][NGANG].nbyte[0]);   // Write Low Byte.  
11A4:  MOVLB  4
11A6:  CLRF   x67
11A8:  MOVFF  2D,466
11AC:  CLRF   x69
11AE:  MOVLW  20
11B0:  MOVWF  x68
11B2:  MOVLB  0
11B4:  CALL   06EA
11B8:  MOVFF  02,03
11BC:  MOVF   01,W
11BE:  ADDLW  01
11C0:  MOVLB  4
11C2:  MOVWF  x46
11C4:  MOVLW  00
11C6:  ADDWFC 02,W
11C8:  MOVWF  x47
11CA:  CLRF   03
11CC:  MOVFF  2E,02
11D0:  BCF    FD8.0
11D2:  RLCF   02,F
11D4:  RLCF   03,F
11D6:  MOVF   02,W
11D8:  ADDWF  x46,F
11DA:  MOVF   03,W
11DC:  ADDWFC x47,F
11DE:  MOVLW  2F
11E0:  ADDWF  x46,W
11E2:  MOVWF  FE9
11E4:  MOVLW  00
11E6:  ADDWFC x47,W
11E8:  MOVWF  FEA
11EA:  MOVFF  FEF,448
11EE:  MOVFF  448,449
11F2:  MOVLB  0
11F4:  RCALL  0BAE
11F6:  INCF   2E,F
11F8:  BRA    1140
....................       }  
11FA:  INCF   2D,F
11FC:  BRA    111C
....................     }  
....................     gdram_vdk.refresh = FALSE;  
11FE:  BCF    2F.0
....................   }  
1200:  RETURN 0
.................... }  
....................  
.................... void GDRAM_VDK_TO_GDRAM_GLCD_AREA (int8 x,int8 y,int8 rong, int8 cao) 
.................... { 
....................   int8 hesox,hesoy;  
....................   if (gdram_vdk.refresh)  
....................   {  
....................       if((x/16)!=(x + rong)/16) 
....................             rong=((rong+15)/16)+1; 
....................       else rong=((rong+15)/16);  
....................        
....................       x = x/16; 
....................       for (DOC = y; DOC <(y+cao); DOC++)  
....................       {  
....................          if(DOC>31) 
....................             {   
....................                hesox = 8+x; 
....................                hesoy = DOC-32; 
....................                } 
....................          else {hesox = x; hesoy = DOC;} 
....................          GLCD_COMMAND( 0x80 |hesoy);    
....................          GLCD_COMMAND( 0x80 |hesox);   
....................        
....................          for (NGANG=hesox; NGANG <(hesox+rong); NGANG++)  
....................          {  
....................             GLCD_DATA( gdram_vdk.PIXEL[hesoy][NGANG].nbyte[1]);   // Write High Byte.  
....................             GLCD_DATA( gdram_vdk.PIXEL[hesoy][NGANG].nbyte[0]);   // Write Low Byte.  
....................          }  
....................        }  
....................     gdram_vdk.refresh = FALSE;  
....................   }       
.................... } 
....................  
....................  
.................... //!const unsigned char Logo_DHSPKTTP []= { 0X00,0X01,0X2E,0X00,0X39,0X00, 
.................... //!0X00,0X00,0X00,0X00,0X00,0X00,0X00,0X00,0X00,0X00,0X00,0X00,0X00,0X00,0X00,0X00, 
.................... //!0X00,0X00,0X00,0X00,0X00,0X00,0X00,0X00,0X00,0X00,0X00,0X00,0X00,0X00,0X00,0X00, 
.................... //!0X00,0X00,0X00,0X00,0X00,0X00,0X00,0X00,0X00,0X00,0X00,0X00,0X02,0X00,0X00,0X00, 
.................... //!0X00,0X00,0X02,0X00,0X00,0X00,0X00,0X00,0X02,0X04,0X00,0X00,0X00,0X01,0X02,0X0C, 
.................... //!0X00,0X00,0X00,0X01,0X82,0X0C,0X00,0X00,0X00,0X00,0X80,0X08,0X00,0X00,0X00,0X00, 
.................... //!0X80,0X00,0X00,0X00,0X00,0X00,0X0F,0X80,0X00,0X00,0X00,0X00,0X3F,0XC0,0X00,0X00, 
.................... //!0X00,0X70,0X70,0X70,0X70,0X00,0X00,0X38,0XC8,0X18,0XE0,0X00,0X00,0X18,0XD8,0X18, 
.................... //!0XC0,0X00,0X00,0X01,0XB0,0X0C,0X00,0X00,0X00,0X01,0XA0,0X0C,0X00,0X00,0X00,0X01, 
.................... //!0X60,0X0C,0X00,0X00,0X00,0X01,0X00,0X04,0X00,0X00,0X00,0X01,0X00,0X04,0X00,0X00, 
.................... //!0X00,0X31,0X00,0X04,0X00,0X00,0X00,0X79,0X80,0X0C,0XF0,0X00,0X00,0X71,0X80,0X0C, 
.................... //!0X70,0X00,0X00,0X01,0X80,0X0C,0X00,0X00,0X00,0X00,0XC0,0X18,0X00,0X00,0X00,0X00, 
.................... //!0XC0,0X18,0X00,0X00,0X00,0X00,0X60,0X30,0X00,0X00,0X00,0X00,0X60,0X30,0X00,0X00, 
.................... //!0X00,0X00,0X20,0X20,0X00,0X00,0X00,0X00,0X30,0X60,0X00,0X00,0X00,0X00,0X30,0X60, 
.................... //!0X00,0X00,0X00,0X00,0X3F,0XE0,0X00,0X00,0X00,0X00,0X3F,0XE0,0X00,0X00,0X00,0X00, 
.................... //!0X3F,0XE0,0X00,0X00,0X00,0X00,0X3F,0XE0,0X00,0X00,0X00,0X00,0X1F,0X80,0X00,0X00, 
.................... //!0X00,0X00,0X3E,0X60,0X00,0X00,0X00,0X00,0X39,0XE0,0X00,0X00,0X00,0X00,0X07,0XE0, 
.................... //!0X00,0X00,0X00,0X00,0X1F,0X80,0X00,0X00,0X00,0X00,0X3E,0X60,0X00,0X00,0X00,0X00, 
.................... //!0X3D,0XE0,0X00,0X00,0X00,0X00,0X3F,0XE0,0X00,0X00,0X00,0X00,0X1F,0XC0,0X00,0X00, 
.................... //!0X00,0X00,0X0F,0X80,0X00,0X00,0X00,0X00,0X02,0X00,0X00,0X00,0X00,0X00,0X00,0X00, 
.................... //!0X00,0X00,0X00,0X00,0X00,0X00,0X00,0X00,0X00,0X00,0X00,0X00,0X00,0X00,0X00,0X00, 
.................... //!0X00,0X00,0X00,0X00,0X00,0X00,0X00,0X00,0X00,0X00,0X00,0X00,0X00,0X00,0X00,0X00, 
.................... //!0X00,0X00,0X00,0X00,0X00,0X00,}; 
.................... //! 
.................... const unsigned char Logo_DHSPKTTP [] = { 
.................... 0x00, 0x00, 0x00, 0x00, 0x00, 0x00, 0x00, 0x00, 0x00, 0x00, 0x00, 0x00, 0x00, 0x00, 0x00, 0x00, 
.................... 0x00, 0x00, 0x00, 0x00, 0x00, 0x00, 0x00, 0x00, 0x00, 0x00, 0x00, 0x01, 0x80, 0x00, 0x00, 0x00, 
.................... 0x00, 0x00, 0x00, 0x01, 0x80, 0x00, 0x00, 0x00, 0x00, 0x00, 0x00, 0x01, 0x80, 0x00, 0x00, 0x00, 
.................... 0x00, 0x00, 0x00, 0x07, 0xE0, 0x00, 0x00, 0x00, 0x00, 0x00, 0x00, 0x07, 0xA0, 0x00, 0x00, 0x00, 
.................... 0x00, 0x00, 0x00, 0x03, 0x20, 0x00, 0x00, 0x00, 0x00, 0x00, 0x00, 0x03, 0x20, 0x00, 0x00, 0x00, 
.................... 0x00, 0x00, 0x00, 0x02, 0x20, 0x00, 0x00, 0x00, 0x00, 0x00, 0x00, 0x02, 0x30, 0x00, 0x00, 0x00, 
.................... 0x00, 0x00, 0x00, 0x02, 0x30, 0x00, 0x00, 0x00, 0x00, 0x7F, 0x00, 0x00, 0x30, 0x00, 0x7E, 0x00, 
.................... 0x00, 0xFE, 0x00, 0x07, 0xE0, 0x00, 0x3F, 0x00, 0x01, 0xF8, 0x00, 0x03, 0xE0, 0x00, 0x1F, 0x80, 
.................... 0x03, 0xF0, 0x00, 0x01, 0xC0, 0x00, 0x0F, 0xC0, 0x03, 0xE0, 0x00, 0x01, 0xC0, 0x00, 0x07, 0xE0, 
.................... 0x07, 0xC0, 0x00, 0x03, 0xC0, 0x00, 0x03, 0xF0, 0x0F, 0xC0, 0x00, 0x17, 0xF4, 0x00, 0x01, 0xF0, 
.................... 0x0F, 0x80, 0x00, 0x1D, 0x98, 0x00, 0x00, 0xF8, 0x1F, 0x00, 0x00, 0x11, 0x8C, 0x00, 0x00, 0xF8, 
.................... 0x1F, 0x01, 0x00, 0x31, 0x84, 0x00, 0x80, 0x7C, 0x3E, 0x06, 0x00, 0x31, 0x86, 0x00, 0x20, 0x7C, 
.................... 0x3E, 0x18, 0x00, 0x71, 0x86, 0x00, 0x1C, 0x3E, 0x3C, 0x43, 0x00, 0x31, 0x84, 0x00, 0xC3, 0x3E, 
.................... 0x7C, 0x0C, 0x00, 0x11, 0x8C, 0x00, 0x38, 0x1E, 0x7C, 0x31, 0x00, 0x1D, 0x98, 0x00, 0x86, 0x1F, 
.................... 0x78, 0xC6, 0x00, 0x1F, 0xFC, 0x00, 0x63, 0x1F, 0x78, 0x18, 0x00, 0x03, 0xC0, 0x00, 0x0C, 0x1F, 
.................... 0xF8, 0x63, 0x80, 0x01, 0x80, 0x00, 0xC7, 0x0F, 0xF9, 0x8E, 0x00, 0x00, 0x00, 0x00, 0x38, 0x8F, 
.................... 0xF8, 0x38, 0x80, 0x00, 0x00, 0x01, 0x0C, 0x0F, 0xF8, 0xC3, 0x80, 0x00, 0x00, 0x00, 0xE3, 0x8F, 
.................... 0xF9, 0x8E, 0x00, 0x00, 0x00, 0x00, 0x30, 0xCF, 0xF8, 0x38, 0xF8, 0x00, 0x00, 0x1F, 0x9E, 0x0F, 
.................... 0xF8, 0xE3, 0xFE, 0x00, 0x00, 0x7F, 0xE3, 0x8F, 0xF9, 0x9F, 0xFF, 0xC0, 0x03, 0xFF, 0xF9, 0xCF, 
.................... 0x78, 0xFF, 0xFF, 0xE0, 0x07, 0xFF, 0xFF, 0x0F, 0x78, 0x1F, 0xFF, 0xE0, 0x07, 0xFF, 0xFC, 0x1F, 
.................... 0x7C, 0x07, 0xFF, 0xE0, 0x07, 0xFF, 0xE0, 0x1F, 0x7C, 0x00, 0xFF, 0xE0, 0x07, 0xFF, 0x80, 0x1E, 
.................... 0x7C, 0x00, 0x1F, 0xE0, 0x07, 0xFC, 0x00, 0x3E, 0x3E, 0x01, 0xCF, 0xE0, 0x07, 0xF3, 0x80, 0x3E, 
.................... 0x3E, 0x01, 0xFF, 0xE0, 0x03, 0xFF, 0x80, 0x7C, 0x1F, 0x01, 0xFF, 0xE0, 0x03, 0xFF, 0xC0, 0x7C, 
.................... 0x1F, 0x01, 0xFF, 0xC0, 0x03, 0xFF, 0xC0, 0xF8, 0x0F, 0x83, 0xFF, 0xC0, 0x01, 0xFF, 0xC0, 0xF8, 
.................... 0x0F, 0x83, 0xFF, 0xC0, 0x01, 0xFF, 0xC1, 0xF0, 0x07, 0xC3, 0xFF, 0x80, 0x01, 0xFF, 0xE3, 0xF0, 
.................... 0x03, 0xE3, 0xFF, 0x80, 0x01, 0xFF, 0xE7, 0xE0, 0x03, 0xF7, 0xFF, 0x80, 0x00, 0xFF, 0xEF, 0xC0, 
.................... 0x01, 0xFF, 0xFF, 0x80, 0x00, 0xFF, 0xFF, 0x80, 0x00, 0xFF, 0xFF, 0x00, 0x00, 0xFF, 0xFF, 0x80, 
.................... 0x00, 0x7F, 0xFF, 0x00, 0x00, 0xFF, 0xFF, 0x00, 0x00, 0x3F, 0xFF, 0x00, 0x00, 0xFF, 0xFE, 0x00, 
.................... 0x00, 0x1F, 0xFF, 0x00, 0x00, 0x7F, 0xF8, 0x00, 0x00, 0x0F, 0xFE, 0x00, 0x00, 0x7F, 0xF0, 0x00, 
.................... 0x00, 0x03, 0xFF, 0x00, 0x00, 0x7F, 0xE0, 0x00, 0x00, 0x00, 0xFF, 0xFC, 0x1F, 0xFF, 0x80, 0x00, 
.................... 0x00, 0x00, 0x7F, 0xFF, 0xFF, 0xFE, 0x00, 0x00, 0x00, 0x00, 0x0F, 0xFF, 0xFF, 0xF8, 0x00, 0x00, 
.................... 0x00, 0x00, 0x01, 0xFF, 0xFF, 0xC0, 0x00, 0x00, 0x00, 0x00, 0x00, 0x0F, 0xF0, 0x00, 0x00, 0x00 
.................... }; 
....................  
....................  
.................... void GLCD_XUAT_ANH(int width,int height,int x,int y)  
.................... {  
....................    unsigned int i=0, j=0, k=0;  
....................    unsigned int16 count=0;  
....................    for(j=0;j<height;j++)  
....................       {     
....................          for(;i<width;)  
....................          {  
....................             for(k=8;k>0;k--) 
....................             { 
....................                glcd_pixel(i+x,j+y,bit_test(Logo_DHSPKTTP[count],(k-1)));  
....................                i++;  
....................             }  
....................             count++;  
....................          }  
....................       i=0;  
....................       }  
.................... }  
....................  
.................... #include <graphics.c> 
.................... ///////////////////////////////////////////////////////////////////////// 
.................... ////                          graphics.c                             //// 
.................... ////                                                                 //// 
.................... ////   This file contains functions to draw lines, rectangles, bars, //// 
.................... ////   circles and text to a display. A function which draws a       //// 
.................... ////   single pixel must be defined before calling the functions in  //// 
.................... ////   this file. Call it glcd_pixel(x, y, color) where x is the     //// 
.................... ////   horizontal coordinate, y is the vertical coordinate, and      //// 
.................... ////   color is 1 bit to turn the pixel on or off.                   //// 
.................... ////                                                                 //// 
.................... ////   * Note: (0, 0) is treated as the upper left corner            //// 
.................... ////                                                                 //// 
.................... ///////////////////////////////////////////////////////////////////////// 
.................... ////                                                                 //// 
.................... ////  glcd_line(x1, y1, x2, y2, color)                               //// 
.................... ////     * Draws a line from the first point to the second point     //// 
.................... ////       with the given color                                      //// 
.................... ////       - color can be ON or OFF                                  //// 
.................... ////                                                                 //// 
.................... ////  glcd_rect(x1, y1, x2, y2, fill, color)                         //// 
.................... ////     * Draws a rectangle with one corner at point (x1,y1) and    //// 
.................... ////       the other corner at point (x2,y2)                         //// 
.................... ////       - fill can be YES or NO                                   //// 
.................... ////       - color can be ON or OFF                                  //// 
.................... ////                                                                 //// 
.................... ////  glcd_bar(x1, y1, x2, y2, width, color)                         //// 
.................... ////     * Draws a bar (wide line) from the first point to the       //// 
.................... ////       second point                                              //// 
.................... ////       - width is the number of pixels wide                      //// 
.................... ////       - color is ON or OFF                                      //// 
.................... ////                                                                 //// 
.................... ////  glcd_circle(x, y, radius, fill, color)                         //// 
.................... ////     * Draws a circle with center at (x,y)                       //// 
.................... ////       - fill can be YES or NO                                   //// 
.................... ////       - color can be ON or OFF                                  //// 
.................... ////                                                                 //// 
.................... ////  glcd_text57(x, y, textptr, size, color)                        //// 
.................... ////     * Write the null terminated text pointed to by textptr with //// 
.................... ////       the upper left coordinate of the first character at (x,y) //// 
.................... ////       Characters are 5 pixels wide and 7 pixels tall            //// 
.................... ////       - size is an integer that scales the size of the text     //// 
.................... ////       - color is ON or OFF                                      //// 
.................... ////     * Note - This function wraps characters to the next line    //// 
.................... ////              use #define GLCD_WIDTH to specify a display width  //// 
.................... ////                                                                 //// 
.................... ///////////////////////////////////////////////////////////////////////// 
.................... ////        (C) Copyright 1996, 2010 Custom Computer Services        //// 
.................... //// This source code may only be used by licensed users of the CCS  //// 
.................... //// C compiler.  This source code may only be distributed to other  //// 
.................... //// licensed users of the CCS C compiler.  No other use,            //// 
.................... //// reproduction or distribution is permitted without written       //// 
.................... //// permission.  Derivative programs created using this software    //// 
.................... //// in object code form are not restricted in any way.              //// 
.................... ///////////////////////////////////////////////////////////////////////// 
....................  
....................  
.................... ///////////////////////////////////////////////////////////////////////// 
.................... #ifndef GRAPHICS_DRAWING_FUNCTIONS 
.................... #define GRAPHICS_DRAWING_FUNCTIONS 
.................... ///////////////////////////////////////////////////////////////////////// 
....................  
....................  
.................... ///////////////////////////////////////////////////////////////////////// 
.................... #ifndef ON 
.................... #define ON  1 
.................... #endif 
....................  
.................... #ifndef OFF 
.................... #define OFF 0 
.................... #endif 
....................  
.................... #ifndef YES 
.................... #define YES 1 
.................... #endif 
....................  
.................... #ifndef NO 
.................... #define NO  0 
.................... #endif 
.................... ///////////////////////////////////////////////////////////////////////// 
....................  
....................  
.................... ///////////////////////////////////////////////////////////////////////// 
.................... //// Defines a 5x7 font 
.................... ///////////////////////////////////////////////////////////////////////// 
.................... const unsigned int8 FONT[51][5] ={0x00, 0x00, 0x00, 0x00, 0x00, // SPACE 
....................                          0x00, 0x00, 0x5F, 0x00, 0x00, // ! 
....................                          0x00, 0x03, 0x00, 0x03, 0x00, // " 
....................                          0x14, 0x3E, 0x14, 0x3E, 0x14, // # 
....................                          0x24, 0x2A, 0x7F, 0x2A, 0x12, // $ 
....................                          0x43, 0x33, 0x08, 0x66, 0x61, // % 
....................                          0x36, 0x49, 0x55, 0x22, 0x50, // & 
....................                          0x00, 0x05, 0x03, 0x00, 0x00, // ' 
....................                          0x00, 0x1C, 0x22, 0x41, 0x00, // ( 
....................                          0x00, 0x41, 0x22, 0x1C, 0x00, // ) 
....................                          0x14, 0x08, 0x3E, 0x08, 0x14, // * 
....................                          0x08, 0x08, 0x3E, 0x08, 0x08, // + 
....................                          0x00, 0x50, 0x30, 0x00, 0x00, // , 
....................                          0x08, 0x08, 0x08, 0x08, 0x08, // - 
....................                          0x00, 0x60, 0x60, 0x00, 0x00, // . 
....................                          0x20, 0x10, 0x08, 0x04, 0x02, // / 
....................                          0x3E, 0x51, 0x49, 0x45, 0x3E, // 0 
....................                          0x00, 0x04, 0x02, 0x7F, 0x00, // 1 
....................                          0x42, 0x61, 0x51, 0x49, 0x46, // 2 
....................                          0x22, 0x41, 0x49, 0x49, 0x36, // 3 
....................                          0x18, 0x14, 0x12, 0x7F, 0x10, // 4 
....................                          0x27, 0x45, 0x45, 0x45, 0x39, // 5 
....................                          0x3E, 0x49, 0x49, 0x49, 0x32, // 6 
....................                          0x01, 0x01, 0x71, 0x09, 0x07, // 7 
....................                          0x36, 0x49, 0x49, 0x49, 0x36, // 8 
....................                          0x26, 0x49, 0x49, 0x49, 0x3E, // 9 
....................                          0x00, 0x36, 0x36, 0x00, 0x00, // : 
....................                          0x00, 0x56, 0x36, 0x00, 0x00, // ; 
....................                          0x08, 0x14, 0x22, 0x41, 0x00, // < 
....................                          0x14, 0x14, 0x14, 0x14, 0x14, // = 
....................                          0x00, 0x41, 0x22, 0x14, 0x08, // > 
....................                          0x02, 0x01, 0x51, 0x09, 0x06, // ? 
....................                          0x3E, 0x41, 0x59, 0x55, 0x5E, // @ 
....................                          0x7E, 0x09, 0x09, 0x09, 0x7E, // A 
....................                          0x7F, 0x49, 0x49, 0x49, 0x36, // B 
....................                          0x3E, 0x41, 0x41, 0x41, 0x22, // C 
....................                          0x7F, 0x41, 0x41, 0x41, 0x3E, // D 
....................                          0x7F, 0x49, 0x49, 0x49, 0x41, // E 
....................                          0x7F, 0x09, 0x09, 0x09, 0x01, // F 
....................                          0x3E, 0x41, 0x41, 0x49, 0x3A, // G 
....................                          0x7F, 0x08, 0x08, 0x08, 0x7F, // H 
....................                          0x00, 0x41, 0x7F, 0x41, 0x00, // I 
....................                          0x30, 0x40, 0x40, 0x40, 0x3F, // J 
....................                          0x7F, 0x08, 0x14, 0x22, 0x41, // K 
....................                          0x7F, 0x40, 0x40, 0x40, 0x40, // L 
....................                          0x7F, 0x02, 0x0C, 0x02, 0x7F, // M 
....................                          0x7F, 0x02, 0x04, 0x08, 0x7F, // N 
....................                          0x3E, 0x41, 0x41, 0x41, 0x3E, // O 
....................                          0x7F, 0x09, 0x09, 0x09, 0x06, // P 
....................                          0x1E, 0x21, 0x21, 0x21, 0x5E, // Q 
....................                          0x7F, 0x09, 0x09, 0x09, 0x76};// R 
....................  
.................... const unsigned int8 FONT2[44][5]={0x26, 0x49, 0x49, 0x49, 0x32, // S 
....................                          0x01, 0x01, 0x7F, 0x01, 0x01, // T 
....................                          0x3F, 0x40, 0x40, 0x40, 0x3F, // U 
....................                          0x1F, 0x20, 0x40, 0x20, 0x1F, // V 
....................                          0x7F, 0x20, 0x10, 0x20, 0x7F, // W 
....................                          0x41, 0x22, 0x1C, 0x22, 0x41, // X 
....................                          0x07, 0x08, 0x70, 0x08, 0x07, // Y 
....................                          0x61, 0x51, 0x49, 0x45, 0x43, // Z 
....................                          0x00, 0x7F, 0x41, 0x00, 0x00, // [ 
....................                          0x02, 0x04, 0x08, 0x10, 0x20, // \ 
....................                          0x00, 0x00, 0x41, 0x7F, 0x00, // ] 
....................                          0x04, 0x02, 0x01, 0x02, 0x04, // ^ 
....................                          0x40, 0x40, 0x40, 0x40, 0x40, // _ 
....................                          0x00, 0x01, 0x02, 0x04, 0x00, // ` 
....................                          0x20, 0x54, 0x54, 0x54, 0x78, // a 
....................                          0x7F, 0x44, 0x44, 0x44, 0x38, // b 
....................                          0x38, 0x44, 0x44, 0x44, 0x44, // c 
....................                          0x38, 0x44, 0x44, 0x44, 0x7F, // d 
....................                          0x38, 0x54, 0x54, 0x54, 0x18, // e 
....................                          0x04, 0x04, 0x7E, 0x05, 0x05, // f 
....................                          0x08, 0x54, 0x54, 0x54, 0x3C, // g 
....................                          0x7F, 0x08, 0x04, 0x04, 0x78, // h 
....................                          0x00, 0x44, 0x7D, 0x40, 0x00, // i 
....................                          0x20, 0x40, 0x44, 0x3D, 0x00, // j 
....................                          0x7F, 0x10, 0x28, 0x44, 0x00, // k 
....................                          0x00, 0x41, 0x7F, 0x40, 0x00, // l 
....................                          0x7C, 0x04, 0x78, 0x04, 0x78, // m 
....................                          0x7C, 0x08, 0x04, 0x04, 0x78, // n 
....................                          0x38, 0x44, 0x44, 0x44, 0x38, // o 
....................                          0x7C, 0x14, 0x14, 0x14, 0x08, // p 
....................                          0x08, 0x14, 0x14, 0x14, 0x7C, // q 
....................                          0x00, 0x7C, 0x08, 0x04, 0x04, // r 
....................                          0x48, 0x54, 0x54, 0x54, 0x20, // s 
....................                          0x04, 0x04, 0x3F, 0x44, 0x44, // t 
....................                          0x3C, 0x40, 0x40, 0x20, 0x7C, // u 
....................                          0x1C, 0x20, 0x40, 0x20, 0x1C, // v 
....................                          0x3C, 0x40, 0x30, 0x40, 0x3C, // w 
....................                          0x44, 0x28, 0x10, 0x28, 0x44, // x 
....................                          0x0C, 0x50, 0x50, 0x50, 0x3C, // y 
....................                          0x44, 0x64, 0x54, 0x4C, 0x44, // z 
....................                          0x00, 0x08, 0x36, 0x41, 0x41, // { 
....................                          0x00, 0x00, 0x7F, 0x00, 0x00, // | 
....................                          0x41, 0x41, 0x36, 0x08, 0x00, // } 
....................                          0x02, 0x01, 0x02, 0x04, 0x02};// ~ 
.................... ///////////////////////////////////////////////////////////////////////// 
....................  
....................  
.................... ///////////////////////////////////////////////////////////////////////// 
.................... // Purpose:       Draw a line on a graphic LCD using Bresenham's 
.................... //                line drawing algorithm 
.................... // Inputs:        (x1, y1) - the start coordinate 
.................... //                (x2, y2) - the end coordinate 
.................... //                color - ON or OFF 
.................... // Dependencies:  glcd_pixel() 
.................... ///////////////////////////////////////////////////////////////////////// 
.................... #ifdef LARGE_LCD 
.................... void glcd_line(unsigned int16 x1, unsigned int16 y1, unsigned int16 x2, iunsigned nt16 y2, int1 color) 
.................... #else 
.................... void glcd_line(unsigned int8 x1, unsigned int8 y1, unsigned int8 x2, unsigned int8 y2, int1 color) 
.................... #endif 
*
0D0E:  MOVLW  01
0D10:  MOVLB  4
0D12:  MOVWF  x5B
0D14:  MOVWF  x5C
0D16:  CLRF   x61
.................... { 
....................    unsigned int16        dy, dx; 
....................    signed int8  addx=1, addy=1; 
....................    signed int16 P, diff; 
....................  
....................    #ifdef LARGE_LCD 
....................    unsigned int16 i=0; 
....................    dx = abs((signed int16)(x2 - x1)); 
....................    dy = abs((signed int16)(y2 - y1)); 
....................    #else 
....................    unsigned int8 i=0; 
....................    dx = abs((signed int8)(x2 - x1)); 
0D18:  MOVF   x52,W
0D1A:  SUBWF  x54,W
0D1C:  MOVWF  x62
0D1E:  MOVF   x62,W
0D20:  BTFSS  x62.7
0D22:  BRA    0D2A
0D24:  MOVLW  00
0D26:  BSF    FD8.0
0D28:  SUBFWB x62,W
0D2A:  CLRF   03
0D2C:  MOVWF  x59
0D2E:  MOVFF  03,45A
....................    dy = abs((signed int8)(y2 - y1)); 
0D32:  MOVF   x53,W
0D34:  SUBWF  x55,W
0D36:  MOVWF  x62
0D38:  MOVF   x62,W
0D3A:  BTFSS  x62.7
0D3C:  BRA    0D44
0D3E:  MOVLW  00
0D40:  BSF    FD8.0
0D42:  SUBFWB x62,W
0D44:  CLRF   03
0D46:  MOVWF  x57
0D48:  MOVFF  03,458
....................    #endif 
....................  
....................    if(x1 > x2) 
0D4C:  MOVF   x52,W
0D4E:  SUBWF  x54,W
0D50:  BC    0D54
....................       addx = -1; 
0D52:  SETF   x5B
....................    if(y1 > y2) 
0D54:  MOVF   x53,W
0D56:  SUBWF  x55,W
0D58:  BC    0D5C
....................       addy = -1; 
0D5A:  SETF   x5C
....................  
....................    if(dx >= dy) 
0D5C:  MOVF   x58,W
0D5E:  SUBWF  x5A,W
0D60:  BNC   0DD6
0D62:  BNZ   0D6A
0D64:  MOVF   x57,W
0D66:  SUBWF  x59,W
0D68:  BNC   0DD6
....................    { 
....................       dy *= 2; 
0D6A:  BCF    FD8.0
0D6C:  RLCF   x57,F
0D6E:  RLCF   x58,F
....................       P = dy - dx; 
0D70:  MOVF   x59,W
0D72:  SUBWF  x57,W
0D74:  MOVWF  00
0D76:  MOVF   x5A,W
0D78:  SUBWFB x58,W
0D7A:  MOVFF  00,45D
0D7E:  MOVWF  x5E
....................       diff = P - dx; 
0D80:  MOVF   x59,W
0D82:  SUBWF  x5D,W
0D84:  MOVWF  x5F
0D86:  MOVF   x5A,W
0D88:  SUBWFB x5E,W
0D8A:  MOVWF  x60
....................  
....................       for(; i<=dx; ++i) 
0D8C:  MOVF   x5A,F
0D8E:  BNZ   0D96
0D90:  MOVF   x61,W
0D92:  SUBWF  x59,W
0D94:  BNC   0DD4
....................       { 
....................          glcd_pixel(x1, y1, color); 
0D96:  MOVFF  452,462
0D9A:  MOVFF  453,463
0D9E:  MOVFF  456,464
0DA2:  MOVLB  0
0DA4:  RCALL  0C02
....................  
....................          if(P < 0) 
0DA6:  MOVLB  4
0DA8:  BTFSS  x5E.7
0DAA:  BRA    0DBC
....................          { 
....................             P  += dy; 
0DAC:  MOVF   x57,W
0DAE:  ADDWF  x5D,F
0DB0:  MOVF   x58,W
0DB2:  ADDWFC x5E,F
....................             x1 += addx; 
0DB4:  MOVF   x5B,W
0DB6:  ADDWF  x52,W
0DB8:  MOVWF  x52
....................          } 
0DBA:  BRA    0DD0
....................          else 
....................          { 
....................             P  += diff; 
0DBC:  MOVF   x5F,W
0DBE:  ADDWF  x5D,F
0DC0:  MOVF   x60,W
0DC2:  ADDWFC x5E,F
....................             x1 += addx; 
0DC4:  MOVF   x5B,W
0DC6:  ADDWF  x52,W
0DC8:  MOVWF  x52
....................             y1 += addy; 
0DCA:  MOVF   x5C,W
0DCC:  ADDWF  x53,W
0DCE:  MOVWF  x53
....................          } 
0DD0:  INCF   x61,F
0DD2:  BRA    0D8C
....................       } 
....................    } 
0DD4:  BRA    0E40
....................    else 
....................    { 
....................       dx *= 2; 
0DD6:  BCF    FD8.0
0DD8:  RLCF   x59,F
0DDA:  RLCF   x5A,F
....................       P = dx - dy; 
0DDC:  MOVF   x57,W
0DDE:  SUBWF  x59,W
0DE0:  MOVWF  00
0DE2:  MOVF   x58,W
0DE4:  SUBWFB x5A,W
0DE6:  MOVFF  00,45D
0DEA:  MOVWF  x5E
....................       diff = P - dy; 
0DEC:  MOVF   x57,W
0DEE:  SUBWF  x5D,W
0DF0:  MOVWF  x5F
0DF2:  MOVF   x58,W
0DF4:  SUBWFB x5E,W
0DF6:  MOVWF  x60
....................  
....................       for(; i<=dy; ++i) 
0DF8:  MOVF   x58,F
0DFA:  BNZ   0E02
0DFC:  MOVF   x61,W
0DFE:  SUBWF  x57,W
0E00:  BNC   0E40
....................       { 
....................          glcd_pixel(x1, y1, color); 
0E02:  MOVFF  452,462
0E06:  MOVFF  453,463
0E0A:  MOVFF  456,464
0E0E:  MOVLB  0
0E10:  RCALL  0C02
....................  
....................          if(P < 0) 
0E12:  MOVLB  4
0E14:  BTFSS  x5E.7
0E16:  BRA    0E28
....................          { 
....................             P  += dx; 
0E18:  MOVF   x59,W
0E1A:  ADDWF  x5D,F
0E1C:  MOVF   x5A,W
0E1E:  ADDWFC x5E,F
....................             y1 += addy; 
0E20:  MOVF   x5C,W
0E22:  ADDWF  x53,W
0E24:  MOVWF  x53
....................          } 
0E26:  BRA    0E3C
....................          else 
....................          { 
....................             P  += diff; 
0E28:  MOVF   x5F,W
0E2A:  ADDWF  x5D,F
0E2C:  MOVF   x60,W
0E2E:  ADDWFC x5E,F
....................             x1 += addx; 
0E30:  MOVF   x5B,W
0E32:  ADDWF  x52,W
0E34:  MOVWF  x52
....................             y1 += addy; 
0E36:  MOVF   x5C,W
0E38:  ADDWF  x53,W
0E3A:  MOVWF  x53
....................          } 
0E3C:  INCF   x61,F
0E3E:  BRA    0DF8
....................       } 
....................    } 
0E40:  MOVLB  0
0E42:  RETURN 0
.................... } 
....................  
....................  
.................... ///////////////////////////////////////////////////////////////////////// 
.................... // Purpose:       Draw a rectangle on a graphic LCD 
.................... // Inputs:        (x1, y1) - the start coordinate 
.................... //                (x2, y2) - the end coordinate 
.................... //                fill  - YES or NO 
.................... //                color - ON or OFF 
.................... // Dependencies:  glcd_pixel(), glcd_line() 
.................... ///////////////////////////////////////////////////////////////////////// 
.................... #ifdef LARGE_LCD 
.................... void glcd_rect(unsigned int16 x1, unsigned int16 y1, unsigned int16 x2, unsigned int16 y2, int1 fill, int1 color) 
.................... #else 
.................... void glcd_rect(unsigned int8 x1, unsigned int8 y1, unsigned int8 x2, unsigned int8 y2, int1 fill, int1 color) 
.................... #endif 
.................... { 
....................    if(fill) 
*
1054:  MOVLB  4
1056:  MOVF   x4A,F
1058:  BZ    10B6
....................    { 
....................       #ifdef LARGE_LCD 
....................       unsigned int16 i, xmin, xmax, ymin, ymax; 
....................       #else 
....................       unsigned int8  i, xmin, xmax, ymin, ymax; 
....................       #endif 
....................  
....................       if(x1 < x2)                            //  Find x min and max 
105A:  MOVF   x48,W
105C:  SUBWF  x46,W
105E:  BC    106A
....................       { 
....................          xmin = x1; 
1060:  MOVFF  446,44D
....................          xmax = x2; 
1064:  MOVFF  448,44E
....................       } 
1068:  BRA    1072
....................       else 
....................       { 
....................          xmin = x2; 
106A:  MOVFF  448,44D
....................          xmax = x1; 
106E:  MOVFF  446,44E
....................       } 
....................  
....................       if(y1 < y2)                            // Find the y min and max 
1072:  MOVF   x49,W
1074:  SUBWF  x47,W
1076:  BC    1082
....................       { 
....................          ymin = y1; 
1078:  MOVFF  447,44F
....................          ymax = y2; 
107C:  MOVFF  449,450
....................       } 
1080:  BRA    108A
....................       else 
....................       { 
....................          ymin = y2; 
1082:  MOVFF  449,44F
....................          ymax = y1; 
1086:  MOVFF  447,450
....................       } 
....................  
....................       for(; xmin <= xmax; ++xmin) 
108A:  MOVF   x4D,W
108C:  SUBWF  x4E,W
108E:  BNC   10B4
....................       { 
....................          for(i=ymin; i<=ymax; ++i) 
1090:  MOVFF  44F,44C
1094:  MOVF   x4C,W
1096:  SUBWF  x50,W
1098:  BNC   10B0
....................          { 
....................             glcd_pixel(xmin, i, color); 
109A:  MOVFF  44D,462
109E:  MOVFF  44C,463
10A2:  MOVFF  44B,464
10A6:  MOVLB  0
10A8:  RCALL  0C02
10AA:  MOVLB  4
10AC:  INCF   x4C,F
10AE:  BRA    1094
....................          } 
10B0:  INCF   x4D,F
10B2:  BRA    108A
....................       } 
....................    } 
10B4:  BRA    1112
....................    else 
....................    { 
....................       glcd_line(x1, y1, x2, y1, color);      // Draw the 4 sides 
10B6:  MOVFF  446,452
10BA:  MOVFF  447,453
10BE:  MOVFF  448,454
10C2:  MOVFF  447,455
10C6:  MOVFF  44B,456
10CA:  MOVLB  0
10CC:  RCALL  0D0E
....................       glcd_line(x1, y2, x2, y2, color); 
10CE:  MOVFF  446,452
10D2:  MOVFF  449,453
10D6:  MOVFF  448,454
10DA:  MOVFF  449,455
10DE:  MOVFF  44B,456
10E2:  RCALL  0D0E
....................       glcd_line(x1, y1, x1, y2, color); 
10E4:  MOVFF  446,452
10E8:  MOVFF  447,453
10EC:  MOVFF  446,454
10F0:  MOVFF  449,455
10F4:  MOVFF  44B,456
10F8:  RCALL  0D0E
....................       glcd_line(x2, y1, x2, y2, color); 
10FA:  MOVFF  448,452
10FE:  MOVFF  447,453
1102:  MOVFF  448,454
1106:  MOVFF  449,455
110A:  MOVFF  44B,456
110E:  RCALL  0D0E
1110:  MOVLB  4
....................    } 
1112:  MOVLB  0
1114:  RETURN 0
.................... } 
....................  
.................... ///////////////////////////////////////////////////////////////////////// 
.................... // Purpose:       Draw a bar (wide line) on a graphic LCD 
.................... // Inputs:        (x1, y1) - the start coordinate 
.................... //                (x2, y2) - the end coordinate 
.................... //                width  - The number of pixels wide 
.................... //                color - ON or OFF 
.................... ///////////////////////////////////////////////////////////////////////// 
.................... #ifdef LARGE_LCD 
.................... void glcd_bar(unsigned int16 x1, unsigned int16 y1, unsigned int16 x2, unsigned int16 y2, unsigned int8 width, int1 color) 
.................... #else 
.................... void glcd_bar(unsigned int8 x1, unsigned int8 y1, unsigned int8 x2, unsigned int8 y2, unsigned int8 width, int1 color) 
.................... #endif 
.................... { 
....................    unsigned int8         half_width; 
....................    signed int16 dy, dx; 
....................    signed int8  addx=1, addy=1, j; 
....................    signed int16 P, diff, c1, c2; 
....................  
....................    #ifdef LARGE_LCD 
....................    unsigned int16 i=0; 
....................    dx = abs((signed int16)(x2 - x1)); 
....................    dy = abs((signed int16)(y2 - y1)); 
....................    #else 
....................    unsigned int8 i=0; 
....................    dx = abs((signed int8)(x2 - x1)); 
....................    dy = abs((signed int8)(y2 - y1)); 
....................    #endif 
....................  
....................    half_width = width/2; 
....................    c1 = -(dx*x1 + dy*y1); 
....................    c2 = -(dx*x2 + dy*y2); 
....................  
....................    if(x1 > x2) 
....................    { 
....................       signed int16 temp; 
....................       temp = c1; 
....................       c1 = c2; 
....................       c2 = temp; 
....................       addx = -1; 
....................    } 
....................    if(y1 > y2) 
....................    { 
....................       signed int16 temp; 
....................       temp = c1; 
....................       c1 = c2; 
....................       c2 = temp; 
....................       addy = -1; 
....................    } 
....................  
....................    if(dx >= dy) 
....................    { 
....................       P = 2*dy - dx; 
....................       diff = P - dx; 
....................  
....................       for(i=0; i<=dx; ++i) 
....................       { 
....................          for(j=-half_width; j<half_width+width%2; ++j) 
....................          { 
....................                glcd_pixel(x1, y1+j, color); 
....................          } 
....................          if(P < 0) 
....................          { 
....................             P  += 2*dy; 
....................             x1 += addx; 
....................          } 
....................          else 
....................          { 
....................             P  += diff; 
....................             x1 += addx; 
....................             y1 += addy; 
....................          } 
....................       } 
....................    } 
....................    else 
....................    { 
....................       P = 2*dx - dy; 
....................       diff = P - dy; 
....................  
....................       for(i=0; i<=dy; ++i) 
....................       { 
....................          if(P < 0) 
....................          { 
....................             P  += 2*dx; 
....................             y1 += addy; 
....................          } 
....................          else 
....................          { 
....................             P  += diff; 
....................             x1 += addx; 
....................             y1 += addy; 
....................          } 
....................          for(j=-half_width; j<half_width+width%2; ++j) 
....................          { 
....................                glcd_pixel(x1+j, y1, color); 
....................          } 
....................       } 
....................    } 
.................... } 
....................  
....................  
.................... ///////////////////////////////////////////////////////////////////////// 
.................... // Purpose:       Draw a circle on a graphic LCD 
.................... // Inputs:        (x,y) - the center of the circle 
.................... //                radius - the radius of the circle 
.................... //                fill - YES or NO 
.................... //                color - ON or OFF 
.................... ///////////////////////////////////////////////////////////////////////// 
.................... #ifdef LARGE_LCD 
.................... void glcd_circle(unsigned int16 x, unsigned int16 y, unsigned int16 radius, int1 fill, int1 color) 
.................... #else 
.................... void glcd_circle(unsigned int8 x, unsigned int8 y, unsigned int8 radius, int1 fill, int1 color) 
.................... #endif 
.................... { 
....................    #ifdef LARGE_LCD 
....................    signed int16 a, b, P; 
....................    #else 
....................    signed int8  a, b, P; 
....................    #endif 
....................  
....................    a = 0; 
*
0E44:  MOVLB  4
0E46:  CLRF   x4B
....................    b = radius; 
0E48:  MOVFF  448,44C
....................    P = 1 - radius; 
0E4C:  MOVLW  01
0E4E:  BSF    FD8.0
0E50:  SUBFWB x48,W
0E52:  MOVWF  x4D
....................  
....................    do 
....................    { 
....................       if(fill) 
0E54:  MOVF   x49,F
0E56:  BZ    0F1A
....................       { 
....................          glcd_line(x-a, y+b, x+a, y+b, color); 
0E58:  MOVF   x4B,W
0E5A:  SUBWF  x46,W
0E5C:  MOVWF  x4E
0E5E:  MOVF   x4C,W
0E60:  ADDWF  x47,W
0E62:  MOVWF  x4F
0E64:  MOVF   x4B,W
0E66:  ADDWF  x46,W
0E68:  MOVWF  x50
0E6A:  MOVF   x4C,W
0E6C:  ADDWF  x47,W
0E6E:  MOVWF  x51
0E70:  MOVFF  44E,452
0E74:  MOVFF  44F,453
0E78:  MOVFF  450,454
0E7C:  MOVWF  x55
0E7E:  MOVFF  44A,456
0E82:  MOVLB  0
0E84:  RCALL  0D0E
....................          glcd_line(x-a, y-b, x+a, y-b, color); 
0E86:  MOVLB  4
0E88:  MOVF   x4B,W
0E8A:  SUBWF  x46,W
0E8C:  MOVWF  x4E
0E8E:  MOVF   x4C,W
0E90:  SUBWF  x47,W
0E92:  MOVWF  x4F
0E94:  MOVF   x4B,W
0E96:  ADDWF  x46,W
0E98:  MOVWF  x50
0E9A:  MOVF   x4C,W
0E9C:  SUBWF  x47,W
0E9E:  MOVWF  x51
0EA0:  MOVFF  44E,452
0EA4:  MOVFF  44F,453
0EA8:  MOVFF  450,454
0EAC:  MOVWF  x55
0EAE:  MOVFF  44A,456
0EB2:  MOVLB  0
0EB4:  RCALL  0D0E
....................          glcd_line(x-b, y+a, x+b, y+a, color); 
0EB6:  MOVLB  4
0EB8:  MOVF   x4C,W
0EBA:  SUBWF  x46,W
0EBC:  MOVWF  x4E
0EBE:  MOVF   x4B,W
0EC0:  ADDWF  x47,W
0EC2:  MOVWF  x4F
0EC4:  MOVF   x4C,W
0EC6:  ADDWF  x46,W
0EC8:  MOVWF  x50
0ECA:  MOVF   x4B,W
0ECC:  ADDWF  x47,W
0ECE:  MOVWF  x51
0ED0:  MOVFF  44E,452
0ED4:  MOVFF  44F,453
0ED8:  MOVFF  450,454
0EDC:  MOVWF  x55
0EDE:  MOVFF  44A,456
0EE2:  MOVLB  0
0EE4:  RCALL  0D0E
....................          glcd_line(x-b, y-a, x+b, y-a, color); 
0EE6:  MOVLB  4
0EE8:  MOVF   x4C,W
0EEA:  SUBWF  x46,W
0EEC:  MOVWF  x4E
0EEE:  MOVF   x4B,W
0EF0:  SUBWF  x47,W
0EF2:  MOVWF  x4F
0EF4:  MOVF   x4C,W
0EF6:  ADDWF  x46,W
0EF8:  MOVWF  x50
0EFA:  MOVF   x4B,W
0EFC:  SUBWF  x47,W
0EFE:  MOVWF  x51
0F00:  MOVFF  44E,452
0F04:  MOVFF  44F,453
0F08:  MOVFF  450,454
0F0C:  MOVWF  x55
0F0E:  MOVFF  44A,456
0F12:  MOVLB  0
0F14:  RCALL  0D0E
....................       } 
0F16:  BRA    0FF8
0F18:  MOVLB  4
....................       else 
....................       { 
....................          glcd_pixel(a+x, b+y, color); 
0F1A:  MOVF   x46,W
0F1C:  ADDWF  x4B,W
0F1E:  MOVWF  x4E
0F20:  MOVF   x47,W
0F22:  ADDWF  x4C,W
0F24:  MOVWF  x4F
0F26:  MOVFF  44E,462
0F2A:  MOVWF  x63
0F2C:  MOVFF  44A,464
0F30:  MOVLB  0
0F32:  RCALL  0C02
....................          glcd_pixel(b+x, a+y, color); 
0F34:  MOVLB  4
0F36:  MOVF   x46,W
0F38:  ADDWF  x4C,W
0F3A:  MOVWF  x4E
0F3C:  MOVF   x47,W
0F3E:  ADDWF  x4B,W
0F40:  MOVWF  x4F
0F42:  MOVFF  44E,462
0F46:  MOVWF  x63
0F48:  MOVFF  44A,464
0F4C:  MOVLB  0
0F4E:  RCALL  0C02
....................          glcd_pixel(x-a, b+y, color); 
0F50:  MOVLB  4
0F52:  MOVF   x4B,W
0F54:  SUBWF  x46,W
0F56:  MOVWF  x4E
0F58:  MOVF   x47,W
0F5A:  ADDWF  x4C,W
0F5C:  MOVWF  x4F
0F5E:  MOVFF  44E,462
0F62:  MOVWF  x63
0F64:  MOVFF  44A,464
0F68:  MOVLB  0
0F6A:  RCALL  0C02
....................          glcd_pixel(x-b, a+y, color); 
0F6C:  MOVLB  4
0F6E:  MOVF   x4C,W
0F70:  SUBWF  x46,W
0F72:  MOVWF  x4E
0F74:  MOVF   x47,W
0F76:  ADDWF  x4B,W
0F78:  MOVWF  x4F
0F7A:  MOVFF  44E,462
0F7E:  MOVWF  x63
0F80:  MOVFF  44A,464
0F84:  MOVLB  0
0F86:  RCALL  0C02
....................          glcd_pixel(b+x, y-a, color); 
0F88:  MOVLB  4
0F8A:  MOVF   x46,W
0F8C:  ADDWF  x4C,W
0F8E:  MOVWF  x4E
0F90:  MOVF   x4B,W
0F92:  SUBWF  x47,W
0F94:  MOVWF  x4F
0F96:  MOVFF  44E,462
0F9A:  MOVWF  x63
0F9C:  MOVFF  44A,464
0FA0:  MOVLB  0
0FA2:  RCALL  0C02
....................          glcd_pixel(a+x, y-b, color); 
0FA4:  MOVLB  4
0FA6:  MOVF   x46,W
0FA8:  ADDWF  x4B,W
0FAA:  MOVWF  x4E
0FAC:  MOVF   x4C,W
0FAE:  SUBWF  x47,W
0FB0:  MOVWF  x4F
0FB2:  MOVFF  44E,462
0FB6:  MOVWF  x63
0FB8:  MOVFF  44A,464
0FBC:  MOVLB  0
0FBE:  RCALL  0C02
....................          glcd_pixel(x-a, y-b, color); 
0FC0:  MOVLB  4
0FC2:  MOVF   x4B,W
0FC4:  SUBWF  x46,W
0FC6:  MOVWF  x4E
0FC8:  MOVF   x4C,W
0FCA:  SUBWF  x47,W
0FCC:  MOVWF  x4F
0FCE:  MOVFF  44E,462
0FD2:  MOVWF  x63
0FD4:  MOVFF  44A,464
0FD8:  MOVLB  0
0FDA:  RCALL  0C02
....................          glcd_pixel(x-b, y-a, color); 
0FDC:  MOVLB  4
0FDE:  MOVF   x4C,W
0FE0:  SUBWF  x46,W
0FE2:  MOVWF  x4E
0FE4:  MOVF   x4B,W
0FE6:  SUBWF  x47,W
0FE8:  MOVWF  x4F
0FEA:  MOVFF  44E,462
0FEE:  MOVWF  x63
0FF0:  MOVFF  44A,464
0FF4:  MOVLB  0
0FF6:  RCALL  0C02
....................       } 
....................  
....................       if(P < 0) 
0FF8:  MOVLB  4
0FFA:  BTFSS  x4D.7
0FFC:  BRA    101A
....................          P += 3 + 2 * a++; 
0FFE:  MOVF   x4B,W
1000:  INCF   x4B,F
1002:  MOVWF  x4E
1004:  MOVLW  02
1006:  MOVWF  x4F
1008:  MOVFF  44E,450
100C:  MOVLB  0
100E:  RCALL  08E0
1010:  MOVF   01,W
1012:  ADDLW  03
1014:  MOVLB  4
1016:  ADDWF  x4D,F
1018:  BRA    103C
....................       else 
....................          P += 5 + 2 * (a++ - b--); 
101A:  MOVF   x4B,W
101C:  INCF   x4B,F
101E:  MOVWF  x4E
1020:  MOVF   x4C,W
1022:  DECF   x4C,F
1024:  SUBWF  x4E,W
1026:  MOVWF  x4E
1028:  MOVLW  02
102A:  MOVWF  x4F
102C:  MOVFF  44E,450
1030:  MOVLB  0
1032:  RCALL  08E0
1034:  MOVF   01,W
1036:  ADDLW  05
1038:  MOVLB  4
103A:  ADDWF  x4D,F
....................     } while(a <= b); 
103C:  MOVF   x4B,W
103E:  XORLW  80
1040:  MOVWF  00
1042:  MOVF   x4C,W
1044:  XORLW  80
1046:  SUBWF  00,W
1048:  BTFSC  FD8.2
104A:  BRA    0E54
104C:  BTFSS  FD8.0
104E:  BRA    0E54
1050:  MOVLB  0
1052:  RETURN 0
.................... } 
....................  
....................  
.................... ///////////////////////////////////////////////////////////////////////// 
.................... // Purpose:       Write text on a graphic LCD 
.................... // Inputs:        (x,y) - The upper left coordinate of the first letter 
.................... //                textptr - A pointer to an array of text to display 
.................... //                size - The size of the text: 1 = 5x7, 2 = 10x14, ... 
.................... //                color - ON or OFF 
.................... ///////////////////////////////////////////////////////////////////////// 
.................... #ifdef LARGE_LCD 
.................... void glcd_text57(unsigned int16 x, unsigned int16 y, char* textptr, unsigned int8 size, int1 color) 
.................... #else 
.................... void glcd_text57(unsigned int8 x, unsigned int8 y, char* textptr, unsigned int8 size, int1 color) 
.................... #endif 
.................... { 
....................    unsigned int8 j, k, l, m;                       // Loop counters 
....................    unsigned int8 pixelData[5];                     // Stores character data 
....................  
....................    for(; *textptr != '\0'; ++textptr, ++x)// Loop through the passed string 
....................    { 
....................       if(*textptr < 'S') // Checks if the letter is in the first font array 
....................          memcpy(pixelData, FONT[*textptr - ' '], 5); 
....................       else if(*textptr <= '~') // Check if the letter is in the second font array 
....................          memcpy(pixelData, FONT2[*textptr - 'S'], 5); 
....................       else 
....................          memcpy(pixelData, FONT[0], 5);   // Default to space 
....................  
....................       // Handles newline and carriage returns 
....................       switch(*textptr) 
....................       { 
....................          case '\n': 
....................             y += 7*size + 1; 
....................             continue; 
....................          case '\r': 
....................             x = 0; 
....................             continue; 
....................       } 
....................  
....................       if(x+5*size >= GLCD_WIDTH)          // Performs character wrapping 
....................       { 
....................          x = 0;                           // Set x at far left position 
....................          y += 7*size + 1;                 // Set y at next position down 
....................       } 
....................       for(j=0; j<5; ++j, x+=size)         // Loop through character byte data 
....................       { 
....................          for(k=0; k < 7; ++k)             // Loop through the vertical pixels 
....................          { 
....................             if(bit_test(pixelData[j], k)) // Check if the pixel should be set 
....................             { 
....................                for(l=0; l < size; ++l)    // These two loops change the 
....................                {                          // character's size 
....................                   for(m=0; m < size; ++m) 
....................                   { 
....................                      glcd_pixel(x+m, y+k*size+l, color); // Draws the pixel 
....................                   } 
....................                } 
....................             } 
....................          } 
....................       } 
....................    } 
.................... } 
....................  
.................... #endif 
....................  
.................... #INCLUDE <TV_PICKIT2_SHIFT_KEY4X4_138.C> 
.................... CONST UNSIGNED CHAR MAQUETKEY[4]= {0x3F,0x7F,0xBF,0xFF}; 
.................... UNSIGNED INT8  MPT1=0,MPT2=0;   
.................... UNSIGNED INT KEY_NHAN() 
.................... {     SIGNED INT8 MAPHIM,HANG,COT; 
....................       MAPHIM=HANG=0XFF; 
*
128E:  MOVLB  4
1290:  SETF   x47
1292:  MOVFF  447,446
....................       FOR(COT=0;COT<4;COT++) 
1296:  CLRF   x48
1298:  BTFSC  x48.7
129A:  BRA    12A2
129C:  MOVF   x48,W
129E:  SUBLW  03
12A0:  BNC   12F4
....................             {    
....................                OUTPUT_B(MAQUETKEY[COT]); 
12A2:  CLRF   03
12A4:  MOVF   x48,W
12A6:  MOVFF  FF2,449
12AA:  BCF    FF2.7
12AC:  MOVLB  0
12AE:  CALL   00F0
12B2:  MOVLB  4
12B4:  BTFSC  x49.7
12B6:  BSF    FF2.7
12B8:  CLRF   F93
12BA:  MOVWF  F8A
....................                IF         (!INPUT(PIN_B2))      {HANG=3;   BREAK;} 
12BC:  BSF    F93.2
12BE:  BTFSC  F81.2
12C0:  BRA    12CA
12C2:  MOVLW  03
12C4:  MOVWF  x47
12C6:  BRA    12F4
12C8:  BRA    12F0
....................                ELSE    IF (!INPUT(PIN_B3))      {HANG=2;   BREAK;} 
12CA:  BSF    F93.3
12CC:  BTFSC  F81.3
12CE:  BRA    12D8
12D0:  MOVLW  02
12D2:  MOVWF  x47
12D4:  BRA    12F4
12D6:  BRA    12F0
....................                ELSE    IF (!INPUT(PIN_B4))      {HANG=1;   BREAK;}                   
12D8:  BSF    F93.4
12DA:  BTFSC  F81.4
12DC:  BRA    12E6
12DE:  MOVLW  01
12E0:  MOVWF  x47
12E2:  BRA    12F4
12E4:  BRA    12F0
....................                ELSE    IF (!INPUT(PIN_B5))      {HANG=0;   BREAK;} 
12E6:  BSF    F93.5
12E8:  BTFSC  F81.5
12EA:  BRA    12F0
12EC:  CLRF   x47
12EE:  BRA    12F4
12F0:  INCF   x48,F
12F2:  BRA    1298
....................             }           
....................          IF (HANG!=0XFF)   MAPHIM   = COT*4 + HANG; 
12F4:  INCFSZ x47,W
12F6:  BRA    12FA
12F8:  BRA    1310
12FA:  MOVFF  448,44F
12FE:  MOVLW  04
1300:  MOVWF  x50
1302:  MOVLB  0
1304:  CALL   08E0
1308:  MOVLB  4
130A:  MOVF   x47,W
130C:  ADDWF  01,W
130E:  MOVWF  x46
....................          RETURN(MAPHIM); 
1310:  MOVFF  446,01
1314:  MOVLB  0
1316:  RETURN 0
.................... } 
.................... UNSIGNED INT KEY_4X4_DW() 
.................... {      
....................       MPT1=KEY_NHAN();          
1318:  RCALL  128E
131A:  MOVFF  01,430
....................       IF (MPT1!=0XFF)    
131E:  MOVLB  4
1320:  INCFSZ x30,W
1322:  BRA    1326
1324:  BRA    134A
....................       {  DELAY_MS(1);   
1326:  MOVLW  01
1328:  MOVWF  x47
132A:  MOVLB  0
132C:  CALL   021A
....................          MPT1=KEY_NHAN(); 
1330:  RCALL  128E
1332:  MOVFF  01,430
....................          DO{MPT2=KEY_NHAN();} 
1336:  RCALL  128E
1338:  MOVFF  01,431
....................          WHILE (MPT2==MPT1); 
133C:  MOVLB  4
133E:  MOVF   x30,W
1340:  SUBWF  x31,W
1342:  BTFSS  FD8.2
1344:  BRA    134A
1346:  MOVLB  0
1348:  BRA    1336
....................       }              
....................       RETURN(MPT1); 
134A:  MOVFF  430,01
134E:  MOVLB  0
1350:  GOTO   146A (RETURN)
.................... } 
....................  
.................... UNSIGNED INT KEY_4X4_UP() 
.................... {             
....................       MPT1=KEY_NHAN(); 
....................       IF (MPT1!=0XFF)    
....................       {   
....................          IF (MPT1!=MPT2) 
....................             { 
....................                RETURN(MPT1);  //PHIM MOI 
....................                MPT2=MPT1; 
....................             } 
....................          ELSE 
....................          { 
....................             DELAY_MS(1); 
....................             MPT1=KEY_NHAN(); 
....................             DO 
....................             { 
....................                MPT2=KEY_NHAN(); 
....................                } 
....................             WHILE (MPT2!=MPT1); 
....................                RETURN(MPT1);     //THOAT VI TRUNG MA PHIM DA NHAN 
....................                MPT2=MPT1;            
....................          } 
....................       }   
....................       ELSE  
....................       { 
....................          RETURN(MPT1);  //THOAT VI KHONG NHAN 
....................          MPT2=MPT1; 
....................       }       
.................... } 
....................  
....................  
....................  
....................  
.................... UNSIGNED INT1 TT_HINH; 
....................  
.................... //LCD CHU TO 
.................... signed INT8 i;// LCD TO 
.................... unsigned INT8 dv_giay,ch_giay,ch_phut,dv_phut,dv_gio,ch_gio;//DS1307 
.................... unsigned int8 thu; 
.................... int16 TP_NG,TP_CH,TP_DV,DV,CH;//DS18b20 
.................... UNSIGNED INT8 MP; 
.................... int1 TT_HT =0; 
....................  
.................... // HIEN THI CHU C 
.................... CONST UNSIGNED CHAR LCD_CHU_C[1][6] = 
.................... { 
....................     
....................    7, 1, 1, 7, 3, 3,  
.................... }; 
....................  
.................... // HIEN THI CHU n 
.................... CONST UNSIGNED CHAR LCD_CHU_n[1][6] = 
.................... { 
....................     
....................    32,32,32,7,1,7,  
.................... }; 
....................  
.................... // HAM HIEN THI CHU C 
.................... VOID LCD_HIENTHI_CHU_C_TOADO_XY(SIGNED INT8 LCD_SO, X1, Y1) 
.................... { 
....................    LCD_GOTO_XY (X1, Y1) ; 
*
09A4:  MOVFF  447,44A
09A8:  MOVFF  448,44B
09AC:  RCALL  08BE
....................    FOR (I = 0; I < 6; I++) 
09AE:  MOVLB  4
09B0:  CLRF   x33
09B2:  BTFSC  x33.7
09B4:  BRA    09BC
09B6:  MOVF   x33,W
09B8:  SUBLW  05
09BA:  BNC   0A16
....................    { 
....................       IF (I == 3) LCD_GOTO_XY (X1 + 1, Y1); 
09BC:  MOVF   x33,W
09BE:  SUBLW  03
09C0:  BNZ   09D4
09C2:  MOVLW  01
09C4:  ADDWF  x47,W
09C6:  MOVWF  x49
09C8:  MOVWF  x4A
09CA:  MOVFF  448,44B
09CE:  MOVLB  0
09D0:  RCALL  08BE
09D2:  MOVLB  4
....................       LCD_DATA (LCD_CHU_C[LCD_SO][I]); 
09D4:  MOVFF  446,44F
09D8:  MOVLW  06
09DA:  MOVWF  x50
09DC:  MOVLB  0
09DE:  RCALL  08E0
09E0:  MOVF   01,W
09E2:  MOVLB  4
09E4:  CLRF   x4A
09E6:  MOVWF  x49
09E8:  CLRF   03
09EA:  MOVF   x33,W
09EC:  ADDWF  x49,W
09EE:  MOVWF  01
09F0:  MOVF   x4A,W
09F2:  ADDWFC 03,F
09F4:  MOVF   01,W
09F6:  MOVFF  FF2,449
09FA:  BCF    FF2.7
09FC:  MOVLB  0
09FE:  CALL   0104
0A02:  MOVLB  4
0A04:  BTFSC  x49.7
0A06:  BSF    FF2.7
0A08:  MOVWF  x49
0A0A:  MOVWF  x4A
0A0C:  MOVLB  0
0A0E:  RCALL  058C
0A10:  MOVLB  4
0A12:  INCF   x33,F
0A14:  BRA    09B2
....................    } 
0A16:  MOVLB  0
0A18:  GOTO   0ADC (RETURN)
.................... } 
....................  
.................... // HAM HIEN THI CHU n 
.................... VOID LCD_HIENTHI_CHU_n_TOADO_XY(SIGNED INT8 LCD_SO, X1, Y1) 
.................... { 
....................    LCD_GOTO_XY (X1, Y1) ; 
0A1C:  MOVFF  447,44A
0A20:  MOVFF  448,44B
0A24:  RCALL  08BE
....................    FOR (I = 0; I < 6; I++) 
0A26:  MOVLB  4
0A28:  CLRF   x33
0A2A:  BTFSC  x33.7
0A2C:  BRA    0A34
0A2E:  MOVF   x33,W
0A30:  SUBLW  05
0A32:  BNC   0A8E
....................    { 
....................       IF (I == 3) LCD_GOTO_XY (X1 + 1, Y1); 
0A34:  MOVF   x33,W
0A36:  SUBLW  03
0A38:  BNZ   0A4C
0A3A:  MOVLW  01
0A3C:  ADDWF  x47,W
0A3E:  MOVWF  x49
0A40:  MOVWF  x4A
0A42:  MOVFF  448,44B
0A46:  MOVLB  0
0A48:  RCALL  08BE
0A4A:  MOVLB  4
....................       LCD_DATA (LCD_CHU_n[LCD_SO][I]); 
0A4C:  MOVFF  446,44F
0A50:  MOVLW  06
0A52:  MOVWF  x50
0A54:  MOVLB  0
0A56:  RCALL  08E0
0A58:  MOVF   01,W
0A5A:  MOVLB  4
0A5C:  CLRF   x4A
0A5E:  MOVWF  x49
0A60:  CLRF   03
0A62:  MOVF   x33,W
0A64:  ADDWF  x49,W
0A66:  MOVWF  01
0A68:  MOVF   x4A,W
0A6A:  ADDWFC 03,F
0A6C:  MOVF   01,W
0A6E:  MOVFF  FF2,449
0A72:  BCF    FF2.7
0A74:  MOVLB  0
0A76:  CALL   011A
0A7A:  MOVLB  4
0A7C:  BTFSC  x49.7
0A7E:  BSF    FF2.7
0A80:  MOVWF  x49
0A82:  MOVWF  x4A
0A84:  MOVLB  0
0A86:  RCALL  058C
0A88:  MOVLB  4
0A8A:  INCF   x33,F
0A8C:  BRA    0A2A
....................    } 
0A8E:  MOVLB  0
0A90:  GOTO   0AEC (RETURN)
.................... } 
....................  
.................... void lcd_hienthi_so_z_toado_xy(SIGNED int8 lcd_so, x1, y1)//LCD TO 
.................... { 
....................    lcd_GOTO_xy(x1,y1); 
*
092E:  MOVFF  447,44A
0932:  MOVFF  448,44B
0936:  RCALL  08BE
....................    FOR (i=0;i<6;i++) 
0938:  MOVLB  4
093A:  CLRF   x33
093C:  BTFSC  x33.7
093E:  BRA    0946
0940:  MOVF   x33,W
0942:  SUBLW  05
0944:  BNC   09A0
....................    { 
....................       IF (i==3) lcd_goto_xy(x1+1,y1); 
0946:  MOVF   x33,W
0948:  SUBLW  03
094A:  BNZ   095E
094C:  MOVLW  01
094E:  ADDWF  x47,W
0950:  MOVWF  x49
0952:  MOVWF  x4A
0954:  MOVFF  448,44B
0958:  MOVLB  0
095A:  RCALL  08BE
095C:  MOVLB  4
....................       lcd_data(lcd_so_x[lcd_so][i]); 
095E:  MOVFF  446,44F
0962:  MOVLW  06
0964:  MOVWF  x50
0966:  MOVLB  0
0968:  RCALL  08E0
096A:  MOVF   01,W
096C:  MOVLB  4
096E:  CLRF   x4A
0970:  MOVWF  x49
0972:  CLRF   03
0974:  MOVF   x33,W
0976:  ADDWF  x49,W
0978:  MOVWF  01
097A:  MOVF   x4A,W
097C:  ADDWFC 03,F
097E:  MOVF   01,W
0980:  MOVFF  FF2,449
0984:  BCF    FF2.7
0986:  MOVLB  0
0988:  CALL   0004
098C:  MOVLB  4
098E:  BTFSC  x49.7
0990:  BSF    FF2.7
0992:  MOVWF  x49
0994:  MOVWF  x4A
0996:  MOVLB  0
0998:  RCALL  058C
099A:  MOVLB  4
099C:  INCF   x33,F
099E:  BRA    093C
....................    } 
09A0:  MOVLB  0
09A2:  RETURN 0
.................... } 
....................  
.................... void giaima_hienthi_to()//LCD TO 
.................... { 
.................... ch_giay=GIAY_DS13/16;  
*
0886:  SWAPF  21,W
0888:  MOVLB  4
088A:  MOVWF  x35
088C:  MOVLW  0F
088E:  ANDWF  x35,F
.................... dv_giay=GIAY_DS13%16;  
0890:  MOVF   21,W
0892:  ANDLW  0F
0894:  MOVWF  x34
....................  
.................... ch_phut=PHUT_DS13/16 ; 
0896:  SWAPF  20,W
0898:  MOVWF  x36
089A:  MOVLW  0F
089C:  ANDWF  x36,F
.................... dv_phut=PHUT_DS13%16 ; 
089E:  MOVF   20,W
08A0:  ANDLW  0F
08A2:  MOVWF  x37
....................  
.................... ch_gio=GIO_DS13/16  ; 
08A4:  SWAPF  1F,W
08A6:  MOVWF  x39
08A8:  MOVLW  0F
08AA:  ANDWF  x39,F
.................... dv_gio=GIO_DS13%16 ; 
08AC:  MOVF   1F,W
08AE:  ANDLW  0F
08B0:  MOVWF  x38
....................  
.................... thu = THU_DS13%16; 
08B2:  MOVF   1E,W
08B4:  ANDLW  0F
08B6:  MOVWF  x3A
08B8:  MOVLB  0
08BA:  GOTO   1442 (RETURN)
....................  
.................... } 
.................... void HT_DS1307_to( )//LCD TO 
.................... {      
....................       lcd_hienthi_so_z_toado_xy(dv_giay,0,0); 
*
0A94:  MOVFF  434,446
0A98:  MOVLB  4
0A9A:  CLRF   x47
0A9C:  CLRF   x48
0A9E:  MOVLB  0
0AA0:  RCALL  092E
....................       lcd_hienthi_so_z_toado_xy(ch_giay,2,0); 
0AA2:  MOVFF  435,446
0AA6:  MOVLW  02
0AA8:  MOVLB  4
0AAA:  MOVWF  x47
0AAC:  CLRF   x48
0AAE:  MOVLB  0
0AB0:  RCALL  092E
....................        
....................       if (thu!=1) 
0AB2:  MOVLB  4
0AB4:  DECFSZ x3A,W
0AB6:  BRA    0ABA
0AB8:  BRA    0ACE
....................       { 
....................          lcd_hienthi_so_z_toado_xy(thu,2,17); 
0ABA:  MOVFF  43A,446
0ABE:  MOVLW  02
0AC0:  MOVWF  x47
0AC2:  MOVLW  11
0AC4:  MOVWF  x48
0AC6:  MOVLB  0
0AC8:  RCALL  092E
....................       } 
0ACA:  BRA    0AEC
0ACC:  MOVLB  4
....................       else 
....................       { 
....................          LCD_HIENTHI_CHU_C_TOADO_XY(0,2,14); 
0ACE:  CLRF   x46
0AD0:  MOVLW  02
0AD2:  MOVWF  x47
0AD4:  MOVLW  0E
0AD6:  MOVWF  x48
0AD8:  MOVLB  0
0ADA:  BRA    09A4
....................          LCD_HIENTHI_CHU_n_TOADO_XY(0,2,17 ); 
0ADC:  MOVLB  4
0ADE:  CLRF   x46
0AE0:  MOVLW  02
0AE2:  MOVWF  x47
0AE4:  MOVLW  11
0AE6:  MOVWF  x48
0AE8:  MOVLB  0
0AEA:  BRA    0A1C
....................       } 
0AEC:  GOTO   1446 (RETURN)
....................     
.................... } 
....................  
.................... // END LCD CHU TO 
....................  
.................... //DS18B20 
.................... void giaima_lcd_ds18b20() 
.................... { 
....................    TP_DV = tp%10 +0x30; 
*
0B1C:  MOVFF  2B,447
0B20:  MOVLW  0A
0B22:  MOVLB  4
0B24:  MOVWF  x48
0B26:  MOVLB  0
0B28:  RCALL  0AF0
0B2A:  MOVLW  30
0B2C:  ADDWF  00,W
0B2E:  MOVLB  4
0B30:  MOVWF  x3F
0B32:  CLRF   x40
....................    TP_CH = tp/10%10+0x30; 
0B34:  MOVFF  2B,447
0B38:  MOVLW  0A
0B3A:  MOVWF  x48
0B3C:  MOVLB  0
0B3E:  RCALL  0AF0
0B40:  MOVFF  01,447
0B44:  MOVLW  0A
0B46:  MOVLB  4
0B48:  MOVWF  x48
0B4A:  MOVLB  0
0B4C:  RCALL  0AF0
0B4E:  MOVLW  30
0B50:  ADDWF  00,W
0B52:  MOVLB  4
0B54:  MOVWF  x3D
0B56:  CLRF   x3E
....................    TP_NG = tp/100 +0x30; 
0B58:  MOVFF  2B,447
0B5C:  MOVLW  64
0B5E:  MOVWF  x48
0B60:  MOVLB  0
0B62:  RCALL  0AF0
0B64:  MOVLW  30
0B66:  ADDWF  01,W
0B68:  MOVLB  4
0B6A:  MOVWF  x3B
0B6C:  CLRF   x3C
....................    DV = nguyen%10+0x30; 
0B6E:  MOVFF  2A,447
0B72:  MOVLW  0A
0B74:  MOVWF  x48
0B76:  MOVLB  0
0B78:  RCALL  0AF0
0B7A:  MOVLW  30
0B7C:  ADDWF  00,W
0B7E:  MOVLB  4
0B80:  MOVWF  x41
0B82:  CLRF   x42
....................    CH = nguyen/10%10+0x30; 
0B84:  MOVFF  2A,447
0B88:  MOVLW  0A
0B8A:  MOVWF  x48
0B8C:  MOVLB  0
0B8E:  RCALL  0AF0
0B90:  MOVFF  01,447
0B94:  MOVLW  0A
0B96:  MOVLB  4
0B98:  MOVWF  x48
0B9A:  MOVLB  0
0B9C:  RCALL  0AF0
0B9E:  MOVLW  30
0BA0:  ADDWF  00,W
0BA2:  MOVLB  4
0BA4:  MOVWF  x43
0BA6:  CLRF   x44
0BA8:  MOVLB  0
0BAA:  GOTO   144A (RETURN)
.................... } 
....................  
.................... void hienthi_glcd() 
.................... { 
....................  
....................    glcd_command(glcd_text_mode);// NGUYEN DS18B20 
*
0BB8:  MOVLW  30
0BBA:  MOVLB  4
0BBC:  MOVWF  x47
0BBE:  MOVLB  0
0BC0:  RCALL  0688
....................    glcd_command (glcd_addr_line2+3); 
0BC2:  MOVLW  93
0BC4:  MOVLB  4
0BC6:  MOVWF  x47
0BC8:  MOVLB  0
0BCA:  RCALL  0688
....................    glcd_data (CH ); 
0BCC:  MOVFF  443,449
0BD0:  RCALL  0BAE
....................    glcd_data (DV ); 
0BD2:  MOVFF  441,449
0BD6:  RCALL  0BAE
....................      
....................    glcd_command(glcd_text_mode);//TP DS18B20 
0BD8:  MOVLW  30
0BDA:  MOVLB  4
0BDC:  MOVWF  x47
0BDE:  MOVLB  0
0BE0:  RCALL  0688
....................    glcd_command (glcd_addr_line4 + 3); 
0BE2:  MOVLW  9B
0BE4:  MOVLB  4
0BE6:  MOVWF  x47
0BE8:  MOVLB  0
0BEA:  RCALL  0688
....................    glcd_data (TP_NG ); 
0BEC:  MOVFF  43B,449
0BF0:  RCALL  0BAE
....................    glcd_data (TP_CH ); 
0BF2:  MOVFF  43D,449
0BF6:  RCALL  0BAE
....................    glcd_data (TP_DV ); 
0BF8:  MOVFF  43F,449
0BFC:  RCALL  0BAE
0BFE:  GOTO   144E (RETURN)
....................     
.................... } 
....................  
.................... VOID HIEN_THI_IMAGE() 
.................... { 
....................  
....................    IF (TT_HT == 0) 
*
1202:  MOVLB  4
1204:  BTFSC  x32.1
1206:  BRA    124A
....................    { 
....................       SETUP_GLCD (GLCD_GRAPHIC_MODE); 
1208:  MOVLW  36
120A:  MOVWF  x46
120C:  MOVLB  0
120E:  CALL   0692
....................       glcd_circle(63, 19, 15, 0, 1); 
1212:  MOVLW  3F
1214:  MOVLB  4
1216:  MOVWF  x46
1218:  MOVLW  13
121A:  MOVWF  x47
121C:  MOVLW  0F
121E:  MOVWF  x48
1220:  CLRF   x49
1222:  MOVLW  01
1224:  MOVWF  x4A
1226:  MOVLB  0
1228:  RCALL  0E44
....................       glcd_rect (42, 42, 84, 63, 0, 1); 
122A:  MOVLW  2A
122C:  MOVLB  4
122E:  MOVWF  x46
1230:  MOVWF  x47
1232:  MOVLW  54
1234:  MOVWF  x48
1236:  MOVLW  3F
1238:  MOVWF  x49
123A:  CLRF   x4A
123C:  MOVLW  01
123E:  MOVWF  x4B
1240:  MOVLB  0
1242:  RCALL  1054
....................       GDRAM_VDK_TO_GDRAM_GLCD_ALL (); 
1244:  RCALL  1116
....................    } 
1246:  BRA    128A
1248:  MOVLB  4
....................  
....................    ELSE 
....................    { 
....................       SETUP_GLCD (GLCD_GRAPHIC_MODE); 
124A:  MOVLW  36
124C:  MOVWF  x46
124E:  MOVLB  0
1250:  CALL   0692
....................       glcd_circle(63, 48, 15, 0, 1); 
1254:  MOVLW  3F
1256:  MOVLB  4
1258:  MOVWF  x46
125A:  MOVLW  30
125C:  MOVWF  x47
125E:  MOVLW  0F
1260:  MOVWF  x48
1262:  CLRF   x49
1264:  MOVLW  01
1266:  MOVWF  x4A
1268:  MOVLB  0
126A:  RCALL  0E44
....................       glcd_rect (42, 5, 84, 30, 0, 1); 
126C:  MOVLW  2A
126E:  MOVLB  4
1270:  MOVWF  x46
1272:  MOVLW  05
1274:  MOVWF  x47
1276:  MOVLW  54
1278:  MOVWF  x48
127A:  MOVLW  1E
127C:  MOVWF  x49
127E:  CLRF   x4A
1280:  MOVLW  01
1282:  MOVWF  x4B
1284:  MOVLB  0
1286:  RCALL  1054
....................       GDRAM_VDK_TO_GDRAM_GLCD_ALL (); 
1288:  RCALL  1116
....................    } 
128A:  GOTO   1466 (RETURN)
.................... } 
....................  
.................... void main() 
*
1354:  CLRF   FF8
1356:  BCF    FD0.7
1358:  CLRF   06
135A:  CLRF   0D
135C:  CLRF   0E
135E:  CLRF   0F
1360:  CLRF   10
1362:  CLRF   19
1364:  MOVLB  4
1366:  CLRF   x30
1368:  CLRF   x31
136A:  BCF    x32.1
136C:  MOVF   FC1,W
136E:  ANDLW  C0
1370:  IORLW  0F
1372:  MOVWF  FC1
1374:  MOVLW  07
1376:  MOVWF  FB4
1378:  SETF   11
137A:  SETF   12
137C:  SETF   13
137E:  SETF   14
1380:  SETF   15
1382:  SETF   16
1384:  SETF   17
1386:  SETF   18
.................... { 
....................    set_up_port_ic_chot(); 
1388:  MOVLB  0
138A:  GOTO   0130
....................    setup_lcd () ;// LCD 
138E:  GOTO   0242
....................     
....................    doc_thoi_gian_tu_realtime () ;// DS1307 
1392:  CALL   033C
....................     
....................    //ds18 
....................    khoi_tao_ds18b20 (); 
1396:  GOTO   0542
....................    ds18a_tam = 0; 
139A:  CLRF   27
....................     
....................    lcd_command(0x40);// LCD TO 
139C:  MOVLW  40
139E:  MOVLB  4
13A0:  MOVWF  x4D
13A2:  MOVLB  0
13A4:  CALL   0204
....................    FOR (i=0;i<64;i++) { lcd_data(lcd_ma_8doan[i]); }//LCD TO 
13A8:  MOVLB  4
13AA:  CLRF   x33
13AC:  BTFSC  x33.7
13AE:  BRA    13B6
13B0:  MOVF   x33,W
13B2:  SUBLW  3F
13B4:  BNC   13DC
13B6:  CLRF   03
13B8:  MOVF   x33,W
13BA:  MOVFF  FF2,446
13BE:  BCF    FF2.7
13C0:  MOVLB  0
13C2:  CALL   008C
13C6:  MOVLB  4
13C8:  BTFSC  x46.7
13CA:  BSF    FF2.7
13CC:  MOVWF  x46
13CE:  MOVWF  x4A
13D0:  MOVLB  0
13D2:  CALL   058C
13D6:  MOVLB  4
13D8:  INCF   x33,F
13DA:  BRA    13AC
....................     
....................    IF (ma_ds13 != ma_ds)//DS1307 
13DC:  MOVF   22,W
13DE:  SUBLW  91
13E0:  BZ    13EE
....................    { 
....................       thiet_lap_thoi_gian_hien_tai () ; 
13E2:  MOVLB  0
13E4:  GOTO   05A2
....................       NAP_THOI_GIAN_HTAI_VAO_DS13B07 () ; 
13E8:  GOTO   05CA
13EC:  MOVLB  4
....................    } 
....................  
....................    doc_thoi_gian_tu_realtime();//DS1307 
13EE:  MOVLB  0
13F0:  CALL   033C
....................    giaytam = giay_ds13;//DS1307 
13F4:  MOVFF  21,24
....................  
....................    setup_glcd(glcd_text_mode); 
13F8:  MOVLW  30
13FA:  MOVLB  4
13FC:  MOVWF  x46
13FE:  MOVLB  0
1400:  CALL   0692
....................    setup_glcd(glcd_graphic_mode); 
1404:  MOVLW  36
1406:  MOVLB  4
1408:  MOVWF  x46
140A:  MOVLB  0
140C:  CALL   0692
....................    glcd_mau_nen(0); 
1410:  MOVLB  4
1412:  CLRF   x46
1414:  MOVLB  0
1416:  CALL   070C
....................  
....................    WHILE (true) 
....................    { 
....................       doc_thoi_gian_tu_realtime () ; // DS1307 
141A:  CALL   033C
....................  
....................       IF (giaytam != giay_ds13)//DS1307 
141E:  MOVF   21,W
1420:  SUBWF  24,W
1422:  BZ    1428
....................       { 
....................          giaytam = giay_ds13; 
1424:  MOVFF  21,24
....................           
....................       } 
....................        
....................        IF (touch_present () ){doc_giatri_ds18b20 (); } 
1428:  CALL   043E
142C:  MOVF   01,F
142E:  BTFSS  FD8.2
1430:  GOTO   07F0
....................       IF (ds18al != ds18a_tam) 
1434:  MOVF   27,W
1436:  SUBWF  25,W
1438:  BZ    143E
....................       { 
....................          ds18a_tam = ds18al; 
143A:  MOVFF  25,27
....................       } 
....................        
....................        giaima_hienthi_to();// LCD TO 
143E:  GOTO   0886
....................        HT_DS1307_to( );// LCD TO 
1442:  GOTO   0A94
....................        giaima_lcd_ds18b20(); 
1446:  GOTO   0B1C
....................        hienthi_glcd(); 
144A:  GOTO   0BB8
....................        SETUP_GLCD (GLCD_GRAPHIC_MODE); 
144E:  MOVLW  36
1450:  MOVLB  4
1452:  MOVWF  x46
1454:  MOVLB  0
1456:  CALL   0692
....................       GLCD_MAU_NEN (0); 
145A:  MOVLB  4
145C:  CLRF   x46
145E:  MOVLB  0
1460:  CALL   070C
....................       HIEN_THI_IMAGE(); 
1464:  BRA    1202
....................       GDRAM_VDK_TO_GDRAM_GLCD_ALL (); 
1466:  RCALL  1116
....................         
....................        MP = KEY_4X4_DW (); 
1468:  BRA    1318
146A:  MOVFF  01,445
....................       IF (MP != 0XFF) 
146E:  MOVLB  4
1470:  INCFSZ x45,W
1472:  BRA    1476
1474:  BRA    147E
....................       { 
....................          IF (MP == 12) TT_HT = ~TT_HT; 
1476:  MOVF   x45,W
1478:  SUBLW  0C
147A:  BNZ   147E
147C:  BTG    x32.1
....................       } 
147E:  MOVLB  0
1480:  BRA    141A
....................      
....................    } 
.................... } 
....................  
1482:  SLEEP 
....................  

Configuration Fuses:
   Word  1: CC27   PLL12 CPUDIV1 USBDIV HS FCMEN IESO
   Word  2: 1E3E   PUT BROWNOUT BORV21 VREGEN NOWDT WDT32768
   Word  3: 8700   CCP2C1 PBADEN LPT1OSC MCLR
   Word  4: 00A1   STVREN NOLVP ICSP2 NOXINST NODEBUG
   Word  5: C00F   NOPROTECT NOCPB NOCPD
   Word  6: E00F   NOWRT NOWRTC NOWRTB NOWRTD
   Word  7: 400F   NOEBTR NOEBTRB
