CCS PCH C Compiler, Version 5.015, 5967               17-Aug-20 15:17

               Filename:   C:\Users\tsqua\OneDrive - student.mtsac.edu\Desktop\BAI_TAP_VXL_NEW_3\TONG _HOP_NHIET_DO_3_DoiHinh.lst

               ROM used:   7664 bytes (23%)
                           Largest free fragment is 25100
               RAM used:   1119 (55%) at main() level
                           1166 (57%) worst case
               Stack used: 15 locations (7 in main + 8 for interrupts)
               Stack size: 31

*
0000:  GOTO   1C24
*
0008:  MOVWF  04
000A:  MOVFF  FD8,05
000E:  MOVFF  FE0,06
0012:  MOVLB  0
0014:  MOVFF  FE9,0C
0018:  MOVFF  FEA,07
001C:  MOVFF  FE1,08
0020:  MOVFF  FE2,09
0024:  MOVFF  FD9,0A
0028:  MOVFF  FDA,0B
002C:  MOVFF  FF3,12
0030:  MOVFF  FF4,13
0034:  MOVFF  FFA,14
0038:  MOVFF  00,0E
003C:  MOVFF  01,0F
0040:  MOVFF  02,10
0044:  MOVFF  03,11
0048:  BTFSS  FA0.1
004A:  GOTO   0054
004E:  BTFSC  FA1.1
0050:  GOTO   03EC
0054:  MOVFF  0E,00
0058:  MOVFF  0F,01
005C:  MOVFF  10,02
0060:  MOVFF  11,03
0064:  MOVFF  0C,FE9
0068:  MOVFF  07,FEA
006C:  BSF    07.7
006E:  MOVFF  08,FE1
0072:  MOVFF  09,FE2
0076:  MOVFF  0A,FD9
007A:  MOVFF  0B,FDA
007E:  MOVFF  12,FF3
0082:  MOVFF  13,FF4
0086:  MOVFF  14,FFA
008A:  MOVF   04,W
008C:  MOVFF  06,FE0
0090:  MOVFF  05,FD8
0094:  RETFIE 0
....................  
.................... // CHU Y NHIET DO DOI THAP PHAN 
.................... #include <tv_pickit2_shift_1.c> 
.................... #INCLUDE    <18F4550.H> 
.................... //////////// Standard Header file for the PIC18F4550 device //////////////// 
.................... /////////////////////////////////////////////////////////////////////////// 
.................... ////        (C) Copyright 1996, 2013 Custom Computer Services          //// 
.................... //// This source code may only be used by licensed users of the CCS C  //// 
.................... //// compiler.  This source code may only be distributed to other      //// 
.................... //// licensed users of the CCS C compiler.  No other use, reproduction //// 
.................... //// or distribution is permitted without written permission.          //// 
.................... //// Derivative programs created using this software in object code    //// 
.................... //// form are not restricted in any way.                               //// 
.................... /////////////////////////////////////////////////////////////////////////// 
.................... #device PIC18F4550 
0096:  MOVFF  FF2,0D
009A:  BCF    FF2.7
009C:  CLRF   FF7
009E:  ADDLW  B0
00A0:  MOVWF  FF6
00A2:  MOVLW  00
00A4:  ADDWFC FF7,F
00A6:  TBLRD*+
00A8:  MOVF   FF5,W
00AA:  BTFSC  0D.7
00AC:  BSF    FF2.7
00AE:  RETURN 0
00B0:  DATA C0,F9
00B2:  DATA A4,B0
00B4:  DATA 99,92
00B6:  DATA 82,F8
00B8:  DATA 80,90
00BA:  DATA 88,83
00BC:  DATA C6,A1
00BE:  DATA 86,8E
00C0:  BTFSS  07.7
00C2:  BRA    00CA
00C4:  MOVFF  FF2,0D
00C8:  BCF    FF2.7
00CA:  CLRF   FF7
00CC:  ADDLW  E2
00CE:  MOVWF  FF6
00D0:  MOVLW  00
00D2:  ADDWFC FF7,F
00D4:  TBLRD*+
00D6:  MOVF   FF5,W
00D8:  BTFSS  07.7
00DA:  BRA    00E0
00DC:  BTFSC  0D.7
00DE:  BSF    FF2.7
00E0:  RETURN 0
00E2:  DATA 7F,BF
00E4:  DATA DF,EF
00E6:  DATA F7,FB
00E8:  DATA FD,FE
00EA:  MOVFF  FF2,0D
00EE:  BCF    FF2.7
00F0:  CLRF   FF7
00F2:  ADDLW  04
00F4:  MOVWF  FF6
00F6:  MOVLW  01
00F8:  ADDWFC FF7,F
00FA:  TBLRD*+
00FC:  MOVF   FF5,W
00FE:  BTFSC  0D.7
0100:  BSF    FF2.7
0102:  RETURN 0
0104:  DATA 80,C0
0106:  DATA 94,D4
*
0298:  MOVLB  4
029A:  MOVF   x84,W
029C:  MULWF  x86
029E:  MOVFF  FF3,01
02A2:  MOVFF  FF4,00
02A6:  MULWF  x87
02A8:  MOVF   FF3,W
02AA:  ADDWF  00,F
02AC:  MOVF   x85,W
02AE:  MULWF  x86
02B0:  MOVF   FF3,W
02B2:  ADDWFC 00,W
02B4:  MOVWF  02
02B6:  MOVLB  0
02B8:  RETURN 0
*
03FE:  DATA 4C,4D
0400:  DATA 33,35
0402:  DATA 3A,20
0404:  DATA 00,00
0406:  DATA 44,53
0408:  DATA 31,38
040A:  DATA 42,32
040C:  DATA 30,3A
040E:  DATA 20,00
*
09AE:  MOVLW  8E
09B0:  MOVWF  00
09B2:  MOVFF  460,01
09B6:  MOVFF  45F,02
09BA:  CLRF   03
09BC:  MOVF   01,F
09BE:  BNZ   09D2
09C0:  MOVFF  02,01
09C4:  CLRF   02
09C6:  MOVLW  08
09C8:  SUBWF  00,F
09CA:  MOVF   01,F
09CC:  BNZ   09D2
09CE:  CLRF   00
09D0:  BRA    09E2
09D2:  BCF    FD8.0
09D4:  BTFSC  01.7
09D6:  BRA    09E0
09D8:  RLCF   02,F
09DA:  RLCF   01,F
09DC:  DECF   00,F
09DE:  BRA    09D2
09E0:  BCF    01.7
09E2:  RETURN 0
09E4:  MOVLW  80
09E6:  BTFSS  FD8.1
09E8:  BRA    09EE
09EA:  MOVLB  4
09EC:  XORWF  x64,F
09EE:  MOVLB  4
09F0:  CLRF   x69
09F2:  CLRF   x6A
09F4:  MOVFF  460,468
09F8:  MOVF   x64,W
09FA:  XORWF  x68,F
09FC:  MOVF   x5F,W
09FE:  BTFSC  FD8.2
0A00:  BRA    0BC0
0A02:  MOVWF  x67
0A04:  MOVWF  00
0A06:  MOVF   x63,W
0A08:  BTFSC  FD8.2
0A0A:  BRA    0BD2
0A0C:  SUBWF  x67,F
0A0E:  BTFSC  FD8.2
0A10:  BRA    0B18
0A12:  BNC   0A90
0A14:  MOVFF  464,46D
0A18:  BSF    x6D.7
0A1A:  MOVFF  465,46C
0A1E:  MOVFF  466,46B
0A22:  CLRF   x6A
0A24:  BCF    FD8.0
0A26:  RRCF   x6D,F
0A28:  RRCF   x6C,F
0A2A:  RRCF   x6B,F
0A2C:  RRCF   x6A,F
0A2E:  DECFSZ x67,F
0A30:  BRA    0A22
0A32:  BTFSS  x68.7
0A34:  BRA    0A3C
0A36:  BSF    x69.0
0A38:  BRA    0BFA
0A3A:  BCF    x69.0
0A3C:  BCF    x67.0
0A3E:  BSF    x69.4
0A40:  MOVLW  04
0A42:  MOVWF  FEA
0A44:  MOVLW  62
0A46:  MOVWF  FE9
0A48:  BRA    0C20
0A4A:  BCF    x69.4
0A4C:  BTFSC  x68.7
0A4E:  BRA    0A64
0A50:  BTFSS  x67.0
0A52:  BRA    0A7A
0A54:  RRCF   x6D,F
0A56:  RRCF   x6C,F
0A58:  RRCF   x6B,F
0A5A:  RRCF   x6A,F
0A5C:  INCF   00,F
0A5E:  BTFSC  FD8.2
0A60:  BRA    0BF0
0A62:  BRA    0A7A
0A64:  BTFSC  x6D.7
0A66:  BRA    0A80
0A68:  BCF    FD8.0
0A6A:  RLCF   x6A,F
0A6C:  RLCF   x6B,F
0A6E:  RLCF   x6C,F
0A70:  RLCF   x6D,F
0A72:  DECF   00,F
0A74:  BTFSC  FD8.2
0A76:  BRA    0BF0
0A78:  BRA    0A64
0A7A:  BSF    x69.6
0A7C:  BRA    0B58
0A7E:  BCF    x69.6
0A80:  MOVFF  460,468
0A84:  BTFSS  x60.7
0A86:  BRA    0A8C
0A88:  BSF    x6D.7
0A8A:  BRA    0BE2
0A8C:  BCF    x6D.7
0A8E:  BRA    0BE2
0A90:  MOVFF  463,467
0A94:  MOVFF  463,00
0A98:  MOVF   x5F,W
0A9A:  SUBWF  x67,F
0A9C:  MOVFF  460,46D
0AA0:  BSF    x6D.7
0AA2:  MOVFF  461,46C
0AA6:  MOVFF  462,46B
0AAA:  CLRF   x6A
0AAC:  BCF    FD8.0
0AAE:  RRCF   x6D,F
0AB0:  RRCF   x6C,F
0AB2:  RRCF   x6B,F
0AB4:  RRCF   x6A,F
0AB6:  DECFSZ x67,F
0AB8:  BRA    0AAA
0ABA:  BTFSS  x68.7
0ABC:  BRA    0AC4
0ABE:  BSF    x69.1
0AC0:  BRA    0BFA
0AC2:  BCF    x69.1
0AC4:  BCF    x67.0
0AC6:  BSF    x69.5
0AC8:  MOVLW  04
0ACA:  MOVWF  FEA
0ACC:  MOVLW  66
0ACE:  MOVWF  FE9
0AD0:  BRA    0C20
0AD2:  BCF    x69.5
0AD4:  BTFSC  x68.7
0AD6:  BRA    0AEC
0AD8:  BTFSS  x67.0
0ADA:  BRA    0B02
0ADC:  RRCF   x6D,F
0ADE:  RRCF   x6C,F
0AE0:  RRCF   x6B,F
0AE2:  RRCF   x6A,F
0AE4:  INCF   00,F
0AE6:  BTFSC  FD8.2
0AE8:  BRA    0BF0
0AEA:  BRA    0B02
0AEC:  BTFSC  x6D.7
0AEE:  BRA    0B08
0AF0:  BCF    FD8.0
0AF2:  RLCF   x6A,F
0AF4:  RLCF   x6B,F
0AF6:  RLCF   x6C,F
0AF8:  RLCF   x6D,F
0AFA:  DECF   00,F
0AFC:  BTFSC  FD8.2
0AFE:  BRA    0BF0
0B00:  BRA    0AEC
0B02:  BSF    x69.7
0B04:  BRA    0B58
0B06:  BCF    x69.7
0B08:  MOVFF  464,468
0B0C:  BTFSS  x64.7
0B0E:  BRA    0B14
0B10:  BSF    x6D.7
0B12:  BRA    0BE2
0B14:  BCF    x6D.7
0B16:  BRA    0BE2
0B18:  MOVFF  464,46D
0B1C:  BSF    x6D.7
0B1E:  MOVFF  465,46C
0B22:  MOVFF  466,46B
0B26:  BTFSS  x68.7
0B28:  BRA    0B32
0B2A:  BCF    x6D.7
0B2C:  BSF    x69.2
0B2E:  BRA    0BFA
0B30:  BCF    x69.2
0B32:  CLRF   x6A
0B34:  BCF    x67.0
0B36:  MOVLW  04
0B38:  MOVWF  FEA
0B3A:  MOVLW  62
0B3C:  MOVWF  FE9
0B3E:  BRA    0C20
0B40:  BTFSC  x68.7
0B42:  BRA    0B7C
0B44:  MOVFF  460,468
0B48:  BTFSS  x67.0
0B4A:  BRA    0B58
0B4C:  RRCF   x6D,F
0B4E:  RRCF   x6C,F
0B50:  RRCF   x6B,F
0B52:  RRCF   x6A,F
0B54:  INCF   00,F
0B56:  BZ    0BF0
0B58:  BTFSS  x6A.7
0B5A:  BRA    0B72
0B5C:  INCF   x6B,F
0B5E:  BNZ   0B72
0B60:  INCF   x6C,F
0B62:  BNZ   0B72
0B64:  INCF   x6D,F
0B66:  BNZ   0B72
0B68:  RRCF   x6D,F
0B6A:  RRCF   x6C,F
0B6C:  RRCF   x6B,F
0B6E:  INCF   00,F
0B70:  BZ    0BF0
0B72:  BTFSC  x69.6
0B74:  BRA    0A7E
0B76:  BTFSC  x69.7
0B78:  BRA    0B06
0B7A:  BRA    0BB4
0B7C:  MOVLW  80
0B7E:  XORWF  x6D,F
0B80:  BTFSS  x6D.7
0B82:  BRA    0B8C
0B84:  BRA    0BFA
0B86:  MOVFF  464,468
0B8A:  BRA    0BA0
0B8C:  MOVFF  460,468
0B90:  MOVF   x6D,F
0B92:  BNZ   0BA0
0B94:  MOVF   x6C,F
0B96:  BNZ   0BA0
0B98:  MOVF   x6B,F
0B9A:  BNZ   0BA0
0B9C:  CLRF   00
0B9E:  BRA    0BE2
0BA0:  BTFSC  x6D.7
0BA2:  BRA    0BB4
0BA4:  BCF    FD8.0
0BA6:  RLCF   x6A,F
0BA8:  RLCF   x6B,F
0BAA:  RLCF   x6C,F
0BAC:  RLCF   x6D,F
0BAE:  DECFSZ 00,F
0BB0:  BRA    0BA0
0BB2:  BRA    0BF0
0BB4:  BTFSS  x68.7
0BB6:  BRA    0BBC
0BB8:  BSF    x6D.7
0BBA:  BRA    0BE2
0BBC:  BCF    x6D.7
0BBE:  BRA    0BE2
0BC0:  MOVFF  463,00
0BC4:  MOVFF  464,46D
0BC8:  MOVFF  465,46C
0BCC:  MOVFF  466,46B
0BD0:  BRA    0BE2
0BD2:  MOVFF  45F,00
0BD6:  MOVFF  460,46D
0BDA:  MOVFF  461,46C
0BDE:  MOVFF  462,46B
0BE2:  MOVFF  46D,01
0BE6:  MOVFF  46C,02
0BEA:  MOVFF  46B,03
0BEE:  BRA    0C58
0BF0:  CLRF   00
0BF2:  CLRF   01
0BF4:  CLRF   02
0BF6:  CLRF   03
0BF8:  BRA    0C58
0BFA:  CLRF   x6A
0BFC:  COMF   x6B,F
0BFE:  COMF   x6C,F
0C00:  COMF   x6D,F
0C02:  COMF   x6A,F
0C04:  INCF   x6A,F
0C06:  BNZ   0C12
0C08:  INCF   x6B,F
0C0A:  BNZ   0C12
0C0C:  INCF   x6C,F
0C0E:  BNZ   0C12
0C10:  INCF   x6D,F
0C12:  BTFSC  x69.0
0C14:  BRA    0A3A
0C16:  BTFSC  x69.1
0C18:  BRA    0AC2
0C1A:  BTFSC  x69.2
0C1C:  BRA    0B30
0C1E:  BRA    0B86
0C20:  MOVF   FEF,W
0C22:  ADDWF  x6B,F
0C24:  BNC   0C30
0C26:  INCF   x6C,F
0C28:  BNZ   0C30
0C2A:  INCF   x6D,F
0C2C:  BTFSC  FD8.2
0C2E:  BSF    x67.0
0C30:  MOVF   FED,F
0C32:  MOVF   FEF,W
0C34:  ADDWF  x6C,F
0C36:  BNC   0C3E
0C38:  INCF   x6D,F
0C3A:  BTFSC  FD8.2
0C3C:  BSF    x67.0
0C3E:  MOVF   FED,F
0C40:  MOVF   FEF,W
0C42:  BTFSC  FEF.7
0C44:  BRA    0C48
0C46:  XORLW  80
0C48:  ADDWF  x6D,F
0C4A:  BTFSC  FD8.0
0C4C:  BSF    x67.0
0C4E:  BTFSC  x69.4
0C50:  BRA    0A4A
0C52:  BTFSC  x69.5
0C54:  BRA    0AD2
0C56:  BRA    0B40
0C58:  MOVLB  0
0C5A:  GOTO   0F4A (RETURN)
0C5E:  MOVLB  4
0C60:  MOVF   x5F,W
0C62:  BTFSC  FD8.2
0C64:  BRA    0DB0
0C66:  MOVWF  x6B
0C68:  MOVF   x63,W
0C6A:  BTFSC  FD8.2
0C6C:  BRA    0DB0
0C6E:  SUBWF  x6B,F
0C70:  BNC   0C7C
0C72:  MOVLW  7F
0C74:  ADDWF  x6B,F
0C76:  BTFSC  FD8.0
0C78:  BRA    0DB0
0C7A:  BRA    0C88
0C7C:  MOVLW  81
0C7E:  SUBWF  x6B,F
0C80:  BTFSS  FD8.0
0C82:  BRA    0DB0
0C84:  BTFSC  FD8.2
0C86:  BRA    0DB0
0C88:  MOVFF  46B,00
0C8C:  CLRF   01
0C8E:  CLRF   02
0C90:  CLRF   03
0C92:  CLRF   x6A
0C94:  MOVFF  460,469
0C98:  BSF    x69.7
0C9A:  MOVFF  461,468
0C9E:  MOVFF  462,467
0CA2:  MOVLW  19
0CA4:  MOVWF  x6B
0CA6:  MOVF   x66,W
0CA8:  SUBWF  x67,F
0CAA:  BC    0CC6
0CAC:  MOVLW  01
0CAE:  SUBWF  x68,F
0CB0:  BC    0CC6
0CB2:  SUBWF  x69,F
0CB4:  BC    0CC6
0CB6:  SUBWF  x6A,F
0CB8:  BC    0CC6
0CBA:  INCF   x6A,F
0CBC:  INCF   x69,F
0CBE:  INCF   x68,F
0CC0:  MOVF   x66,W
0CC2:  ADDWF  x67,F
0CC4:  BRA    0D16
0CC6:  MOVF   x65,W
0CC8:  SUBWF  x68,F
0CCA:  BC    0CF0
0CCC:  MOVLW  01
0CCE:  SUBWF  x69,F
0CD0:  BC    0CF0
0CD2:  SUBWF  x6A,F
0CD4:  BC    0CF0
0CD6:  INCF   x6A,F
0CD8:  INCF   x69,F
0CDA:  MOVF   x65,W
0CDC:  ADDWF  x68,F
0CDE:  MOVF   x66,W
0CE0:  ADDWF  x67,F
0CE2:  BNC   0D16
0CE4:  INCF   x68,F
0CE6:  BNZ   0D16
0CE8:  INCF   x69,F
0CEA:  BNZ   0D16
0CEC:  INCF   x6A,F
0CEE:  BRA    0D16
0CF0:  MOVF   x64,W
0CF2:  IORLW  80
0CF4:  SUBWF  x69,F
0CF6:  BC    0D14
0CF8:  MOVLW  01
0CFA:  SUBWF  x6A,F
0CFC:  BC    0D14
0CFE:  INCF   x6A,F
0D00:  MOVF   x64,W
0D02:  IORLW  80
0D04:  ADDWF  x69,F
0D06:  MOVF   x65,W
0D08:  ADDWF  x68,F
0D0A:  BNC   0CDE
0D0C:  INCF   x69,F
0D0E:  BNZ   0CDE
0D10:  INCF   x6A,F
0D12:  BRA    0CDE
0D14:  BSF    03.0
0D16:  DECFSZ x6B,F
0D18:  BRA    0D1C
0D1A:  BRA    0D32
0D1C:  BCF    FD8.0
0D1E:  RLCF   x67,F
0D20:  RLCF   x68,F
0D22:  RLCF   x69,F
0D24:  RLCF   x6A,F
0D26:  BCF    FD8.0
0D28:  RLCF   03,F
0D2A:  RLCF   02,F
0D2C:  RLCF   01,F
0D2E:  RLCF   x6C,F
0D30:  BRA    0CA6
0D32:  BTFSS  x6C.0
0D34:  BRA    0D42
0D36:  BCF    FD8.0
0D38:  RRCF   01,F
0D3A:  RRCF   02,F
0D3C:  RRCF   03,F
0D3E:  RRCF   x6C,F
0D40:  BRA    0D46
0D42:  DECF   00,F
0D44:  BZ    0DB0
0D46:  BTFSC  x6C.7
0D48:  BRA    0D86
0D4A:  BCF    FD8.0
0D4C:  RLCF   x67,F
0D4E:  RLCF   x68,F
0D50:  RLCF   x69,F
0D52:  RLCF   x6A,F
0D54:  MOVF   x66,W
0D56:  SUBWF  x67,F
0D58:  BC    0D68
0D5A:  MOVLW  01
0D5C:  SUBWF  x68,F
0D5E:  BC    0D68
0D60:  SUBWF  x69,F
0D62:  BC    0D68
0D64:  SUBWF  x6A,F
0D66:  BNC   0D9C
0D68:  MOVF   x65,W
0D6A:  SUBWF  x68,F
0D6C:  BC    0D78
0D6E:  MOVLW  01
0D70:  SUBWF  x69,F
0D72:  BC    0D78
0D74:  SUBWF  x6A,F
0D76:  BNC   0D9C
0D78:  MOVF   x64,W
0D7A:  IORLW  80
0D7C:  SUBWF  x69,F
0D7E:  BC    0D86
0D80:  MOVLW  01
0D82:  SUBWF  x6A,F
0D84:  BNC   0D9C
0D86:  INCF   03,F
0D88:  BNZ   0D9C
0D8A:  INCF   02,F
0D8C:  BNZ   0D9C
0D8E:  INCF   01,F
0D90:  BNZ   0D9C
0D92:  INCF   00,F
0D94:  BZ    0DB0
0D96:  RRCF   01,F
0D98:  RRCF   02,F
0D9A:  RRCF   03,F
0D9C:  MOVFF  460,46B
0DA0:  MOVF   x64,W
0DA2:  XORWF  x6B,F
0DA4:  BTFSS  x6B.7
0DA6:  BRA    0DAC
0DA8:  BSF    01.7
0DAA:  BRA    0DB8
0DAC:  BCF    01.7
0DAE:  BRA    0DB8
0DB0:  CLRF   00
0DB2:  CLRF   01
0DB4:  CLRF   02
0DB6:  CLRF   03
0DB8:  MOVLB  0
0DBA:  RETURN 0
0DBC:  MOVLB  4
0DBE:  MOVF   x5F,W
0DC0:  BTFSC  FD8.2
0DC2:  BRA    0EA6
0DC4:  MOVWF  00
0DC6:  MOVF   x63,W
0DC8:  BTFSC  FD8.2
0DCA:  BRA    0EA6
0DCC:  ADDWF  00,F
0DCE:  BNC   0DD8
0DD0:  MOVLW  81
0DD2:  ADDWF  00,F
0DD4:  BC    0EA6
0DD6:  BRA    0DE0
0DD8:  MOVLW  7F
0DDA:  SUBWF  00,F
0DDC:  BNC   0EA6
0DDE:  BZ    0EA6
0DE0:  MOVFF  460,467
0DE4:  MOVF   x64,W
0DE6:  XORWF  x67,F
0DE8:  BSF    x60.7
0DEA:  BSF    x64.7
0DEC:  MOVF   x62,W
0DEE:  MULWF  x66
0DF0:  MOVFF  FF4,469
0DF4:  MOVF   x61,W
0DF6:  MULWF  x65
0DF8:  MOVFF  FF4,03
0DFC:  MOVFF  FF3,468
0E00:  MULWF  x66
0E02:  MOVF   FF3,W
0E04:  ADDWF  x69,F
0E06:  MOVF   FF4,W
0E08:  ADDWFC x68,F
0E0A:  MOVLW  00
0E0C:  ADDWFC 03,F
0E0E:  MOVF   x62,W
0E10:  MULWF  x65
0E12:  MOVF   FF3,W
0E14:  ADDWF  x69,F
0E16:  MOVF   FF4,W
0E18:  ADDWFC x68,F
0E1A:  MOVLW  00
0E1C:  CLRF   02
0E1E:  ADDWFC 03,F
0E20:  ADDWFC 02,F
0E22:  MOVF   x60,W
0E24:  MULWF  x66
0E26:  MOVF   FF3,W
0E28:  ADDWF  x68,F
0E2A:  MOVF   FF4,W
0E2C:  ADDWFC 03,F
0E2E:  MOVLW  00
0E30:  ADDWFC 02,F
0E32:  MOVF   x60,W
0E34:  MULWF  x65
0E36:  MOVF   FF3,W
0E38:  ADDWF  03,F
0E3A:  MOVF   FF4,W
0E3C:  ADDWFC 02,F
0E3E:  MOVLW  00
0E40:  CLRF   01
0E42:  ADDWFC 01,F
0E44:  MOVF   x62,W
0E46:  MULWF  x64
0E48:  MOVF   FF3,W
0E4A:  ADDWF  x68,F
0E4C:  MOVF   FF4,W
0E4E:  ADDWFC 03,F
0E50:  MOVLW  00
0E52:  ADDWFC 02,F
0E54:  ADDWFC 01,F
0E56:  MOVF   x61,W
0E58:  MULWF  x64
0E5A:  MOVF   FF3,W
0E5C:  ADDWF  03,F
0E5E:  MOVF   FF4,W
0E60:  ADDWFC 02,F
0E62:  MOVLW  00
0E64:  ADDWFC 01,F
0E66:  MOVF   x60,W
0E68:  MULWF  x64
0E6A:  MOVF   FF3,W
0E6C:  ADDWF  02,F
0E6E:  MOVF   FF4,W
0E70:  ADDWFC 01,F
0E72:  INCF   00,F
0E74:  BTFSC  01.7
0E76:  BRA    0E82
0E78:  RLCF   x68,F
0E7A:  RLCF   03,F
0E7C:  RLCF   02,F
0E7E:  RLCF   01,F
0E80:  DECF   00,F
0E82:  MOVLW  00
0E84:  BTFSS  x68.7
0E86:  BRA    0E9C
0E88:  INCF   03,F
0E8A:  ADDWFC 02,F
0E8C:  ADDWFC 01,F
0E8E:  MOVF   01,W
0E90:  BNZ   0E9C
0E92:  MOVF   02,W
0E94:  BNZ   0E9C
0E96:  MOVF   03,W
0E98:  BNZ   0E9C
0E9A:  INCF   00,F
0E9C:  BTFSC  x67.7
0E9E:  BSF    01.7
0EA0:  BTFSS  x67.7
0EA2:  BCF    01.7
0EA4:  BRA    0EAE
0EA6:  CLRF   00
0EA8:  CLRF   01
0EAA:  CLRF   02
0EAC:  CLRF   03
0EAE:  MOVLB  0
0EB0:  GOTO   0FFE (RETURN)
0EB4:  MOVLW  8E
0EB6:  MOVWF  00
0EB8:  MOVLB  4
0EBA:  MOVF   x5F,W
0EBC:  SUBWF  00,F
0EBE:  MOVFF  460,02
0EC2:  MOVFF  461,01
0EC6:  BSF    02.7
0EC8:  MOVF   00,F
0ECA:  BZ    0EDE
0ECC:  BCF    FD8.0
0ECE:  MOVF   02,F
0ED0:  BNZ   0ED6
0ED2:  MOVF   01,F
0ED4:  BZ    0EDE
0ED6:  RRCF   02,F
0ED8:  RRCF   01,F
0EDA:  DECFSZ 00,F
0EDC:  BRA    0ECC
0EDE:  BTFSS  x60.7
0EE0:  BRA    0EEC
0EE2:  COMF   01,F
0EE4:  COMF   02,F
0EE6:  INCF   01,F
0EE8:  BTFSC  FD8.2
0EEA:  INCF   02,F
0EEC:  MOVLB  0
0EEE:  GOTO   1010 (RETURN)
*
101C:  MOVLB  4
101E:  MOVF   x61,W
1020:  CLRF   01
1022:  SUBWF  x60,W
1024:  BC    102C
1026:  MOVFF  460,00
102A:  BRA    1044
102C:  CLRF   00
102E:  MOVLW  08
1030:  MOVWF  x62
1032:  RLCF   x60,F
1034:  RLCF   00,F
1036:  MOVF   x61,W
1038:  SUBWF  00,W
103A:  BTFSC  FD8.0
103C:  MOVWF  00
103E:  RLCF   01,F
1040:  DECFSZ x62,F
1042:  BRA    1032
1044:  MOVLB  0
1046:  RETURN 0
1048:  CLRF   01
104A:  CLRF   02
104C:  CLRF   00
104E:  CLRF   03
1050:  MOVLB  4
1052:  MOVF   x64,W
1054:  BNZ   105A
1056:  MOVF   x63,W
1058:  BZ    108A
105A:  MOVLW  10
105C:  MOVWF  x65
105E:  BCF    FD8.0
1060:  RLCF   x61,F
1062:  RLCF   x62,F
1064:  RLCF   00,F
1066:  RLCF   03,F
1068:  MOVF   x64,W
106A:  SUBWF  03,W
106C:  BNZ   1072
106E:  MOVF   x63,W
1070:  SUBWF  00,W
1072:  BNC   1082
1074:  MOVF   x63,W
1076:  SUBWF  00,F
1078:  BTFSS  FD8.0
107A:  DECF   03,F
107C:  MOVF   x64,W
107E:  SUBWF  03,F
1080:  BSF    FD8.0
1082:  RLCF   01,F
1084:  RLCF   02,F
1086:  DECFSZ x65,F
1088:  BRA    105E
108A:  MOVLB  0
108C:  RETURN 0
*
13EC:  TBLRD*+
13EE:  MOVF   FF5,F
13F0:  BZ    140A
13F2:  MOVFF  FF6,45F
13F6:  MOVFF  FF7,460
13FA:  MOVFF  FF5,461
13FE:  RCALL  13D4
1400:  MOVFF  45F,FF6
1404:  MOVFF  460,FF7
1408:  BRA    13EC
140A:  RETURN 0
*
18DC:  CLRF   00
18DE:  CLRF   01
18E0:  MOVLB  4
18E2:  MOVF   x68,W
18E4:  BCF    FD8.0
18E6:  BTFSC  x69.0
18E8:  ADDWF  00,F
18EA:  RRCF   00,F
18EC:  RRCF   01,F
18EE:  BTFSC  x69.1
18F0:  ADDWF  00,F
18F2:  RRCF   00,F
18F4:  RRCF   01,F
18F6:  BTFSC  x69.2
18F8:  ADDWF  00,F
18FA:  RRCF   00,F
18FC:  RRCF   01,F
18FE:  BTFSC  x69.3
1900:  ADDWF  00,F
1902:  RRCF   00,F
1904:  RRCF   01,F
1906:  BTFSC  x69.4
1908:  ADDWF  00,F
190A:  RRCF   00,F
190C:  RRCF   01,F
190E:  BTFSC  x69.5
1910:  ADDWF  00,F
1912:  RRCF   00,F
1914:  RRCF   01,F
1916:  BTFSC  x69.6
1918:  ADDWF  00,F
191A:  RRCF   00,F
191C:  RRCF   01,F
191E:  BTFSC  x69.7
1920:  ADDWF  00,F
1922:  RRCF   00,F
1924:  RRCF   01,F
1926:  MOVLB  0
1928:  RETURN 0
....................  
.................... #list 
....................  
.................... #DEVICE     ADC=10 
.................... #FUSES      NOWDT,PUT,HS,NOPROTECT,NOLVP,CPUDIV1 
.................... #USE        I2C(MASTER,SLOW,SDA=PIN_B0,SCL=PIN_B1) 
*
0668:  MOVLW  08
066A:  MOVWF  01
066C:  NOP   
066E:  BCF    F8A.1
0670:  BCF    F93.1
0672:  NOP   
0674:  MOVLB  4
0676:  RLCF   x5F,F
0678:  BCF    F8A.0
067A:  BTFSC  FD8.0
067C:  BSF    F93.0
067E:  BTFSS  FD8.0
0680:  BCF    F93.0
0682:  BSF    F93.1
0684:  BTFSS  F81.1
0686:  BRA    0684
0688:  DECFSZ 01,F
068A:  BRA    068E
068C:  BRA    0692
068E:  MOVLB  0
0690:  BRA    066C
0692:  NOP   
0694:  BCF    F8A.1
0696:  BCF    F93.1
0698:  NOP   
069A:  BSF    F93.0
069C:  NOP   
069E:  NOP   
06A0:  BSF    F93.1
06A2:  BTFSS  F81.1
06A4:  BRA    06A2
06A6:  CLRF   01
06A8:  NOP   
06AA:  BTFSC  F81.0
06AC:  BSF    01.0
06AE:  BCF    F8A.1
06B0:  BCF    F93.1
06B2:  BCF    F8A.0
06B4:  BCF    F93.0
06B6:  MOVLB  0
06B8:  RETURN 0
06BA:  MOVLW  08
06BC:  MOVLB  4
06BE:  MOVWF  x60
06C0:  MOVFF  00,461
06C4:  BSF    F93.0
06C6:  NOP   
06C8:  BSF    F93.1
06CA:  BTFSS  F81.1
06CC:  BRA    06CA
06CE:  BTFSC  F81.0
06D0:  BSF    FD8.0
06D2:  BTFSS  F81.0
06D4:  BCF    FD8.0
06D6:  RLCF   01,F
06D8:  NOP   
06DA:  BCF    F93.1
06DC:  BCF    F8A.1
06DE:  DECFSZ x60,F
06E0:  BRA    06C4
06E2:  BSF    F93.0
06E4:  NOP   
06E6:  BCF    F8A.0
06E8:  MOVF   x61,W
06EA:  BTFSS  FD8.2
06EC:  BCF    F93.0
06EE:  NOP   
06F0:  BSF    F93.1
06F2:  BTFSS  F81.1
06F4:  BRA    06F2
06F6:  NOP   
06F8:  BCF    F8A.1
06FA:  BCF    F93.1
06FC:  NOP   
06FE:  BCF    F8A.0
0700:  BCF    F93.0
0702:  MOVLB  0
0704:  RETURN 0
.................... #USE        DELAY(CLOCK=20000000) 
*
01AA:  MOVLW  03
01AC:  MOVLB  4
01AE:  SUBWF  x85,F
01B0:  BNC   01C6
01B2:  MOVLW  04
01B4:  MOVWF  FEA
01B6:  MOVLW  85
01B8:  MOVWF  FE9
01BA:  MOVF   FEF,W
01BC:  BZ    01C6
01BE:  BRA    01C2
01C0:  BRA    01C2
01C2:  DECFSZ FEF,F
01C4:  BRA    01C0
01C6:  MOVLB  0
01C8:  RETURN 0
*
047E:  MOVLW  04
0480:  MOVWF  FEA
0482:  MOVLW  60
0484:  MOVWF  FE9
0486:  MOVF   FEF,W
0488:  BZ    04A4
048A:  MOVLW  06
048C:  MOVWF  01
048E:  CLRF   00
0490:  DECFSZ 00,F
0492:  BRA    0490
0494:  DECFSZ 01,F
0496:  BRA    048E
0498:  MOVLW  7B
049A:  MOVWF  00
049C:  DECFSZ 00,F
049E:  BRA    049C
04A0:  DECFSZ FEF,F
04A2:  BRA    048A
04A4:  RETURN 0
.................... //#USE        rs232(baud=9600, xmit=PIN_C6,rcv=PIN_C7) 
.................... //NUT NHAN: 
.................... #DEFINE  BT0     PIN_B5 
.................... #DEFINE  BT1     PIN_B4 
.................... #DEFINE  BT2     PIN_B3 
.................... #DEFINE  BT3     PIN_B2 
....................  
.................... #DEFINE  ON      BT0       //DK LED DON, MOTOR 
.................... #DEFINE  OFF     BT1 
.................... #DEFINE  INV     BT2 
....................  
.................... #DEFINE  UP      BT0    //DK LED DON 
.................... #DEFINE  DW      BT1 
.................... #DEFINE  CLR     BT2 
.................... #DEFINE  MOD     BT3 
....................  
.................... #DEFINE  STOP    BT3 
....................  
.................... #DEFINE  ON1     BT0      
.................... #DEFINE  OFF1    BT1 
.................... #DEFINE  ON2     BT2        
.................... #DEFINE  OFF2    BT3 
....................  
....................  
.................... #DEFINE     TRIGGER      PIN_E2 
.................... #DEFINE     ECHO         PIN_E1 
.................... //   IC74138_A    PIN_B6   //OUTPUT GIAI MA 2 SANG 4 TICH CUC MUC 0 
.................... //   IC74138_B    PIN_B7   //OUTPUT GIAI MA 2 SANG 4 TICH CUC MUC 0 
....................  
.................... //          ENCODER  PIN_C0   //RC0/T13CKI 
....................  
.................... //          CB_KC    PIN_A2   //RA2/AN2 
.................... //          PIR      PIN_A3   //RA3/AN3 
.................... //          CBXUNG   PIN_A4   //RA4/T0CKI 
.................... //          LEDTHU   PIN_A4   //RA4/T0CKI//SW802 
....................  
.................... //          CB_KCSA_TRIGGER  PIN_E2   //RE2/SDO  DUNG CHUNG 
.................... //          CB_KCSA_RCHO     PIN_E1   //RE1 
....................  
.................... //          CB_TCS3200_OUT    PIN_E1   //RE1 //CAM BIEN MAU TCS3200 
.................... //          CB_TCS3200_S0     B12      //LAY TU MBI5026 
.................... //          CB_TCS3200_S1     B13      //LAY TU MBI5026 
.................... //          CB_TCS3200_S2     B14      //LAY TU MBI5026 
.................... //          CB_TCS3200_S3     B15      //LAY TU MBI5026 
....................  
.................... //          CB_POWER  SW803 
.................... //          CB_GAS      AIN3_PCF8591T   //RE1 
.................... //          CB_QUANG    AIN2_PCF8591T    
.................... //          CB_LM35B    AIN1_PCF8591T   //RA1/AN1 
.................... //          CB_LM35A    AIN0_PCF8591T   //RE1/AN0 
....................  
.................... //XXXXXXXXXXXXXXXXXXXXXXXXXXXXXXXXXXXXXXXXXXXXXXXXX 
.................... #DEFINE      ENABLE_573A      PIN_D1         //CS0 CUA A 
.................... #DEFINE      ENABLE_573B      PIN_D0         //CS1 CUA B 
.................... //XXXXXXXXXXXXXXXXXXXXXXXXXXXXXXXXXXXXXXXXXXXXXXXXX 
.................... #DEFINE      SSDO             PIN_E2         //CHUNG TAT CA 
.................... #DEFINE      SSCK             PIN_E0         //CHUNG TAT CA 
.................... //XXXXXXXXXXXXXXXXXXXXXXXXXXXXXXXXXXXXXXXXXXXXXXXXX 
.................... #DEFINE      RCK_4LED7DOAN    PIN_D7         //A - 4 BYTE 
.................... #DEFINE      G_4LED7DOAN      PIN_D6         //A - 4 BYTE 
.................... //XXXXXXXXXXXXXXXXXXXXXXXXXXXXXXXXXXXXXXXXXXXX     
.................... #DEFINE      RCK_MATRANLED    PIN_D7         //B - 3 BYTE DAO 
.................... #DEFINE      G_MATRANLED      PIN_D6         //B - 3 BYTE DAO 
.................... //XXXXXXXXXXXXXXXXXXXXXXXXXXXXXXXXXXXXXXXXXXXXXXXXX 
.................... #DEFINE      RCK_32LED        PIN_D5         //A - 4 BYTE 
.................... #DEFINE      G_32LED          PIN_D4         //A - 4 BYTE 
.................... //XXXXXXXXXXXXXXXXXXXXXXXXXXXXXXXXXXXXXXXXXXXX  
.................... #DEFINE      RCK_8LEDQUET     PIN_D5         //B - 2 BYTE DAO 
.................... #DEFINE      G_8LEDQUET       PIN_D4         //B - 2 BYTE DAO 
.................... //XXXXXXXXXXXXXXXXXXXXXXXXXXXXXXXXXXXXXXXXXXXXXXXXX 
.................... #DEFINE      RCK_LCD20X4      PIN_D3         //A - 2 BYTE DAO 
.................... #DEFINE      G_LCD20X4         PIN_D2         //A - 2 BYTE DAO 
.................... //XXXXXXXXXXXXXXXXXXXXXXXXXXXXXXXXXXXXXXXXXXXX  
.................... #DEFINE      RCK_BUZERELAY    PIN_D3     //B - 1 BYTE  
.................... #DEFINE      G_BUZERELAY      PIN_D2         //B - 1 BYTE  
....................  
.................... VOID XUAT_LCD20X4(UNSIGNED INT8 LCD_SIGNAL,LCD_INS_HTHI); 
....................  
.................... VOID XUAT_BUZZER_RELAY(); 
.................... //XXXXXXXXXXXXXXXXXXXXXXXXXXXXXXXXXXXXXXXXXXXX    
.................... #DEFINE     CHOT_2_IC_74573_A_B  OUTPUT_D(0XFC) 
....................  
.................... UNSIGNED INT8 TIN_HIEU_DK_74573_A; 
.................... #BIT G_4A         = TIN_HIEU_DK_74573_A.6 
.................... #BIT G_32A        = TIN_HIEU_DK_74573_A.4 
.................... #BIT G_LCDA       = TIN_HIEU_DK_74573_A.2 
.................... //XXXXXXXXXXXXXXXXXXXXXXXXXXXXXXXXXXXXXXXXXXXX          
.................... #DEFINE     MO_32_LED_DON        G_32A=0; //OUTPUT_LOW(G_32LED)  
.................... #DEFINE     TAT_32_LED_DON       G_32A=1; //OUTPUT_HIGH(G_32LED)  
.................... //XXXXXXXXXXXXXXXXXXXXXXXXXXXXXXXXXXXXXXXXXXXX          
.................... #DEFINE     MO_4_LED_7DOAN       G_4A=0;  //OUTPUT_LOW(G_4LED7DOAN) 
.................... #DEFINE     TAT_4_LED_7DOAN      G_4A=1;  //OUTPUT_HIGH(G_4LED7DOAN) 
.................... //XXXXXXXXXXXXXXXXXXXXXXXXXXXXXXXXXXXXXXXXXXXX  
.................... #DEFINE     MO_GLCD_LCD           G_LCDA=0;   //OUTPUT_LOW(G_LCD20X4) 
.................... #DEFINE     TAT_GLCD_LCD          G_LCDA=1;   // OUTPUT_LOW(G_LCD20X4) 
....................  
.................... UNSIGNED INT8 TIN_HIEU_DK_74573_B;   
.................... #BIT G_MTB        = TIN_HIEU_DK_74573_B.6 
.................... #BIT G_8B         = TIN_HIEU_DK_74573_B.4 
.................... #BIT G_RBDCB      = TIN_HIEU_DK_74573_B.2 
.................... //XXXXXXXXXXXXXXXXXXXXXXXXXXXXXXXXXXXXXXXXXXXX  
.................... #DEFINE     MO_LED_MATRAN        G_MTB=0; //OUTPUT_LOW(G_MATRANLED) 
.................... #DEFINE     TAT_LED_MATRAN       G_MTB=1; //OUTPUT_LOW(G_MATRANLED) 
.................... //XXXXXXXXXXXXXXXXXXXXXXXXXXXXXXXXXXXXXXXXXXXX        
.................... #DEFINE     MO_8_LED_QUET        G_8B=0;  //OUTPUT_LOW(G_8LEDQUET) 
.................... #DEFINE     TAT_8_LED_QUET       G_8B=1;  //OUTPUT_LOW(G_8LEDQUET) 
.................... //XXXXXXXXXXXXXXXXXXXXXXXXXXXXXXXXXXXXXXXXXXXX          
.................... #DEFINE     MO_RELAY_BUZZER_DC   G_RBDCB=0;  //OUTPUT_LOW(G_BUZERELAY) 
.................... #DEFINE     TAT_RELAY_BUZZER_DC  G_RBDCB=1;  //OUTPUT_LOW(G_BUZERELAY) 
....................  
.................... //XXXXXXXXXXXXXXXXXXXXXXXXXXXXXXXXXXXXXXXXXXXX 
.................... //CHUONG TRINH KIEM TRA PHIM BT1 
.................... //XXXXXXXXXXXXXXXXXXXXXXXXXXXXXXXXXXXXXXXXXXXX 
.................... UNSIGNED INT8 DL_BTN=0; 
.................... INT1 PHIM_BT0(UNSIGNED INT16 DL) 
.................... {   
....................     IF (!INPUT(BT0)) 
....................     {   
....................       DL_BTN++; 
....................        
....................       IF (DL_BTN>= DL) 
....................          { 
....................             DL_BTN =0; 
....................             RETURN(1); 
....................          } 
....................       ELSE RETURN(0); 
....................     } 
....................     ELSE    RETURN(0); 
.................... }  
.................... //XXXXXXXXXXXXXXXXXXXXXXXXXXXXXXXXXXXXXXXXXXXX 
.................... //CHUONG TRINH KIEM TRA PHIM BT1 
.................... //XXXXXXXXXXXXXXXXXXXXXXXXXXXXXXXXXXXXXXXXXXXX 
.................... INT1 PHIM_BT1(UNSIGNED INT16 DL ) 
.................... {   
....................     IF (!INPUT(BT1)) 
....................     {   
....................       DL_BTN++; 
....................        
....................       IF (DL_BTN>= DL) 
....................          { 
....................             DL_BTN =0; 
....................             RETURN(1); 
....................          } 
....................       ELSE RETURN(0); 
....................     } 
....................     ELSE    RETURN(0); 
.................... }  
.................... //XXXXXXXXXXXXXXXXXXXXXXXXXXXXXXXXXXXXXXXXXXXX 
.................... //CHUONG TRINH KIEM TRA PHIM BT2       
.................... //XXXXXXXXXXXXXXXXXXXXXXXXXXXXXXXXXXXXXXXXXXXX                                     
.................... INT1 PHIM_BT2(UNSIGNED INT16 DL ) 
.................... {                                         
....................     IF (!INPUT(BT2)) 
....................     {   
....................       DL_BTN++; 
....................        
....................       IF (DL_BTN>= DL) 
....................          { 
....................             DL_BTN =0; 
....................             RETURN(1); 
....................          } 
....................       ELSE RETURN(0); 
....................     } 
....................     ELSE    RETURN(0); 
....................                                           
.................... }       
....................  
.................... //XXXXXXXXXXXXXXXXXXXXXXXXXXXXXXXXXXXXXXXXXXXX 
.................... //CHUONG TRINH KIEM TRA PHIM BT3 
.................... //XXXXXXXXXXXXXXXXXXXXXXXXXXXXXXXXXXXXXXXXXXXX 
.................... INT1 PHIM_BT3(UNSIGNED INT16 DL,  UNSIGNED INT8 SOLAN  ) 
.................... {   
....................     IF (!INPUT(BT3)) 
....................     {   
....................       DL_BTN++; 
....................       IF(DL_BTN==1) RETURN(1); 
....................       ELSE 
....................       { 
....................          IF (DL_BTN>= DL) 
....................          DL_BTN =SOLAN; 
....................       } 
....................     } 
....................     ELSE    
....................     { 
....................       //DL_BTN =0; 
....................       RETURN(0); 
....................     } 
.................... }  
.................... //XXXXXXXXXXXXXXXXXXXXXXXXXXXXXXXXXXXXXXXXXXXX 
.................... //KHAI BAO DU LIEU 16 BIT CHO MODULE RELAY, TRIAC, BUZZER, DONG CO 
.................... //XXXXXXXXXXXXXXXXXXXXXXXXXXXXXXXXXXXXXXXXXXXX 
.................... UNSIGNED INT16 RBDC; 
.................... #BIT STEP_MOTOR_ENABLE  = RBDC.0    //1=ENA,0=DIS 
.................... #BIT STEP_MOTOR_IN1     = RBDC.1     
.................... #BIT STEP_MOTOR_IN2     = RBDC.2 
.................... #BIT STEP_MOTOR_IN3     = RBDC.3 
.................... #BIT STEP_MOTOR_IN4     = RBDC.4 
.................... #BIT DC_ENABLE          = RBDC.5    //1=ENA,0=DIS 
.................... #BIT PWRKEY             = RBDC.6    //KHOI TAO SIM900 
....................  
.................... #BIT BUZZER             = RBDC.8    //1=ON,0=OFF 
.................... #BIT TRIAC_1            = RBDC.9    //1=ON,0=OFF 
.................... #BIT TRIAC_2            = RBDC.10   //1=ON,0=OFF 
.................... #BIT RELAY_1            = RBDC.11   //0=ON,1=OFF 
.................... #BIT RELAY_2            = RBDC.12   //0=ON,1=OFF 
....................  
.................... //HAM 103 
.................... //XXXXXXXXXXXXXXXXXXXXXXXXXXXXXXXXXXXXXXXXXXXX 
.................... //CHUONG TRINH CON KHOI TAO IC CHOT 
.................... //XXXXXXXXXXXXXXXXXXXXXXXXXXXXXXXXXXXXXXXXXXXX          
.................... #DEFINE     CHO_IC_74573_A_GOI_DU_LIEU     OUTPUT_HIGH(ENABLE_573A) 
.................... #DEFINE     CHOT_IC_74573_A_GOI_DU_LIEU    OUTPUT_LOW(ENABLE_573A) 
....................  
.................... #DEFINE     CHO_IC_74573_B_GOI_DU_LIEU     OUTPUT_HIGH(ENABLE_573B) 
.................... #DEFINE     CHOT_IC_74573_B_GOI_DU_LIEU    OUTPUT_LOW(ENABLE_573B) 
.................... VOID MO_IC_74573_A_THONG_DL(); 
....................  
.................... //XXXXXXXXXXXXXXXXXXXXXXXXXXXXXXXXXXXXXXXXXXXX    
.................... CONST UNSIGNED CHAR MA7DOAN[16]= {0XC0,0XF9,0xA4,0XB0,0X99,0X92,0X82,0XF8, 
.................... 0X80,0X90,0x88, 0x83, 0xC6, 0xA1, 0x86, 0x8E}; 
.................... #DEFINE     MASO0    0XC0 
.................... #DEFINE     MASO1    0XF9 
.................... #DEFINE     MASO2    0XA4 
.................... #DEFINE     MASO3    0XB0 
.................... #DEFINE     MASO4    0X99 
.................... #DEFINE     MASO5    0X92 
.................... #DEFINE     MASO6    0X82 
.................... #DEFINE     MASO7    0XF8 
....................  
.................... //XXXXXXXXXXXXXXXXXXXXXXXXXXXXXXXXXXXXXXXXXXXX  
.................... //HAM 102 
.................... //XXXXXXXXXXXXXXXXXXXXXXXXXXXXXXXXXXXXXXXXXXXX     
.................... //XUAT 1 BYTE RA THANH GHI DICH 
.................... //XXXXXXXXXXXXXXXXXXXXXXXXXXXXXXXXXXXXXXXXXXXX     
.................... VOID XUAT_1BYTE(UNSIGNED INT8 BYTEXUAT) 
.................... { 
....................    UNSIGNED INT8   SB,X;    
....................    #BIT BSERI  = X.7 
....................    X = BYTEXUAT; 
*
0108:  MOVFF  48B,48D
....................    FOR (SB=0;SB<8;SB++) 
010C:  MOVLB  4
010E:  CLRF   x8C
0110:  MOVF   x8C,W
0112:  SUBLW  07
0114:  BNC   0132
....................       {                                                  
....................          OUTPUT_BIT(SSDO,BSERI);     
0116:  BTFSC  x8D.7
0118:  BRA    011E
011A:  BCF    F8D.2
011C:  BRA    0120
011E:  BSF    F8D.2
0120:  BCF    F96.2
....................          OUTPUT_LOW(SSCK); OUTPUT_HIGH(SSCK); 
0122:  BCF    F96.0
0124:  BCF    F8D.0
0126:  BCF    F96.0
0128:  BSF    F8D.0
....................          X= X<<1;          
012A:  BCF    FD8.0
012C:  RLCF   x8D,F
012E:  INCF   x8C,F
0130:  BRA    0110
....................      } 
0132:  MOVLB  0
0134:  RETURN 0
.................... } 
.................... //XXXXXXXXXXXXXXXXXXXXXXXXXXXXXXXXXXXXXXXXXXXX  
.................... //HAM 301 
.................... //XXXXXXXXXXXXXXXXXXXXXXXXXXXXXXXXXXXXXXXXXXXX 
.................... //CHUONG TRINH CON XUAT 4 BYTE RA 32 LED DON 
.................... //XXXXXXXXXXXXXXXXXXXXXXXXXXXXXXXXXXXXXXXXXXXX 
.................... VOID XUAT_32LED_DON_4BYTE(UNSIGNED INT8 BLD3,BLD2,BLD1,BLD0) 
.................... {      
....................       XUAT_1BYTE(BLD3);           
....................       XUAT_1BYTE(BLD2); 
....................       XUAT_1BYTE(BLD1);           
....................       XUAT_1BYTE(BLD0);             
....................       MO_32_LED_DON;       
....................       MO_IC_74573_A_THONG_DL();             
....................       OUTPUT_HIGH(RCK_32LED);    OUTPUT_LOW(RCK_32LED); 
....................       CHOT_IC_74573_A_GOI_DU_LIEU;       
.................... } 
.................... //HAM 302 
.................... //XXXXXXXXXXXXXXXXXXXXXXXXXXXXXXXXXXXXXXXXXXXX 
.................... //CHUONG TRINH CON XUAT 2 WORD 16 BITRA 32 LED DON 
.................... //XXXXXXXXXXXXXXXXXXXXXXXXXXXXXXXXXXXXXXXXXXXX 
.................... VOID XUAT_32LED_DON_2WORD(UNSIGNED INT16 WLD1, UNSIGNED INT16 WLD0) 
.................... {      
....................      UNSIGNED INT8  B3,B2,B1,B0; 
....................      B3 = WLD1>>8;  B2 = WLD1;  
....................      B1 = WLD0>>8;  B0 = WLD0; 
....................      XUAT_32LED_DON_4BYTE(B3,B2,B1,B0); 
.................... } 
.................... //HAM 303 
.................... //XXXXXXXXXXXXXXXXXXXXXXXXXXXXXXXXXXXXXXXXXXXX 
.................... //CHUONG TRINH CON XUAT 1 DOUBLE WORD RA 32 LED DON 
.................... //XXXXXXXXXXXXXXXXXXXXXXXXXXXXXXXXXXXXXXXXXXXX 
.................... VOID XUAT_32LED_DON_1DW(UNSIGNED LONG LONG DWLD) 
.................... {      
....................      UNSIGNED INT16  WD1,WD0; 
....................      WD1 = DWLD>>16;  WD0 = DWLD; 
....................      XUAT_32LED_DON_2WORD(WD1,WD0); 
.................... } 
....................  
.................... //HAM 304 
.................... //XXXXXXXXXXXXXXXXXXXXXXXXXXXXXXXXXXXXXXXXXXXX 
.................... //CHUONG TRINH CON MO 32 LED DON SANG 
.................... //XXXXXXXXXXXXXXXXXXXXXXXXXXXXXXXXXXXXXXXXXXXX 
.................... VOID MO_32LED_DON() 
.................... {         
....................      XUAT_32LED_DON_1DW(0XFFFFFFFF); 
.................... } 
.................... //HAM 305 
.................... //XXXXXXXXXXXXXXXXXXXXXXXXXXXXXXXXXXXXXXXXXXXX 
.................... //CHUONG TRINH CON TAT 32 LED DON  
.................... //XXXXXXXXXXXXXXXXXXXXXXXXXXXXXXXXXXXXXXXXXXXX 
.................... VOID TAT_32LED_DON() 
.................... {         
....................      XUAT_32LED_DON_1DW(0); 
.................... } 
.................... //XXXXXXXXXXXXXXXXXXXXXXXXXXXXXXXXXXXXXXXXXXXX     
.................... //XUAT 1 BIT ROI TRA LAI KET QUA SAU KHI DICH DI 1 BIT 
.................... //XXXXXXXXXXXXXXXXXXXXXXXXXXXXXXXXXXXXXXXXXXXX     
.................... UNSIGNED  INT8 XUAT_1BIT(UNSIGNED INT8 BYTEXUAT) 
.................... { 
....................       UNSIGNED INT8   XBITX;    
....................       #BIT BSERIX  = XBITX.0 
....................       XBITX = BYTEXUAT; 
....................                                              
....................       OUTPUT_BIT(SSDO,BSERIX);     
....................       OUTPUT_LOW(SSCK); OUTPUT_HIGH(SSCK); 
....................       XBITX= XBITX>>1;    
....................       RETURN(XBITX);   
.................... } 
.................... //XXXXXXXXXXXXXXXXXXXXXXXXXXXXXXXXXXXXXXXXXXXX  
.................... //HAM 101 
.................... //XXXXXXXXXXXXXXXXXXXXXXXXXXXXXXXXXXXXXXXXXXXX     
.................... //HAM KHOI TAO CAC PORT VA IC CHOT 
.................... //XXXXXXXXXXXXXXXXXXXXXXXXXXXXXXXXXXXXXXXXXXXX     
.................... VOID SET_UP_PORT_IC_CHOT() 
.................... {      
....................       SET_TRIS_D(0x00);     
*
0410:  MOVLW  00
0412:  MOVWF  F95
....................       SET_TRIS_E(0X00); 
0414:  MOVWF  F96
....................       OUTPUT_D(0XFF); 
0416:  CLRF   F95
0418:  SETF   F8C
....................       TIN_HIEU_DK_74573_A=0XFF;   
041A:  SETF   17
....................       TIN_HIEU_DK_74573_B=0XFF;       
041C:  SETF   18
....................       CHOT_IC_74573_A_GOI_DU_LIEU; 
041E:  BCF    F95.1
0420:  BCF    F8C.1
....................       CHOT_IC_74573_B_GOI_DU_LIEU;   
0422:  BCF    F95.0
0424:  BCF    F8C.0
....................       RBDC=0; 
0426:  CLRF   1B
0428:  CLRF   1A
042A:  GOTO   1C60 (RETURN)
.................... } 
.................... //HAM 104 
.................... //XXXXXXXXXXXXXXXXXXXXXXXXXXXXXXXXXXXXXXXXXXXX     
.................... //XUAT CÁC THIEU DIEU KHIEN  
.................... //GIU NGUYEN CAC TRANG THAI CUA 2 MODULE KHAC 
.................... //XXXXXXXXXXXXXXXXXXXXXXXXXXXXXXXXXXXXXXXXXXXX     
.................... VOID MO_IC_74573_A_THONG_DL() 
.................... {      
....................       OUTPUT_D(0X00); 
*
0208:  CLRF   F95
020A:  CLRF   F8C
....................       OUTPUT_BIT(G_32LED,G_32A); 
020C:  BTFSC  17.4
020E:  BRA    0214
0210:  BCF    F8C.4
0212:  BRA    0216
0214:  BSF    F8C.4
0216:  BCF    F95.4
....................       OUTPUT_BIT(G_4LED7DOAN,G_4A); 
0218:  BTFSC  17.6
021A:  BRA    0220
021C:  BCF    F8C.6
021E:  BRA    0222
0220:  BSF    F8C.6
0222:  BCF    F95.6
....................       OUTPUT_BIT(G_LCD20X4,G_LCDA);   
0224:  BTFSC  17.2
0226:  BRA    022C
0228:  BCF    F8C.2
022A:  BRA    022E
022C:  BSF    F8C.2
022E:  BCF    F95.2
....................       CHO_IC_74573_A_GOI_DU_LIEU; 
0230:  BCF    F95.1
0232:  BSF    F8C.1
0234:  RETURN 0
.................... } 
.................... VOID MO_IC_74573_B_THONG_DL() 
.................... {      
....................       OUTPUT_D(0X00); 
*
0136:  CLRF   F95
0138:  CLRF   F8C
....................       OUTPUT_BIT(G_MATRANLED,G_MTB); 
013A:  BTFSC  18.6
013C:  BRA    0142
013E:  BCF    F8C.6
0140:  BRA    0144
0142:  BSF    F8C.6
0144:  BCF    F95.6
....................       OUTPUT_BIT(G_8LEDQUET,G_8B); 
0146:  BTFSC  18.4
0148:  BRA    014E
014A:  BCF    F8C.4
014C:  BRA    0150
014E:  BSF    F8C.4
0150:  BCF    F95.4
....................       OUTPUT_BIT(G_BUZERELAY,G_RBDCB);  
0152:  BTFSC  18.2
0154:  BRA    015A
0156:  BCF    F8C.2
0158:  BRA    015C
015A:  BSF    F8C.2
015C:  BCF    F95.2
....................       CHO_IC_74573_B_GOI_DU_LIEU; 
015E:  BCF    F95.0
0160:  BSF    F8C.0
0162:  RETURN 0
.................... } 
.................... //ham 401 
.................... //XXXXXXXXXXXXXXXXXXXXXXXXXXXXXXXXXXXXXXXXXXXX 
.................... //CHUONG TRINH CON XUAT 4 BYTE RA 4 LED 7 DOAN 
.................... //XXXXXXXXXXXXXXXXXXXXXXXXXXXXXXXXXXXXXXXXXXXX 
.................... VOID XUAT_4LED_7DOAN_4SO(UNSIGNED INT BL743,BL742,BL741,BL740) 
.................... {      
....................       XUAT_1BYTE(BL740);   XUAT_1BYTE(BL741); 
....................       XUAT_1BYTE(BL742);   XUAT_1BYTE(BL743); 
....................        
....................       MO_4_LED_7DOAN; 
....................       MO_IC_74573_A_THONG_DL(); 
....................         
....................       OUTPUT_LOW(RCK_4LED7DOAN);   OUTPUT_HIGH(RCK_4LED7DOAN);  
....................       CHOT_IC_74573_A_GOI_DU_LIEU; 
.................... } 
.................... //ham 404 
.................... VOID XUAT_4LED_7DOAN_3SO(UNSIGNED INT BL742,BL741,BL740) 
.................... {      
....................      XUAT_4LED_7DOAN_4SO(0XFF,BL742,BL741,BL740); 
.................... } 
.................... //ham 403 
.................... VOID XUAT_4LED_7DOAN_2SO(UNSIGNED INT BL741,BL740) 
.................... {      
....................      XUAT_4LED_7DOAN_4SO(0XFF,0XFF,BL741,BL740); 
.................... } 
.................... //ham 402 
.................... VOID XUAT_4LED_7DOAN_1SO(UNSIGNED INT BL740) 
.................... {      
....................      XUAT_4LED_7DOAN_4SO(0XFF,0XFF,0XFF,BL740); 
.................... } 
....................  
.................... //ham 405 
.................... //XXXXXXXXXXXXXXXXXXXXXXXXXXXXXXXXXXXXXXXXXXXXXXXXXXXXXXXXXXXXX 
.................... //CHUONG TRINH CON HIEN THI DU LIEU 16 BIT TREN 4 LED 7 DOAN 
.................... //XXXXXXXXXXXXXXXXXXXXXXXXXXXXXXXXXXXXXXXXXXXXXXXXXXXXXXXXXXXXX 
.................... UNSIGNED CHAR DONVI4,CHUC4,TRAM4,NGAN4; 
.................... VOID  XUAT_4LED_7DOAN_GIAIMA_XOA_SO0 (UNSIGNED INT16 TAM) 
.................... {          
....................       DONVI4 = MA7DOAN[TAM %10];          
....................       CHUC4  = MA7DOAN[TAM/10%10]; 
....................       TRAM4  = MA7DOAN[TAM/100%10];  
....................       NGAN4  = MA7DOAN[TAM/1000%10];        
....................       IF (NGAN4==0XC0) 
....................       { 
....................          NGAN4=0XFF; 
....................          IF (TRAM4==0XC0) 
....................          { 
....................             TRAM4=0XFF; 
....................             IF (CHUC4==0XC0)   CHUC4=0XFF; 
....................          } 
....................       } 
....................       XUAT_4LED_7DOAN_4SO(NGAN4,TRAM4,CHUC4,DONVI4);    
.................... } 
.................... UNSIGNED INT8 LCDDATA=0;  
.................... UNSIGNED INT8 LCDCONTROL=0; 
.................... UNSIGNED INT8 GLCDDATA=0; 
.................... UNSIGNED INT8 GLCDCONTROL=0;  
.................... //HAM 701 
.................... //XXXXXXXXXXXXXXXXXXXXXXXXXXXXXXXXXXXXXXXXXXXXXXXXXXXXXXXXXXXXX 
.................... //CHUONG TRINH CON XUAT DU LIEU 4 BYTE RA GLCD VA LCD 
.................... //XXXXXXXXXXXXXXXXXXXXXXXXXXXXXXXXXXXXXXXXXXXXXXXXXXXXXXXXXXXXX 
.................... VOID XUAT_GLCD_LCD() 
.................... {       
....................     XUAT_1BYTE(GLCDCONTROL);              
*
0236:  MOVFF  23,48B
023A:  RCALL  0108
....................     XUAT_1BYTE(GLCDDATA); 
023C:  MOVFF  22,48B
0240:  RCALL  0108
....................     XUAT_1BYTE(LCDCONTROL);        
0242:  MOVFF  21,48B
0246:  RCALL  0108
....................     XUAT_1BYTE(LCDDATA);       
0248:  MOVFF  20,48B
024C:  RCALL  0108
....................        
....................     MO_GLCD_LCD; 
024E:  BCF    17.2
....................     MO_IC_74573_A_THONG_DL();             
0250:  RCALL  0208
....................     OUTPUT_HIGH(RCK_LCD20X4);      
0252:  BCF    F95.3
0254:  BSF    F8C.3
....................     OUTPUT_LOW(RCK_LCD20X4); 
0256:  BCF    F95.3
0258:  BCF    F8C.3
....................     CHOT_IC_74573_A_GOI_DU_LIEU; 
025A:  BCF    F95.1
025C:  BCF    F8C.1
025E:  RETURN 0
.................... } 
.................... //HAM 702 
.................... VOID XUAT_LCD20X4(UNSIGNED INT8 LCD_SIGNAL,LCD_INS_HTHI) 
.................... {      
....................     LCDCONTROL = ~LCD_SIGNAL; 
*
042E:  MOVLB  4
0430:  MOVFF  464,21
0434:  COMF   21,F
....................     LCDDATA    = ~LCD_INS_HTHI;       
0436:  MOVFF  465,20
043A:  COMF   20,F
043C:  CLRF   16
043E:  BTFSC  FF2.7
0440:  BSF    16.7
0442:  BCF    FF2.7
....................     XUAT_GLCD_LCD(); 
0444:  MOVLB  0
0446:  RCALL  0236
0448:  BTFSC  16.7
044A:  BSF    FF2.7
044C:  RETURN 0
.................... } 
.................... //HAM 703 
.................... VOID XUAT_GLCD128X64(UNSIGNED INT8 GLCD_SIGNAL,GLCD_INS_HTHI) 
.................... {      
....................     GLCDCONTROL = ~GLCD_SIGNAL; 
*
0260:  MOVLB  4
0262:  MOVFF  489,23
0266:  COMF   23,F
....................     GLCDDATA    = ~GLCD_INS_HTHI;      
0268:  MOVFF  48A,22
026C:  COMF   22,F
....................     XUAT_GLCD_LCD(); 
026E:  MOVLB  0
0270:  RCALL  0236
0272:  RETURN 0
.................... } 
.................... //HAM 501 
.................... //XXXXXXXXXXXXXXXXXXXXXXXXXXXXXXXXXXXXXXXXXXXX 
.................... //CHUONG TRINH CON XUAT 2 BYTE RA DK 1 LED QUET SANG 
.................... //XXXXXXXXXXXXXXXXXXXXXXXXXXXXXXXXXXXXXXXXXXXX 
.................... VOID XUAT_8LED_7DOAN_QUET_1(UNSIGNED INT MA,SO_HTHI) 
.................... {      
....................       XUAT_1BYTE(~MA);   XUAT_1BYTE(~SO_HTHI); 
*
01CA:  MOVLB  4
01CC:  MOVFF  484,486
01D0:  COMF   x86,F
01D2:  MOVFF  486,48B
01D6:  MOVLB  0
01D8:  RCALL  0108
01DA:  MOVLB  4
01DC:  MOVFF  485,486
01E0:  COMF   x86,F
01E2:  MOVFF  486,48B
01E6:  MOVLB  0
01E8:  RCALL  0108
....................        
....................       MO_8_LED_QUET; 
01EA:  BCF    18.4
....................       MO_IC_74573_B_THONG_DL(); 
01EC:  RCALL  0136
....................        
....................       OUTPUT_HIGH(RCK_8LEDQUET); OUTPUT_LOW(RCK_8LEDQUET); 
01EE:  BCF    F95.5
01F0:  BSF    F8C.5
01F2:  BCF    F95.5
01F4:  BCF    F8C.5
....................       CHOT_IC_74573_B_GOI_DU_LIEU; 
01F6:  BCF    F95.0
01F8:  BCF    F8C.0
01FA:  RETURN 0
.................... } 
.................... //HAM 502 
.................... //XXXXXXXXXXXXXXXXXXXXXXXXXXXXXXXXXXXXXXXXXXXX 
.................... //CHUONG TRINH CON XUAT 2 BYTE RA TAT 8 LED QUET 
.................... //XXXXXXXXXXXXXXXXXXXXXXXXXXXXXXXXXXXXXXXXXXXX 
.................... VOID XUAT_8LED_7DOAN_QUET_TAT_LED() 
.................... { 
....................    XUAT_8LED_7DOAN_QUET_1(0XFF,0XFF); 
01FC:  MOVLB  4
01FE:  SETF   x84
0200:  SETF   x85
0202:  MOVLB  0
0204:  RCALL  01CA
0206:  RETURN 0
.................... } 
.................... //HAM 503 
.................... //XXXXXXXXXXXXXXXXXXXXXXXXXXXXXXXXXXXXXXXXXXXX 
.................... //CHUONG TRINH CON HIEN THI LED THEO THU TU 
.................... //XXXXXXXXXXXXXXXXXXXXXXXXXXXXXXXXXXXXXXXXXXXX 
.................... CONST UNSIGNED CHAR TTLEDQUET[8]= {0x7F,0xBF,0xDF,0xEF,0xF7,0xFB,0xFD,0xFE}; 
.................... VOID XUAT_8LED_7DOAN_QUET_2(UNSIGNED INT THUTULED,SO_HTHI) 
.................... {          
....................       XUAT_1BYTE(~ (TTLEDQUET[THUTULED]));   XUAT_1BYTE(~SO_HTHI);      
*
0164:  CLRF   03
0166:  MOVLB  4
0168:  MOVF   x85,W
016A:  MOVFF  FF2,487
016E:  BCF    FF2.7
0170:  MOVLB  0
0172:  RCALL  00C0
0174:  MOVLB  4
0176:  BTFSC  x87.7
0178:  BSF    FF2.7
017A:  MOVWF  01
017C:  MOVWF  x87
017E:  COMF   x87,F
0180:  MOVFF  487,48B
0184:  MOVLB  0
0186:  RCALL  0108
0188:  MOVLB  4
018A:  MOVFF  486,487
018E:  COMF   x87,F
0190:  MOVFF  487,48B
0194:  MOVLB  0
0196:  RCALL  0108
....................       MO_8_LED_QUET; 
0198:  BCF    18.4
....................       MO_IC_74573_B_THONG_DL(); 
019A:  RCALL  0136
....................       OUTPUT_HIGH(RCK_8LEDQUET); OUTPUT_LOW(RCK_8LEDQUET); 
019C:  BCF    F95.5
019E:  BSF    F8C.5
01A0:  BCF    F95.5
01A2:  BCF    F8C.5
....................       CHOT_IC_74573_B_GOI_DU_LIEU; 
01A4:  BCF    F95.0
01A6:  BCF    F8C.0
01A8:  RETURN 0
.................... } 
.................... //HAM 504 
.................... //XXXXXXXXXXXXXXXXXXXXXXXXXXXXXXXXXXXXXXXXXXXX 
.................... //CHUONG TRINH CON HIEN THI 8 SO TREN 8 LED QUET - CO KIEM TRA 
.................... //XXXXXXXXXXXXXXXXXXXXXXXXXXXXXXXXXXXXXXXXXXXX 
.................... UNSIGNED INT8 LED_7DQ[8]={0XFF,0XFF,0XFF,0XFF,0XFF,0XFF,0XFF,0XFF}; 
.................... UNSIGNED INT8 TT8LED=0; 
.................... VOID HIEN_THI_8LED_7DOAN_QUET() 
.................... {      
....................       FOR(TT8LED=0;TT8LED<8;TT8LED++) 
....................          IF (LED_7DQ[TT8LED]!=0XFF) 
....................          {            
....................             XUAT_8LED_7DOAN_QUET_2(TT8LED, LED_7DQ[TT8LED]); 
....................             DELAY_US(100); 
....................             XUAT_8LED_7DOAN_QUET_TAT_LED();            
....................             } 
.................... } 
.................... //HAM 505 
.................... //XXXXXXXXXXXXXXXXXXXXXXXXXXXXXXXXXXXXXXXXXXXX 
.................... //CHUONG TRINH CON HIEN THI 8 SO TREN 8 LED QUET - KHONG KIEM TRA 
.................... //XXXXXXXXXXXXXXXXXXXXXXXXXXXXXXXXXXXXXXXXXXXX 
.................... VOID HIEN_THI_8LED_7DOAN_QUET_ALL() 
.................... {      
....................       FOR(TT8LED=0;TT8LED<8;TT8LED++)          
....................          {            
....................             XUAT_8LED_7DOAN_QUET_2(TT8LED, LED_7DQ[TT8LED]); 
....................             DELAY_US(100); 
....................             XUAT_8LED_7DOAN_QUET_TAT_LED();            
....................             } 
.................... } 
....................  
.................... VOID DELAY_QUET_8LED(UNSIGNED INT16 DL) 
.................... {  
....................       UNSIGNED INT8 I; 
....................       FOR (I=0; I<DL;I++) 
....................       HIEN_THI_8LED_7DOAN_QUET_ALL(); 
.................... }  
....................  
.................... VOID GIAI_MA_GAN_CHO_8LED_QUET_16_XOA(UNSIGNED INT16 X) 
.................... {      
....................       LED_7DQ[0]= MA7DOAN [X %10];     
....................       LED_7DQ[1]= MA7DOAN [X/10%10]; 
....................       LED_7DQ[2]= MA7DOAN [X/100%10];     
....................       LED_7DQ[3]= MA7DOAN [X/1000%10]; 
....................       LED_7DQ[4]= MA7DOAN [X/10000%10]; 
....................       IF (LED_7DQ[4]==MASO0)  
....................       { 
....................             LED_7DQ[4]=0XFF; 
....................             IF (LED_7DQ[3]==MASO0)  
....................             { 
....................                LED_7DQ[3]=0XFF; 
....................                IF (LED_7DQ[2]==MASO0)  
....................                { 
....................                   LED_7DQ[2]=0XFF; 
....................                   IF (LED_7DQ[1]==MASO0)  
....................                   { 
....................                      LED_7DQ[1]=0XFF; 
....................                   } 
....................                } 
....................             } 
....................       } 
....................              
.................... } 
.................... //XXXXXXXXXXXXXXXXXXXXXXXXXXXXXXXXXXXXXXXXXXXX          
.................... VOID XUAT_2BYTE(UNSIGNED INT16 BYTE2XUAT) 
.................... { 
....................    INT8 SBB; 
....................    UNSIGNED INT16   XX;   //SHORT  BSERI; 
....................    #BIT BSERIX  = XX.15 
....................    XX = BYTE2XUAT; 
....................    FOR (SBB=0;SBB<16;SBB++) 
....................       {                                                  
....................          OUTPUT_BIT(SSDO,BSERIX);     
....................          OUTPUT_LOW(SSCK);          
....................          OUTPUT_HIGH(SSCK); 
....................          XX= XX<<1;          
....................      } 
.................... } 
.................... //XXXXXXXXXXXXXXXXXXXXXXXXXXXXXXXXXXXXXXXXXXXX 
.................... //CHUONG TRINH CON XUAT RA LED MA TRAN 
.................... //XXXXXXXXXXXXXXXXXXXXXXXXXXXXXXXXXXXXXXXXXXXX 
.................... VOID XUAT_MATRANLED(UNSIGNED INT16 MAHANG,UNSIGNED INT16 MACOT1, 
.................... UNSIGNED INT16 MACOT2,UNSIGNED INT16 MACOT3) 
.................... {       
....................       XUAT_2BYTE(MACOT3); 
....................       XUAT_2BYTE(MACOT2); 
....................       XUAT_2BYTE(MACOT1); 
....................       XUAT_2BYTE(MAHANG); 
....................        
....................       MO_LED_MATRAN; 
....................       MO_IC_74573_B_THONG_DL(); 
....................        
....................       OUTPUT_HIGH(RCK_MATRANLED); OUTPUT_LOW(RCK_MATRANLED);  
....................       CHOT_IC_74573_B_GOI_DU_LIEU; 
.................... } 
.................... //XXXXXXXXXXXXXXXXXXXXXXXXXXXXXXXXXXXXXXXXXXXX 
.................... //CHUONG TRINH CON XUAT RA LED MA TRAN 
.................... //XXXXXXXXXXXXXXXXXXXXXXXXXXXXXXXXXXXXXXXXXXXX 
.................... VOID TAT_MATRANLED() 
.................... {       
....................       XUAT_2BYTE(0); 
....................       XUAT_2BYTE(0); 
....................       XUAT_2BYTE(0); 
....................       XUAT_2BYTE(0);            
....................       OUTPUT_HIGH(RCK_MATRANLED);  
....................       OUTPUT_LOW(RCK_MATRANLED); 
.................... } 
.................... UNSIGNED  INT8 HIEU_CHINH_4BIT_CAO(UNSIGNED INT8 XZY) 
.................... { 
....................       INT1  BTG; 
....................       UNSIGNED INT8   BX;    
....................       #BIT BIT4  = BX.4 
....................       #BIT BIT5  = BX.5 
....................       #BIT BIT6  = BX.6 
....................       #BIT BIT7  = BX.7 
....................       BX=XZY; 
....................       BTG=BIT4;   BIT4=BIT7;  BIT7=BTG; 
....................       BTG=BIT5;   BIT5=BIT6;  BIT6=BTG;       
....................       RETURN(BX);   
.................... } 
.................... //HAM 601 
.................... //XXXXXXXXXXXXXXXXXXXXXXXXXXXXXXXXXXXXXXXXXXXXXXXXXXXX 
.................... //MODULE DIEU KHIEN RELAY,TRIAC, BUZZER, DONG CO, SIM 
.................... //XXXXXXXXXXXXXXXXXXXXXXXXXXXXXXXXXXXXXXXXXXXXXXXXXXXX 
.................... VOID XUAT_BUZZER_RELAY() 
.................... {      
....................    UNSIGNED INT8 RBDC1,RBDC2; 
....................       RBDC1=RBDC; RBDC2=RBDC>>8;       
....................       XUAT_1BYTE(RBDC2);       
....................       XUAT_1BYTE(RBDC1); 
....................       MO_RELAY_BUZZER_DC; 
....................       MO_IC_74573_B_THONG_DL(); 
....................        
....................       OUTPUT_HIGH(RCK_BUZERELAY);   OUTPUT_LOW(RCK_BUZERELAY); 
....................       CHOT_IC_74573_B_GOI_DU_LIEU; 
.................... } 
.................... //HAM 602 
.................... //XXXXXXXXXXXXXXXXXXXXXXXXXXXXXXXXXXXXXXXXXXXXXXXXXXXX 
.................... VOID BUZZER_ON() 
.................... {     
....................       BUZZER=1; 
....................       XUAT_BUZZER_RELAY();          
.................... } 
.................... //HAM 603 
.................... //XXXXXXXXXXXXXXXXXXXXXXXXXXXXXXXXXXXXXXXXXXXXXXXXXXXX 
.................... VOID BUZZER_OFF() 
.................... {      
....................       BUZZER=0; 
....................       XUAT_BUZZER_RELAY(); 
.................... } 
.................... //HAM 604 
.................... //XXXXXXXXXXXXXXXXXXXXXXXXXXXXXXXXXXXXXXXXXXXXXXXXXXXX 
.................... VOID RELAY_1_ON() 
.................... {     
....................       RELAY_1=1; 
....................       XUAT_BUZZER_RELAY();          
.................... } 
.................... //HAM 603 
.................... //XXXXXXXXXXXXXXXXXXXXXXXXXXXXXXXXXXXXXXXXXXXXXXXXXXXX 
.................... VOID RELAY_1_OFF() 
.................... {     
....................       RELAY_1=0; 
....................       XUAT_BUZZER_RELAY();          
.................... } 
.................... //HAM 604 
.................... //XXXXXXXXXXXXXXXXXXXXXXXXXXXXXXXXXXXXXXXXXXXXXXXXXXXX 
.................... VOID RELAY_2_ON() 
.................... {     
....................       RELAY_2=1; 
....................       XUAT_BUZZER_RELAY();          
.................... } 
.................... //HAM 607 
.................... //XXXXXXXXXXXXXXXXXXXXXXXXXXXXXXXXXXXXXXXXXXXXXXXXXXXX 
.................... VOID RELAY_2_OFF() 
.................... {     
....................       RELAY_2=0; 
....................       XUAT_BUZZER_RELAY();          
.................... } 
.................... //HAM 608 
.................... //XXXXXXXXXXXXXXXXXXXXXXXXXXXXXXXXXXXXXXXXXXXXXXXXXXXX 
.................... VOID RELAY_1_RELAY_2_ON() 
.................... {     
....................       RELAY_1=1;  RELAY_2=1; 
....................       XUAT_BUZZER_RELAY();          
.................... } 
.................... //HAM 609 
.................... //XXXXXXXXXXXXXXXXXXXXXXXXXXXXXXXXXXXXXXXXXXXXXXXXXXXX 
.................... VOID RELAY_1_RELAY_2_OFF() 
.................... {     
....................       RELAY_1=0;  RELAY_2=0; 
....................       XUAT_BUZZER_RELAY();          
.................... } 
.................... //HAM 610 
.................... //XXXXXXXXXXXXXXXXXXXXXXXXXXXXXXXXXXXXXXXXXXXXXXXXXXXX 
.................... VOID TRIAC_1_ON() 
.................... {     
....................       TRIAC_1=1; 
....................       XUAT_BUZZER_RELAY();          
.................... } 
.................... //HAM 611 
.................... //XXXXXXXXXXXXXXXXXXXXXXXXXXXXXXXXXXXXXXXXXXXXXXXXXXXX 
.................... VOID TRIAC_1_OFF() 
.................... {     
....................       TRIAC_1=0; 
....................       XUAT_BUZZER_RELAY();          
.................... } 
.................... //HAM 612 
.................... //XXXXXXXXXXXXXXXXXXXXXXXXXXXXXXXXXXXXXXXXXXXXXXXXXXXX 
.................... VOID TRIAC_2_ON() 
.................... {     
....................       TRIAC_2=1; 
....................       XUAT_BUZZER_RELAY();          
.................... } 
.................... //HAM 613 
.................... //XXXXXXXXXXXXXXXXXXXXXXXXXXXXXXXXXXXXXXXXXXXXXXXXXXXX 
.................... VOID TRIAC_2_OFF() 
.................... {     
....................       TRIAC_2=0; 
....................       XUAT_BUZZER_RELAY();          
.................... } 
.................... //XXXXXXXXXXXXXXXXXXXXXXXXXXXXXXXXXXXXXXXXXXXX 
....................  
....................  
....................  
.................... #include <tv_pickit2_shift_ds18b20.c> 
.................... #DEFINE     TOUCH_PIN PIN_A5 
.................... #INCLUDE    <TOUCH.c> 
.................... /////////////////////////////////////////////////////////////////////////// 
.................... ////                        Dallas Touch Driver                        //// 
.................... ////                                                                   //// 
.................... ////                                                                   //// 
.................... ////  data = touch_read_bit()     Reads one bit from a touch device    //// 
.................... ////                                                                   //// 
.................... ////  data = touch_read_BYTE()    Reads one byte from a touch device.  //// 
.................... ////                                                                   //// 
.................... ////  ok = touch_write_bit(data)  Writes one bit to a touch device     //// 
.................... ////                              and returns true if all went ok.     //// 
.................... ////                              A false indicates a collision with   //// 
.................... ////                              another device.                      //// 
.................... ////                                                                   //// 
.................... ////  ok = touch_write_byte(data) Writes one byte to a touch device    //// 
.................... ////                              and returns true if all went ok.     //// 
.................... ////                              A false indicates a collision with   //// 
.................... ////                              another device.                      //// 
.................... ////                                                                   //// 
.................... ////  present = touch_present()   Issues a reset and returns true      //// 
.................... ////                              if the touch device is there.        //// 
.................... ////                                                                   //// 
.................... ////  reset_pulse()               Issues a reset and waits for a       //// 
.................... ////                              present pulse.                       //// 
.................... ////                                                                   //// 
.................... /////////////////////////////////////////////////////////////////////////// 
.................... ////        (C) Copyright 1996,2010 Custom Computer Services           //// 
.................... //// This source code may only be used by licensed users of the CCS C  //// 
.................... //// compiler.  This source code may only be distributed to other      //// 
.................... //// licensed users of the CCS C compiler.  No other use, reproduction //// 
.................... //// or distribution is permitted without written permission.          //// 
.................... //// Derivative programs created using this software in object code    //// 
.................... //// form are not restricted in any way.                               //// 
.................... /////////////////////////////////////////////////////////////////////////// 
....................  
.................... #ifndef  TOUCH_C 
.................... #define  TOUCH_C 
....................  
.................... #ifndef TOUCH_PIN 
....................    #define TOUCH_PIN  PIN_B0 
.................... #endif 
....................  
.................... #define TOUCH_PIN_LOW()    output_drive(TOUCH_PIN); output_low(TOUCH_PIN) 
.................... #define TOUCH_PIN_HIGH()    output_drive(TOUCH_PIN); output_high(TOUCH_PIN) 
.................... #define TOUCH_PIN_FLOAT()  output_float(TOUCH_PIN) 
.................... #define TOUCH_PIN_READ()      input_state(TOUCH_PIN) 
....................  
.................... ///////////////////////////// 
.................... ////                     //// 
.................... //// Function Prototypes //// 
.................... ////                     //// 
.................... ///////////////////////////// 
....................  
.................... /* 
.................... int1 touch_read_bit() 
.................... This will read back a bit from the DS1993 
.................... PARAMS: none 
.................... RETURNS: A bit from the DS1993 
.................... */ 
.................... int1 touch_read_bit(); 
....................  
.................... /* 
.................... BYTE touch_read_byte() 
.................... This will read back a byte from the DS1993 
.................... PARAMS: none 
.................... RETURNS: A byte from the DS1993 
.................... */ 
.................... BYTE touch_read_byte(); 
....................  
.................... /* 
.................... BOOLEAN touch_write_bit(int1 data) 
.................... This will write a bit to the DS1993 
.................... PARAMS: The bit to write 
.................... RETURNS: True if completed successfully, false if otherwise 
.................... */ 
.................... BOOLEAN touch_write_bit(int1 data); 
....................  
.................... /* 
.................... BOOLEAN touch_write_byte(BYTE data) 
.................... This will write a byte to the DS1993 
.................... PARAMS: The byte to write 
.................... RETURNS: True if completed successfully, false if otherwise 
.................... */ 
.................... BOOLEAN touch_write_byte(BYTE data); 
....................  
.................... /* 
.................... BOOLEAN touch_present() 
.................... This will evaluate whether or not there is a touch present on the DS1993 
.................... PARAMS: none 
.................... RETURNS: True if a touch is present, false if otherwise 
.................... */ 
.................... BOOLEAN touch_present(); 
....................  
.................... /* 
.................... void reset_pulse() 
.................... This will send the DS1993 a reset pulse 
.................... PARAMS: none 
.................... RETURNS: none 
.................... */ 
.................... void reset_pulse(); 
....................  
.................... ////////////////////////////////// 
.................... ////                          //// 
.................... //// Function Implementations //// 
.................... ////                          //// 
.................... ////////////////////////////////// 
....................  
.................... /* 
.................... int1 touch_read_bit() 
.................... This will read back a bit from the DS1993 
.................... PARAMS: none 
.................... RETURNS: A bit from the DS1993 
.................... */ 
.................... int1 touch_read_bit() 
.................... { 
....................    int1 data; 
....................  
....................    TOUCH_PIN_LOW(); 
*
11D6:  BCF    F92.5
11D8:  BCF    F92.5
11DA:  BCF    F89.5
....................    delay_us(14); 
11DC:  MOVLW  16
11DE:  MOVWF  00
11E0:  DECFSZ 00,F
11E2:  BRA    11E0
11E4:  BRA    11E6
11E6:  NOP   
....................    TOUCH_PIN_FLOAT(); 
11E8:  BSF    F92.5
....................    delay_us(5); 
11EA:  MOVLW  07
11EC:  MOVWF  00
11EE:  DECFSZ 00,F
11F0:  BRA    11EE
11F2:  BRA    11F4
11F4:  NOP   
....................    data = TOUCH_PIN_READ(); 
11F6:  MOVLB  4
11F8:  BCF    x61.0
11FA:  BTFSC  F80.5
11FC:  BSF    x61.0
....................    delay_us(100); 
11FE:  MOVLW  A6
1200:  MOVWF  00
1202:  DECFSZ 00,F
1204:  BRA    1202
1206:  NOP   
....................  
....................    return data; 
1208:  MOVLW  00
120A:  BTFSC  x61.0
120C:  MOVLW  01
120E:  MOVWF  01
1210:  MOVLB  0
1212:  GOTO   1226 (RETURN)
.................... } 
....................  
.................... /* 
.................... BYTE touch_read_byte() 
.................... This will read back a byte from the DS1993 
.................... PARAMS: none 
.................... RETURNS: A byte from the DS1993 
.................... */ 
.................... BYTE touch_read_byte() 
.................... { 
....................    BYTE i,data; 
....................  
....................    for(i=1; i <= 8; ++i) 
1216:  MOVLW  01
1218:  MOVLB  4
121A:  MOVWF  x5F
121C:  MOVF   x5F,W
121E:  SUBLW  08
1220:  BNC   1238
....................       shift_right(&data, 1, touch_read_bit()); 
1222:  MOVLB  0
1224:  BRA    11D6
1226:  MOVF   01,F
1228:  BNZ   122E
122A:  BCF    FD8.0
122C:  BRA    1230
122E:  BSF    FD8.0
1230:  MOVLB  4
1232:  RRCF   x60,F
1234:  INCF   x5F,F
1236:  BRA    121C
....................  
....................    return data; 
1238:  MOVFF  460,01
123C:  MOVLB  0
123E:  RETURN 0
.................... } 
....................  
.................... /* 
.................... BOOLEAN touch_write_bit(int1 data) 
.................... This will write a bit to the DS1993 
.................... PARAMS: The bit to write 
.................... RETURNS: True if completed successfully, false if otherwise 
.................... */ 
.................... BOOLEAN touch_write_bit(int1 data) 
.................... { 
....................    TOUCH_PIN_LOW(); 
*
0574:  BCF    F92.5
0576:  BCF    F92.5
0578:  BCF    F89.5
....................    delay_us(10); 
057A:  MOVLW  10
057C:  MOVWF  00
057E:  DECFSZ 00,F
0580:  BRA    057E
0582:  NOP   
....................    if(data) 
0584:  MOVLB  4
0586:  MOVF   x62,F
0588:  BZ    05A6
....................    { 
....................       TOUCH_PIN_HIGH(); 
058A:  BCF    F92.5
058C:  BCF    F92.5
058E:  BSF    F89.5
....................       delay_us(10); 
0590:  MOVLW  10
0592:  MOVWF  00
0594:  DECFSZ 00,F
0596:  BRA    0594
0598:  NOP   
....................       if(!TOUCH_PIN_READ()) 
059A:  BTFSC  F80.5
059C:  BRA    05A4
....................          return FALSE; 
059E:  MOVLW  00
05A0:  MOVWF  01
05A2:  BRA    05E2
....................    } 
05A4:  BRA    05C0
....................    else 
....................    { 
....................       TOUCH_PIN_LOW(); 
05A6:  BCF    F92.5
05A8:  BCF    F92.5
05AA:  BCF    F89.5
....................       delay_us(10); 
05AC:  MOVLW  10
05AE:  MOVWF  00
05B0:  DECFSZ 00,F
05B2:  BRA    05B0
05B4:  NOP   
....................       if(TOUCH_PIN_READ()) 
05B6:  BTFSS  F80.5
05B8:  BRA    05C0
....................          return FALSE; 
05BA:  MOVLW  00
05BC:  MOVWF  01
05BE:  BRA    05E2
....................    } 
....................    delay_us(50); 
05C0:  MOVLW  52
05C2:  MOVWF  00
05C4:  DECFSZ 00,F
05C6:  BRA    05C4
05C8:  BRA    05CA
05CA:  NOP   
....................    TOUCH_PIN_HIGH(); 
05CC:  BCF    F92.5
05CE:  BCF    F92.5
05D0:  BSF    F89.5
....................    delay_us(50); 
05D2:  MOVLW  52
05D4:  MOVWF  00
05D6:  DECFSZ 00,F
05D8:  BRA    05D6
05DA:  BRA    05DC
05DC:  NOP   
....................    return TRUE; 
05DE:  MOVLW  01
05E0:  MOVWF  01
05E2:  MOVLB  0
05E4:  GOTO   0606 (RETURN)
.................... } 
....................  
.................... /* 
.................... BOOLEAN touch_write_byte(BYTE data) 
.................... This will write a byte to the DS1993 
.................... PARAMS: The byte to write 
.................... RETURNS: True if completed successfully, false if otherwise 
.................... */ 
.................... BOOLEAN touch_write_byte(BYTE data) 
.................... { 
....................    BYTE i; 
....................  
....................    for(i=1; i<=8; ++i) 
05E8:  MOVLW  01
05EA:  MOVLB  4
05EC:  MOVWF  x60
05EE:  MOVF   x60,W
05F0:  SUBLW  08
05F2:  BNC   0616
....................       if(!touch_write_bit(shift_right(&data, 1, 0))) 
05F4:  BCF    FD8.0
05F6:  RRCF   x5F,F
05F8:  MOVLW  00
05FA:  BTFSC  FD8.0
05FC:  MOVLW  01
05FE:  MOVWF  x61
0600:  MOVWF  x62
0602:  MOVLB  0
0604:  BRA    0574
0606:  MOVF   01,F
0608:  BNZ   0610
....................          return FALSE; 
060A:  MOVLW  00
060C:  MOVWF  01
060E:  BRA    061C
0610:  MOVLB  4
0612:  INCF   x60,F
0614:  BRA    05EE
....................  
....................    return TRUE; 
0616:  MOVLW  01
0618:  MOVWF  01
061A:  MOVLB  0
061C:  RETURN 0
.................... } 
....................  
.................... /* 
.................... BOOLEAN touch_present() 
.................... This will evaluate whether or not there is a touch present on the DS1993 
.................... PARAMS: none 
.................... RETURNS: True if a touch is present, false if otherwise 
.................... */ 
.................... BOOLEAN touch_present() 
.................... { 
....................    BOOLEAN present; 
....................    TOUCH_PIN_LOW(); 
*
0502:  BCF    F92.5
0504:  BCF    F92.5
0506:  BCF    F89.5
....................    delay_us(500); 
0508:  MOVLW  02
050A:  MOVLB  4
050C:  MOVWF  x60
050E:  CLRF   16
0510:  BTFSC  FF2.7
0512:  BSF    16.7
0514:  BCF    FF2.7
0516:  MOVLW  F9
0518:  MOVWF  x85
051A:  MOVLB  0
051C:  RCALL  01AA
051E:  BTFSC  16.7
0520:  BSF    FF2.7
0522:  MOVLB  4
0524:  DECFSZ x60,F
0526:  BRA    050E
....................    TOUCH_PIN_FLOAT(); 
0528:  BSF    F92.5
....................    delay_us(5); 
052A:  MOVLW  07
052C:  MOVWF  00
052E:  DECFSZ 00,F
0530:  BRA    052E
0532:  BRA    0534
0534:  NOP   
....................  
....................    if(!TOUCH_PIN_READ()) 
0536:  BTFSC  F80.5
0538:  BRA    0540
....................       return FALSE; 
053A:  MOVLW  00
053C:  MOVWF  01
053E:  BRA    0570
....................  
....................    delay_us(65); 
0540:  MOVLW  6B
0542:  MOVWF  00
0544:  DECFSZ 00,F
0546:  BRA    0544
0548:  BRA    054A
054A:  NOP   
....................    present = !TOUCH_PIN_READ(); 
054C:  BCF    x5F.0
054E:  BTFSS  F80.5
0550:  BSF    x5F.0
....................    delay_us(240); 
0552:  CLRF   16
0554:  BTFSC  FF2.7
0556:  BSF    16.7
0558:  BCF    FF2.7
055A:  MOVLW  F0
055C:  MOVWF  x85
055E:  MOVLB  0
0560:  RCALL  01AA
0562:  BTFSC  16.7
0564:  BSF    FF2.7
....................    return present; 
0566:  MOVLW  00
0568:  MOVLB  4
056A:  BTFSC  x5F.0
056C:  MOVLW  01
056E:  MOVWF  01
0570:  MOVLB  0
0572:  RETURN 0
.................... } 
....................  
.................... /* 
.................... void reset_pulse() 
.................... This will send the DS1993 a reset pulse 
.................... PARAMS: none 
.................... RETURNS: none 
.................... */ 
.................... void reset_pulse() 
.................... { 
....................    TOUCH_PIN_LOW(); 
....................    delay_us(500); 
....................    TOUCH_PIN_FLOAT(); 
....................    delay_us(5); 
....................    while(!touch_present()); 
.................... } 
....................  
....................  
.................... #endif 
....................  
.................... #DEFINE       SKIP_ROM              0xCC 
.................... #DEFINE       CONVERT_T             0x44 
.................... #DEFINE       READ_SCRATCHPAD       0xBE 
.................... #DEFINE       WRITE_SCRATCHPAD      0x4E 
.................... #DEFINE       COPY_SCRATCHPAD       0x48     
.................... UNSIGNED INT8     DS18AL, DS18AH, DS18A_TAM; 
.................... UNSIGNED INT16    DS18A; 
.................... unsigned int8 NGUYEN; 
.................... unsigned int8 TP; 
.................... VOID  KHOI_TAO_DS18B20() 
.................... {                          
....................       TOUCH_PRESENT(); 
*
061E:  RCALL  0502
....................       TOUCH_WRITE_BYTE(SKIP_ROM);       
0620:  MOVLW  CC
0622:  MOVLB  4
0624:  MOVWF  x5F
0626:  MOVLB  0
0628:  RCALL  05E8
....................       TOUCH_WRITE_BYTE(WRITE_SCRATCHPAD);     
062A:  MOVLW  4E
062C:  MOVLB  4
062E:  MOVWF  x5F
0630:  MOVLB  0
0632:  RCALL  05E8
....................       TOUCH_WRITE_BYTE(0x0);       // ghi 2 byte rong 
0634:  MOVLB  4
0636:  CLRF   x5F
0638:  MOVLB  0
063A:  RCALL  05E8
....................       TOUCH_WRITE_BYTE(0x0);       // 
063C:  MOVLB  4
063E:  CLRF   x5F
0640:  MOVLB  0
0642:  RCALL  05E8
....................       TOUCH_WRITE_BYTE(0x1F);      //Cau hinh do phan giai 9 bit 
0644:  MOVLW  1F
0646:  MOVLB  4
0648:  MOVWF  x5F
064A:  MOVLB  0
064C:  RCALL  05E8
.................... //!      TOUCH_WRITE_BYTE(0x3F);      //Cau hinh do phan giai 10 bit 
.................... //!      TOUCH_WRITE_BYTE(0x7F);      //Cau hinh do phan giai 11 bit 
....................  
....................       TOUCH_PRESENT(); 
064E:  RCALL  0502
....................       TOUCH_WRITE_BYTE(SKIP_ROM);       
0650:  MOVLW  CC
0652:  MOVLB  4
0654:  MOVWF  x5F
0656:  MOVLB  0
0658:  RCALL  05E8
....................       TOUCH_WRITE_BYTE(COPY_SCRATCHPAD);  
065A:  MOVLW  48
065C:  MOVLB  4
065E:  MOVWF  x5F
0660:  MOVLB  0
0662:  RCALL  05E8
0664:  GOTO   1C7C (RETURN)
.................... } 
.................... VOID  DOC_GIATRI_DS18B20() 
.................... {  
....................       TOUCH_WRITE_BYTE(SKIP_ROM); 
*
1240:  MOVLW  CC
1242:  MOVLB  4
1244:  MOVWF  x5F
1246:  MOVLB  0
1248:  CALL   05E8
....................       TOUCH_WRITE_BYTE (CONVERT_T);    
124C:  MOVLW  44
124E:  MOVLB  4
1250:  MOVWF  x5F
1252:  MOVLB  0
1254:  CALL   05E8
....................       TOUCH_PRESENT(); 
1258:  CALL   0502
....................       TOUCH_WRITE_BYTE(SKIP_ROM); 
125C:  MOVLW  CC
125E:  MOVLB  4
1260:  MOVWF  x5F
1262:  MOVLB  0
1264:  CALL   05E8
....................       TOUCH_WRITE_BYTE(READ_SCRATCHPAD);   
1268:  MOVLW  BE
126A:  MOVLB  4
126C:  MOVWF  x5F
126E:  MOVLB  0
1270:  CALL   05E8
....................       DS18AL = TOUCH_READ_BYTE(); 
1274:  RCALL  1216
1276:  MOVFF  01,2D
....................       DS18AH = TOUCH_READ_BYTE();       
127A:  RCALL  1216
127C:  MOVFF  01,2E
....................       DS18A   =  MAKE16(DS18AH,DS18AL); 
1280:  MOVFF  2E,31
1284:  MOVFF  2D,30
....................        
....................       // MODIFIED 
....................       NGUYEN = DS18A >> 4; // LAY PHAN NGUYEN 
1288:  RRCF   31,W
128A:  MOVWF  03
128C:  RRCF   30,W
128E:  MOVWF  02
1290:  RRCF   03,F
1292:  RRCF   02,F
1294:  RRCF   03,F
1296:  RRCF   02,F
1298:  RRCF   03,F
129A:  RRCF   02,F
129C:  MOVFF  02,32
....................        
....................       TP = (DS18A&0X000F)*10/16; //LAY THAP PHAN 1 SO 
12A0:  MOVF   30,W
12A2:  ANDLW  0F
12A4:  MOVLB  4
12A6:  MOVWF  x5F
12A8:  CLRF   x60
12AA:  CLRF   16
12AC:  BTFSC  FF2.7
12AE:  BSF    16.7
12B0:  BCF    FF2.7
12B2:  MOVFF  460,485
12B6:  MOVWF  x84
12B8:  CLRF   x87
12BA:  MOVLW  0A
12BC:  MOVWF  x86
12BE:  MOVLB  0
12C0:  CALL   0298
12C4:  BTFSC  16.7
12C6:  BSF    FF2.7
12C8:  MOVFF  02,460
12CC:  MOVLB  4
12CE:  RRCF   02,W
12D0:  MOVWF  03
12D2:  RRCF   01,W
12D4:  MOVWF  02
12D6:  RRCF   03,F
12D8:  RRCF   02,F
12DA:  RRCF   03,F
12DC:  RRCF   02,F
12DE:  RRCF   03,F
12E0:  RRCF   02,F
12E2:  MOVFF  02,33
12E6:  MOVLB  0
12E8:  GOTO   1CEE (RETURN)
.................... //!      TP = (DS18A&0X000F)*100/16; //LAY THAP PHAN 2 SO 
.................... //!      TP = (DS18A&0X000F)*1000/16; //LAY THAP PHAN 3 SO 
....................        
.................... } 
....................              
....................  
....................  
.................... #include <TV_PICKIT2_SHIFT_DS13B07_I2C.c> 
.................... #INCLUDE <TV_PICKIT2_SHIFT_LCD.c> 
.................... UNSIGNED INT8 LCD_CONTROL;   
.................... #bit LCD_P = LCD_CONTROL.3 
.................... #bit LCD_RS = LCD_CONTROL.2 
.................... #bit LCD_RW = LCD_CONTROL.1 
.................... #bit LCD_E  = LCD_CONTROL.0 
....................  
.................... #DEFINE LCD_FUNCTION_SET       0X38 
.................... #DEFINE LCD_DISPLAY_CONTROL    0X0C 
.................... #DEFINE LCD_CLEAR_DISPLAY      0X01 
.................... #DEFINE LCD_ENTRY_MODE         0X06 
.................... #DEFINE LCD_SHIFT_LEFT         0X18 
.................... #DEFINE LCD_SHIFT_RIGHT        0X1C 
....................  
.................... #DEFINE LCD_ADDR_LINE1         0X80 
.................... #DEFINE LCD_ADDR_LINE2         0XC0 
.................... #DEFINE LCD_ADDR_LINE3         0X94 
.................... #DEFINE LCD_ADDR_LINE4         0XD4 
....................  
.................... VOID LCD_XUAT_8BIT(INT8 LCD_DATA_X) 
.................... { 
....................       LCD_E=1; XUAT_LCD20X4(LCD_CONTROL,LCD_DATA_X);      
*
044E:  BSF    34.0
0450:  MOVFF  34,464
0454:  MOVFF  463,465
0458:  RCALL  042E
....................       LCD_E=0; XUAT_LCD20X4(LCD_CONTROL,LCD_DATA_X);  
045A:  BCF    34.0
045C:  MOVFF  34,464
0460:  MOVFF  463,465
0464:  RCALL  042E
0466:  RETURN 0
.................... } 
.................... void LCD_COMMAND(INT8 LCD_DATA_X)    
....................   { 
....................       LCD_RS = 0; 
0468:  BCF    34.2
....................       LCD_XUAT_8BIT(LCD_DATA_X); 
046A:  MOVFF  462,463
046E:  RCALL  044E
....................       DELAY_US(20); 
0470:  MOVLW  20
0472:  MOVWF  00
0474:  DECFSZ 00,F
0476:  BRA    0474
0478:  BRA    047A
047A:  NOP   
047C:  RETURN 0
....................   } 
.................... void LCD_DATA(INT8 LCD_DATA_X)        
....................   { 
....................       LCD_RS = 1;      
*
13D4:  BSF    34.2
....................       LCD_XUAT_8BIT(LCD_DATA_X); 
13D6:  MOVFF  461,463
13DA:  CALL   044E
....................       DELAY_US(20); 
13DE:  MOVLW  20
13E0:  MOVWF  00
13E2:  DECFSZ 00,F
13E4:  BRA    13E2
13E6:  BRA    13E8
13E8:  NOP   
13EA:  RETURN 0
....................   } 
....................    
.................... VOID SETUP_LCD () 
.................... {                      
....................          LCD_E  = 0;  
*
04A6:  BCF    34.0
....................          LCD_RW = 0;  
04A8:  BCF    34.1
....................          LCD_RS = 1;  
04AA:  BSF    34.2
....................          LCD_P =0; 
04AC:  BCF    34.3
....................          LCD_COMMAND(LCD_FUNCTION_SET);          
04AE:  MOVLW  38
04B0:  MOVLB  4
04B2:  MOVWF  x62
04B4:  MOVLB  0
04B6:  RCALL  0468
....................          DELAY_US(40); 
04B8:  MOVLW  42
04BA:  MOVWF  00
04BC:  DECFSZ 00,F
04BE:  BRA    04BC
04C0:  NOP   
....................          LCD_COMMAND(LCD_DISPLAY_CONTROL);    
04C2:  MOVLW  0C
04C4:  MOVLB  4
04C6:  MOVWF  x62
04C8:  MOVLB  0
04CA:  RCALL  0468
....................          DELAY_US(40); 
04CC:  MOVLW  42
04CE:  MOVWF  00
04D0:  DECFSZ 00,F
04D2:  BRA    04D0
04D4:  NOP   
....................          LCD_COMMAND(LCD_CLEAR_DISPLAY);       
04D6:  MOVLW  01
04D8:  MOVLB  4
04DA:  MOVWF  x62
04DC:  MOVLB  0
04DE:  RCALL  0468
....................          DELAY_MS(2); 
04E0:  MOVLW  02
04E2:  MOVLB  4
04E4:  MOVWF  x60
04E6:  MOVLB  0
04E8:  RCALL  047E
....................          LCD_COMMAND(LCD_ENTRY_MODE);        
04EA:  MOVLW  06
04EC:  MOVLB  4
04EE:  MOVWF  x62
04F0:  MOVLB  0
04F2:  RCALL  0468
....................          DELAY_US(40);                 
04F4:  MOVLW  42
04F6:  MOVWF  00
04F8:  DECFSZ 00,F
04FA:  BRA    04F8
04FC:  NOP   
04FE:  GOTO   1C78 (RETURN)
.................... } 
....................  
.................... CONST UNSIGNED CHAR LCD_SO_X[10+1+1+1+7][6] ={ 
....................                   0,1,2,5,3,4,               // SO 0 
....................                   1,2,32,3,7,3,              // SO 1 
....................                   6,6,2,5,3,3,               // SO 2 
....................                   6,6,2,3,3,4,               // SO 3 
....................                   7,3,7,32,32,7,             // SO 4 
....................                   7,6,6,3,3,4,               // SO 5 
....................                   0,6,6,5,3,4,               // SO 6 
....................                   1,1,7,32,32,7,             // SO 7 
....................                   0,6,2,5,3,4,               // SO 8 
....................                   0,6,2,3,3,4,               // SO 9 
....................                   32,32,32,32,32,32,         // KHOANG TRANG 0x20 tai vi tri 10 
....................                   0,6,2,5,32,32,              // CHU "P" tai vi tri 11 
....................                   32,32,32,32,7,32,           // DAU CHAM tai vi tri 12 
....................                   7, 32, 32, 7, 6, 7,          // CHU "B" tai vi tri 13 
....................                   7, 3, 7, 7, 32, 7,          // CHU "H" tai vi tri 14 
....................                   3, 3, 7, 7, 3, 7,           // CHU "d" tai vi tri 15 
....................                   32, 32, 32, 3, 3, 3,        // dau gach duoi tai vi tri 16 
....................                   32, 1, 32, 32, 32, 32,      // dau do (oC) tai vi tri 17 
....................                   7, 1, 1, 7, 3, 3,           // CHU "C" tai vi tri 18 
....................                   32, 1, 32, 32, 1, 32       // DAU HAI CHAM : tai vi tri 19 
....................                   }; 
....................                    
....................                    
.................... CONST UNSIGNED CHAR LCD_MA_8DOAN[] = { 
....................    0x07,0x0F,0x1F,0x1F,0x1F,0x1F,0x1F,0x1F,  //DOAN F - 0 
....................    0x1F,0x1F,0x1F,0X00,0X00,0X00,0X00,0X00,  //DOAN A - 1 
....................    0x1C,0x1E,0x1F,0x1F,0x1F,0x1F,0x1F,0x1F,  //DOAN B - 2 
....................    0X00,0X00,0X00,0X00,0X00,0x1F,0x1F,0x1F,  //DOAN D - 3 
....................    0x1F,0x1F,0x1F,0x1F,0x1F,0x1F,0x1E,0x1C,  //DOAN C - 4 
....................    0x1F,0x1F,0x1F,0x1F,0x1F,0x1F,0x0F,0x07,  //DOAN E - 5 
....................    0x1F,0x1F,0x1F,0X00,0X00,0X00,0x1F,0x1F,  //DOAN G+D-6  
....................    0x1F,0x1F,0x1F,0x1F,0x1F,0x1F,0x1F,0x1F}; //DOAN I  -7 
....................     
.................... VOID LCD_GOTO_XY(SIGNED INT8 X, SIGNED INT8 Y) 
.................... {  
....................    CONST UNSIGNED INT8 LCD_VITRI[]={0x80,0xC0,0x94,0xD4}; 
....................    LCD_COMMAND(LCD_VITRI[X]+Y); 
*
13AE:  CLRF   03
13B0:  MOVLB  4
13B2:  MOVF   x5F,W
13B4:  MOVFF  FF2,461
13B8:  BCF    FF2.7
13BA:  MOVLB  0
13BC:  CALL   00EA
13C0:  MOVLB  4
13C2:  BTFSC  x61.7
13C4:  BSF    FF2.7
13C6:  ADDWF  x60,W
13C8:  MOVWF  x61
13CA:  MOVWF  x62
13CC:  MOVLB  0
13CE:  CALL   0468
13D2:  RETURN 0
.................... } 
....................  
.................... VOID XXX() 
.................... {  
....................    SIGNED INT8 X; 
....................    X= LCD_SO_X[0][0]; 
....................    X= LCD_MA_8DOAN[0]; 
.................... } 
....................  
.................... #define   GIAY_HTAI      0X55 
.................... #define   PHUT_HTAI      0X32 
.................... #define   GIO_HTAI       0X16 
.................... #define   THU_HTAI       2 
.................... #define   NGAY_HTAI      0X10 
.................... #define   THANG_HTAI     0X08 
.................... #define   NAM_HTAI       0X20       
.................... #define   MA_DS          0X91 
....................  
.................... #define  ADDR_WR_13B07   0xD0 
.................... #define  ADDR_RD_13B07   0xD1 
.................... #define  ADDR_MEM        0x00 
....................  
.................... //!UNSIGNED CHAR GIATRI_MOD; 
....................  
.................... UNSIGNED  CHAR    NAM_DS13,THANG_DS13,NGAY_DS13,THU_DS13,GIO_DS13, 
....................                   PHUT_DS13,GIAY_DS13,MA_DS13,CONTROL_DS13,GIAYTAM; 
....................                                 
.................... void THIET_LAP_THOI_GIAN_HIEN_TAI() 
.................... {     GIAY_DS13   =   GIAY_HTAI;       PHUT_DS13  =    PHUT_HTAI;    
*
07E8:  MOVLW  55
07EA:  MOVWF  3B
07EC:  MOVLW  32
07EE:  MOVWF  3A
....................       GIO_DS13    =   GIO_HTAI;        THU_DS13   =    THU_HTAI; 
07F0:  MOVLW  16
07F2:  MOVWF  39
07F4:  MOVLW  02
07F6:  MOVWF  38
....................       NGAY_DS13   =   NGAY_HTAI;       THANG_DS13 =    THANG_HTAI;    
07F8:  MOVLW  10
07FA:  MOVWF  37
07FC:  MOVLW  08
07FE:  MOVWF  36
....................       NAM_DS13    =   NAM_HTAI;    
0800:  MOVLW  20
0802:  MOVWF  35
....................       CONTROL_DS13 = 0X90;             MA_DS13      =   MA_DS; 
0804:  MOVLW  90
0806:  MOVWF  3D
0808:  MOVLW  91
080A:  MOVWF  3C
080C:  GOTO   1C9E (RETURN)
.................... } 
....................   
.................... void NAP_THOI_GIAN_HTAI_VAO_DS13B07() 
.................... {     I2C_START();          
0810:  BSF    F93.0
0812:  MOVLW  05
0814:  MOVWF  00
0816:  DECFSZ 00,F
0818:  BRA    0816
081A:  BSF    F93.1
081C:  MOVLW  06
081E:  MOVWF  00
0820:  DECFSZ 00,F
0822:  BRA    0820
0824:  BCF    F8A.0
0826:  BCF    F93.0
0828:  MOVLW  05
082A:  MOVWF  00
082C:  DECFSZ 00,F
082E:  BRA    082C
0830:  BCF    F8A.1
0832:  BCF    F93.1
....................       I2C_WRITE(ADDR_WR_13B07);     
0834:  MOVLW  D0
0836:  MOVLB  4
0838:  MOVWF  x5F
083A:  MOVLB  0
083C:  RCALL  0668
....................       I2C_WRITE(0X00); 
083E:  MOVLB  4
0840:  CLRF   x5F
0842:  MOVLB  0
0844:  RCALL  0668
....................       I2C_WRITE(GIAY_DS13);        I2C_WRITE(PHUT_DS13);       
0846:  MOVFF  3B,45F
084A:  RCALL  0668
084C:  MOVFF  3A,45F
0850:  RCALL  0668
....................       I2C_WRITE(GIO_DS13);         I2C_WRITE(THU_DS13);       
0852:  MOVFF  39,45F
0856:  RCALL  0668
0858:  MOVFF  38,45F
085C:  RCALL  0668
....................       I2C_WRITE(NGAY_DS13);        I2C_WRITE(THANG_DS13);             
085E:  MOVFF  37,45F
0862:  RCALL  0668
0864:  MOVFF  36,45F
0868:  RCALL  0668
....................       I2C_WRITE(NAM_DS13);         I2C_WRITE(CONTROL_DS13);    
086A:  MOVFF  35,45F
086E:  RCALL  0668
0870:  MOVFF  3D,45F
0874:  RCALL  0668
....................       I2C_WRITE(MA_DS13); 
0876:  MOVFF  3C,45F
087A:  RCALL  0668
....................       I2C_STOP(); 
087C:  BCF    F93.0
087E:  NOP   
0880:  BSF    F93.1
0882:  BTFSS  F81.1
0884:  BRA    0882
0886:  MOVLW  05
0888:  MOVWF  00
088A:  DECFSZ 00,F
088C:  BRA    088A
088E:  BRA    0890
0890:  NOP   
0892:  BSF    F93.0
0894:  MOVLW  05
0896:  MOVWF  00
0898:  DECFSZ 00,F
089A:  BRA    0898
089C:  GOTO   1CA2 (RETURN)
.................... } 
....................      
.................... void DOC_THOI_GIAN_TU_REALTIME() 
.................... {    
....................       I2C_START(); 
*
0706:  BSF    F93.0
0708:  MOVLW  05
070A:  MOVWF  00
070C:  DECFSZ 00,F
070E:  BRA    070C
0710:  BSF    F93.1
0712:  MOVLW  06
0714:  MOVWF  00
0716:  DECFSZ 00,F
0718:  BRA    0716
071A:  BCF    F8A.0
071C:  BCF    F93.0
071E:  MOVLW  05
0720:  MOVWF  00
0722:  DECFSZ 00,F
0724:  BRA    0722
0726:  BCF    F8A.1
0728:  BCF    F93.1
....................       I2C_WRITE(ADDR_WR_13B07); 
072A:  MOVLW  D0
072C:  MOVLB  4
072E:  MOVWF  x5F
0730:  MOVLB  0
0732:  RCALL  0668
....................       I2C_WRITE(ADDR_MEM);                      
0734:  MOVLB  4
0736:  CLRF   x5F
0738:  MOVLB  0
073A:  RCALL  0668
....................       I2C_START();                 
073C:  BSF    F93.0
073E:  MOVLW  05
0740:  MOVWF  00
0742:  DECFSZ 00,F
0744:  BRA    0742
0746:  BSF    F93.1
0748:  MOVLW  06
074A:  MOVWF  00
074C:  DECFSZ 00,F
074E:  BRA    074C
0750:  BTFSS  F81.1
0752:  BRA    0750
0754:  BCF    F8A.0
0756:  BCF    F93.0
0758:  MOVLW  05
075A:  MOVWF  00
075C:  DECFSZ 00,F
075E:  BRA    075C
0760:  BCF    F8A.1
0762:  BCF    F93.1
....................                  
....................       I2C_WRITE(ADDR_RD_13B07); 
0764:  MOVLW  D1
0766:  MOVLB  4
0768:  MOVWF  x5F
076A:  MOVLB  0
076C:  RCALL  0668
....................       GIAY_DS13      =  I2C_READ();               
076E:  MOVLW  01
0770:  MOVWF  00
0772:  RCALL  06BA
0774:  MOVFF  01,3B
....................       PHUT_DS13      =  I2C_READ();              
0778:  MOVLW  01
077A:  MOVWF  00
077C:  RCALL  06BA
077E:  MOVFF  01,3A
....................       GIO_DS13       =  I2C_READ();              
0782:  MOVLW  01
0784:  MOVWF  00
0786:  RCALL  06BA
0788:  MOVFF  01,39
....................       THU_DS13       =  I2C_READ();  
078C:  MOVLW  01
078E:  MOVWF  00
0790:  RCALL  06BA
0792:  MOVFF  01,38
....................       NGAY_DS13      =  I2C_READ();  
0796:  MOVLW  01
0798:  MOVWF  00
079A:  RCALL  06BA
079C:  MOVFF  01,37
....................       THANG_DS13     =  I2C_READ();  
07A0:  MOVLW  01
07A2:  MOVWF  00
07A4:  RCALL  06BA
07A6:  MOVFF  01,36
....................       NAM_DS13       =  I2C_READ();  
07AA:  MOVLW  01
07AC:  MOVWF  00
07AE:  RCALL  06BA
07B0:  MOVFF  01,35
....................       CONTROL_DS13   =  I2C_READ();           
07B4:  MOVLW  01
07B6:  MOVWF  00
07B8:  RCALL  06BA
07BA:  MOVFF  01,3D
....................       MA_DS13        =  I2C_READ(0);     //NOT ACK 
07BE:  CLRF   00
07C0:  RCALL  06BA
07C2:  MOVFF  01,3C
....................       I2C_STOP(); 
07C6:  BCF    F93.0
07C8:  NOP   
07CA:  BSF    F93.1
07CC:  BTFSS  F81.1
07CE:  BRA    07CC
07D0:  MOVLW  05
07D2:  MOVWF  00
07D4:  DECFSZ 00,F
07D6:  BRA    07D4
07D8:  BRA    07DA
07DA:  NOP   
07DC:  BSF    F93.0
07DE:  MOVLW  05
07E0:  MOVWF  00
07E2:  DECFSZ 00,F
07E4:  BRA    07E2
07E6:  RETURN 0
.................... }     
....................  
....................     
.................... void DOC_GIAY_TU_REALTIME() 
.................... {    
....................       I2C_START(); 
....................       I2C_WRITE(ADDR_WR_13B07); 
....................       I2C_WRITE(ADDR_MEM);                      
....................       I2C_START();                 
....................                  
....................       I2C_WRITE(ADDR_RD_13B07); 
....................       GIAY_DS13      =  I2C_READ(0);               
....................       I2C_STOP(); 
.................... }   
....................          
....................   
.................... void HIEN_THI_THOI_GIAN_DS13B07 ( ) 
.................... {     LCD_COMMAND (0x8C);    
....................       LCD_DATA(GIO_DS13/16  +0X30);    LCD_DATA(GIO_DS13%16  +0X30); 
....................       LCD_DATA(' '); 
....................       LCD_DATA(PHUT_DS13/16 +0X30);    LCD_DATA(PHUT_DS13%16 +0X30); 
....................       LCD_DATA(' '); 
....................       LCD_DATA(GIAY_DS13/16 +0X30);    LCD_DATA(GIAY_DS13%16 +0X30); 
....................       LCD_COMMAND (0xCC);   
....................       LCD_DATA(NGAY_DS13/16 +0X30);    LCD_DATA(NGAY_DS13%16 +0X30); 
....................       LCD_DATA(' '); 
....................       LCD_DATA(THANG_DS13/16 +0X30);   LCD_DATA(THANG_DS13%16 +0X30); 
....................       LCD_DATA(' '); 
....................       LCD_DATA(NAM_DS13/16 +0X30);     LCD_DATA(NAM_DS13%16 +0X30);  
.................... } 
....................  
.................... //!void HT_DS1307 ( ) 
.................... //!{      
.................... //!    LCD_COMMAND (0x8C);    
.................... //!      LCD_DATA(GIO_DS13/16  +0X30);    LCD_DATA(GIO_DS13%16  +0X30); 
.................... //!      LCD_DATA(' '); 
.................... //!      LCD_DATA(PHUT_DS13/16 +0X30);    LCD_DATA(PHUT_DS13%16 +0X30); 
.................... //!      LCD_DATA(' '); 
.................... //!      LCD_DATA(GIAY_DS13/16 +0X30);    LCD_DATA(GIAY_DS13%16 +0X30); 
.................... //!      LCD_COMMAND (0xC6); 
.................... //!      LCD_DATA("THU "); 
.................... //!      LCD_DATA(THU_DS13 +0X30);  
.................... //!      LCD_COMMAND (0xCC);   
.................... //!      LCD_DATA(NGAY_DS13/16 +0X30);    LCD_DATA(NGAY_DS13%16 +0X30); 
.................... //!      LCD_DATA(' '); 
.................... //!      LCD_DATA(THANG_DS13/16 +0X30);   LCD_DATA(THANG_DS13%16 +0X30); 
.................... //!      LCD_DATA(' '); 
.................... //!      LCD_DATA(NAM_DS13/16 +0X30);     LCD_DATA(NAM_DS13%16 +0X30);  
.................... //!} 
.................... //! 
.................... //!VOID HIEN_THI_GIA_TRI_MOD() 
.................... //!{ 
.................... //!   LCD_COMMAND(0X8A); 
.................... //!   LCD_DATA(GIATRI_MOD + 0X30); 
.................... //!} 
....................  
.................... // VI TRI 
.................... //!NAM_DS13==0XD2 
.................... //!THANG_DS13==0XCF 
.................... //!NGAY_DS13==0XCC 
.................... //!GIO_DS13==0X8C 
.................... //!PHUT_DS13==0X8F 
.................... //!GIAY_DS13==0X92 
....................  
.................... #include <tv_pickit2_shift_glcd128x64.c> 
.................... UNSIGNED INT8 GLCD_CONTROL;   
.................... #bit GLCD_P    = GLCD_CONTROL.5 
.................... #bit GLCD_RS   = GLCD_CONTROL.4 
.................... #bit GLCD_RW   = GLCD_CONTROL.3 
.................... #bit GLCD_E    = GLCD_CONTROL.2 
.................... #bit GLCD_CS2  = GLCD_CONTROL.1 
.................... #bit GLCD_CS1  = GLCD_CONTROL.0 
....................  
.................... //#DEFINE GLCD_FUNCTION_SET       0X30 
.................... #DEFINE GLCD_TEXT_MODE          0x30 
.................... #DEFINE GLCD_GRAPHIC_MODE       0x36  
....................  
.................... #DEFINE GLCD_CLEAR_DISPLAY      0X01 
.................... #DEFINE GLCD_CURSOR_DISPLAY     0X0C 
.................... #DEFINE GLCD_ENTRY_MODE         0X06 
....................  
....................  
.................... #DEFINE GLCD_ADDR_LINE1         0X80 
.................... #DEFINE GLCD_ADDR_LINE2         0X90 
.................... #DEFINE GLCD_ADDR_LINE3         0X88 
.................... #DEFINE GLCD_ADDR_LINE4         0X98 
....................  
.................... VOID GLCD_XUAT_8BIT(INT8 GLCD_DATA1) 
.................... { 
....................       GLCD_E=1; XUAT_GLCD128X64(GLCD_CONTROL,GLCD_DATA1);      
*
0274:  BSF    3F.2
0276:  MOVFF  3F,489
027A:  MOVFF  488,48A
027E:  RCALL  0260
....................       GLCD_E=0; XUAT_GLCD128X64(GLCD_CONTROL,GLCD_DATA1);  
0280:  BCF    3F.2
0282:  MOVFF  3F,489
0286:  MOVFF  488,48A
028A:  RCALL  0260
028C:  RETURN 0
.................... } 
....................  
.................... void GLCD_COMMAND(INT8 GLCD_DATA2)    
....................   { 
....................       GLCD_RS = 0; 
028E:  BCF    3F.4
....................       GLCD_XUAT_8BIT(GLCD_DATA2);       
0290:  MOVFF  485,488
0294:  RCALL  0274
0296:  RETURN 0
....................   } 
.................... void GLCD_DATA(INT8 GLCD_DATA3)        
....................   { 
....................       GLCD_RS = 1;      
*
02BA:  BSF    3F.4
....................       GLCD_XUAT_8BIT(GLCD_DATA3);      
02BC:  MOVFF  487,488
02C0:  RCALL  0274
02C2:  RETURN 0
....................   } 
....................    
....................   VOID GLCD_DATA_X(INT8 GLCD_DATA3) 
.................... { 
....................       GLCD_RS = 1;      
....................       GLCD_XUAT_8BIT(0XA1); 
....................       GLCD_XUAT_8BIT(0X40);   
.................... } 
.................... VOID SETUP_GLCD (INT8 GLCD_FUNCTION_SET_MODE) 
.................... {                      
....................          GLCD_CS1 = 1; 
*
08A0:  BSF    3F.0
....................          GLCD_CS2 = 1; 
08A2:  BSF    3F.1
....................          GLCD_E  = 0; 
08A4:  BCF    3F.2
....................          GLCD_RW = 0;           
08A6:  BCF    3F.3
....................          GLCD_P =0;          
08A8:  BCF    3F.5
08AA:  CLRF   16
08AC:  BTFSC  FF2.7
08AE:  BSF    16.7
08B0:  BCF    FF2.7
....................          GLCD_COMMAND(GLCD_FUNCTION_SET_MODE);          
08B2:  MOVFF  45F,485
08B6:  RCALL  028E
08B8:  BTFSC  16.7
08BA:  BSF    FF2.7
....................          DELAY_US(10); 
08BC:  MOVLW  10
08BE:  MOVWF  00
08C0:  DECFSZ 00,F
08C2:  BRA    08C0
08C4:  NOP   
08C6:  CLRF   16
08C8:  BTFSC  FF2.7
08CA:  BSF    16.7
08CC:  BCF    FF2.7
....................          GLCD_COMMAND(GLCD_CURSOR_DISPLAY);        
08CE:  MOVLW  0C
08D0:  MOVLB  4
08D2:  MOVWF  x85
08D4:  MOVLB  0
08D6:  RCALL  028E
08D8:  BTFSC  16.7
08DA:  BSF    FF2.7
....................          DELAY_US(10);     
08DC:  MOVLW  10
08DE:  MOVWF  00
08E0:  DECFSZ 00,F
08E2:  BRA    08E0
08E4:  NOP   
08E6:  CLRF   16
08E8:  BTFSC  FF2.7
08EA:  BSF    16.7
08EC:  BCF    FF2.7
....................          GLCD_COMMAND(GLCD_CLEAR_DISPLAY);       
08EE:  MOVLW  01
08F0:  MOVLB  4
08F2:  MOVWF  x85
08F4:  MOVLB  0
08F6:  RCALL  028E
08F8:  BTFSC  16.7
08FA:  BSF    FF2.7
....................          DELAY_MS(2); 
08FC:  MOVLW  02
08FE:  MOVLB  4
0900:  MOVWF  x60
0902:  MOVLB  0
0904:  RCALL  047E
0906:  CLRF   16
0908:  BTFSC  FF2.7
090A:  BSF    16.7
090C:  BCF    FF2.7
....................          GLCD_COMMAND(GLCD_ENTRY_MODE);       
090E:  MOVLW  06
0910:  MOVLB  4
0912:  MOVWF  x85
0914:  MOVLB  0
0916:  RCALL  028E
0918:  BTFSC  16.7
091A:  BSF    FF2.7
....................          DELAY_US(10);                           
091C:  MOVLW  10
091E:  MOVWF  00
0920:  DECFSZ 00,F
0922:  BRA    0920
0924:  NOP   
0926:  RETURN 0
.................... } 
....................  
.................... #DEFINE GLCD_NGANG     16 //256 PIXEL 
.................... #DEFINE GLCD_DOC       32 //32 HANG 
.................... #DEFINE GLCD_WIDTH     128 //DANH CHO THU VIEN GRAPHIC.C 
.................... int8 DOC, NGANG; 
....................  
.................... typedef union  
.................... {  
....................   unsigned int16 word;  
....................   unsigned int8 nbyte[2];  
.................... } Dots;  
....................  
.................... typedef struct  
.................... {  
....................   int1 refresh;  
....................   Dots PIXEL[GLCD_DOC][GLCD_NGANG];     
....................   } GD_RAM;     
....................  
.................... GD_RAM gdram_vdk;  
....................  
....................  
.................... void GLCD_MAU_NEN(int1 GLCD_COLOR)  
.................... {   
....................   int16 d;  
....................   if(GLCD_COLOR)  d=0xffff; else d=0; 
0928:  MOVLB  4
092A:  MOVF   x5F,F
092C:  BZ    0934
092E:  SETF   x61
0930:  SETF   x60
0932:  BRA    0938
0934:  CLRF   x61
0936:  CLRF   x60
....................   for (DOC=0; DOC < GLCD_DOC; DOC++)  
0938:  CLRF   40
093A:  MOVF   40,W
093C:  SUBLW  1F
093E:  BNC   09A8
....................   {  
....................     for (NGANG=0; NGANG < GLCD_NGANG; NGANG++)  
0940:  CLRF   41
0942:  MOVF   41,W
0944:  SUBLW  0F
0946:  BNC   09A4
0948:  CLRF   16
094A:  BTFSC  FF2.7
094C:  BSF    16.7
094E:  BCF    FF2.7
....................     {  
....................       gdram_vdk.PIXEL[DOC][NGANG].word = d;  
0950:  CLRF   x85
0952:  MOVFF  40,484
0956:  CLRF   x87
0958:  MOVLW  20
095A:  MOVWF  x86
095C:  MOVLB  0
095E:  RCALL  0298
0960:  BTFSC  16.7
0962:  BSF    FF2.7
0964:  MOVFF  02,03
0968:  MOVF   01,W
096A:  ADDLW  01
096C:  MOVLB  4
096E:  MOVWF  x62
0970:  MOVLW  00
0972:  ADDWFC 02,W
0974:  MOVWF  x63
0976:  CLRF   03
0978:  MOVFF  41,02
097C:  BCF    FD8.0
097E:  RLCF   02,F
0980:  RLCF   03,F
0982:  MOVF   02,W
0984:  ADDWF  x62,F
0986:  MOVF   03,W
0988:  ADDWFC x63,F
098A:  MOVLW  42
098C:  ADDWF  x62,W
098E:  MOVWF  FE9
0990:  MOVLW  00
0992:  ADDWFC x63,W
0994:  MOVWF  FEA
0996:  MOVFF  461,FEC
099A:  MOVF   FED,F
099C:  MOVFF  460,FEF
09A0:  INCF   41,F
09A2:  BRA    0942
....................     }  
09A4:  INCF   40,F
09A6:  BRA    093A
....................   }  
....................   gdram_vdk.refresh = TRUE;  
09A8:  BSF    42.0
09AA:  MOVLB  0
09AC:  RETURN 0
.................... }  
....................  
.................... void glcd_pixel(int8 x, int8 y, int1 color)  
.................... {  
....................   int8  b;  
....................   if(y>31){x += 128; y-= 32;};  
*
167E:  MOVLB  4
1680:  MOVF   x7C,W
1682:  SUBLW  1F
1684:  BC    168E
1686:  MOVLW  80
1688:  ADDWF  x7B,F
168A:  MOVLW  20
168C:  SUBWF  x7C,F
....................   DOC = y;  
168E:  MOVFF  47C,40
....................   NGANG = x/16;  
1692:  SWAPF  x7B,W
1694:  MOVWF  41
1696:  MOVLW  0F
1698:  ANDWF  41,F
....................   b = 15 - (x % 16);  
169A:  MOVF   x7B,W
169C:  ANDLW  0F
169E:  XORLW  FF
16A0:  ADDLW  10
16A2:  MOVWF  x7E
....................    
....................   if (color == 1) bit_set (gdram_vdk.PIXEL[DOC][NGANG].word, b);  
16A4:  DECFSZ x7D,W
16A6:  BRA    1720
16A8:  CLRF   16
16AA:  BTFSC  FF2.7
16AC:  BSF    16.7
16AE:  BCF    FF2.7
16B0:  CLRF   x85
16B2:  MOVFF  40,484
16B6:  CLRF   x87
16B8:  MOVLW  20
16BA:  MOVWF  x86
16BC:  MOVLB  0
16BE:  CALL   0298
16C2:  BTFSC  16.7
16C4:  BSF    FF2.7
16C6:  MOVFF  02,03
16CA:  MOVF   01,W
16CC:  ADDLW  01
16CE:  MOVLB  4
16D0:  MOVWF  x7F
16D2:  MOVLW  00
16D4:  ADDWFC 02,W
16D6:  MOVWF  x80
16D8:  CLRF   03
16DA:  MOVFF  41,02
16DE:  BCF    FD8.0
16E0:  RLCF   02,F
16E2:  RLCF   03,F
16E4:  MOVF   02,W
16E6:  ADDWF  x7F,F
16E8:  MOVF   03,W
16EA:  ADDWFC x80,F
16EC:  MOVLW  42
16EE:  ADDWF  x7F,W
16F0:  MOVWF  01
16F2:  MOVLW  00
16F4:  ADDWFC x80,W
16F6:  MOVWF  03
16F8:  MOVFF  01,FE9
16FC:  MOVWF  FEA
16FE:  CLRF   03
1700:  MOVLW  01
1702:  MOVWF  02
1704:  MOVF   x7E,W
1706:  MOVWF  00
1708:  BZ    1714
170A:  BCF    FD8.0
170C:  RLCF   02,F
170E:  RLCF   03,F
1710:  DECFSZ 00,F
1712:  BRA    170A
1714:  MOVF   02,W
1716:  IORWF  FEF,F
1718:  MOVF   03,W
171A:  IORWF  FEC,W
171C:  MOVWF  FEF
171E:  BRA    17A0
1720:  CLRF   16
1722:  BTFSC  FF2.7
1724:  BSF    16.7
1726:  BCF    FF2.7
....................   else bit_clear (gdram_vdk.PIXEL[DOC][NGANG].word, b);  
1728:  CLRF   x85
172A:  MOVFF  40,484
172E:  CLRF   x87
1730:  MOVLW  20
1732:  MOVWF  x86
1734:  MOVLB  0
1736:  CALL   0298
173A:  BTFSC  16.7
173C:  BSF    FF2.7
173E:  MOVFF  02,03
1742:  MOVF   01,W
1744:  ADDLW  01
1746:  MOVLB  4
1748:  MOVWF  x7F
174A:  MOVLW  00
174C:  ADDWFC 02,W
174E:  MOVWF  x80
1750:  CLRF   03
1752:  MOVFF  41,02
1756:  BCF    FD8.0
1758:  RLCF   02,F
175A:  RLCF   03,F
175C:  MOVF   02,W
175E:  ADDWF  x7F,F
1760:  MOVF   03,W
1762:  ADDWFC x80,F
1764:  MOVLW  42
1766:  ADDWF  x7F,W
1768:  MOVWF  01
176A:  MOVLW  00
176C:  ADDWFC x80,W
176E:  MOVWF  03
1770:  MOVFF  01,FE9
1774:  MOVWF  FEA
1776:  CLRF   03
1778:  MOVLW  01
177A:  MOVWF  02
177C:  MOVF   x7E,W
177E:  MOVWF  00
1780:  BZ    178C
1782:  BCF    FD8.0
1784:  RLCF   02,F
1786:  RLCF   03,F
1788:  DECFSZ 00,F
178A:  BRA    1782
178C:  MOVF   02,W
178E:  XORLW  FF
1790:  MOVWF  00
1792:  MOVLW  FF
1794:  XORWF  03,F
1796:  MOVF   00,W
1798:  ANDWF  FEF,F
179A:  MOVF   03,W
179C:  ANDWF  FEC,W
179E:  MOVWF  FEF
....................   gdram_vdk.refresh = TRUE;  
17A0:  BSF    42.0
17A2:  MOVLB  0
17A4:  RETURN 0
.................... }  
....................  
....................  
.................... void GDRAM_VDK_TO_GDRAM_GLCD_ALL()  
.................... {  
....................   if (gdram_vdk.refresh)  
*
02C4:  BTFSS  42.0
02C6:  BRA    03A6
....................   {  
....................     for (DOC = 0; DOC <GLCD_DOC; DOC++)  
02C8:  CLRF   40
02CA:  MOVF   40,W
02CC:  SUBLW  1F
02CE:  BNC   03A4
....................     {  
....................       GLCD_COMMAND( 0x80 | DOC);   // Set Vertical Address.  
02D0:  MOVF   40,W
02D2:  IORLW  80
02D4:  MOVLB  4
02D6:  MOVWF  x84
02D8:  MOVWF  x85
02DA:  MOVLB  0
02DC:  RCALL  028E
....................       GLCD_COMMAND( 0x80 | 0);   // Set Horizontal Address.  
02DE:  MOVLW  80
02E0:  MOVLB  4
02E2:  MOVWF  x85
02E4:  MOVLB  0
02E6:  RCALL  028E
....................  
....................       for (NGANG=0; NGANG <GLCD_NGANG; NGANG++)  
02E8:  CLRF   41
02EA:  MOVF   41,W
02EC:  SUBLW  0F
02EE:  BNC   03A0
....................       {  
....................         GLCD_DATA( gdram_vdk.PIXEL[DOC][NGANG].nbyte[1]);   // Write High Byte.  
02F0:  MOVLB  4
02F2:  CLRF   x85
02F4:  MOVFF  40,484
02F8:  CLRF   x87
02FA:  MOVLW  20
02FC:  MOVWF  x86
02FE:  MOVLB  0
0300:  RCALL  0298
0302:  MOVFF  02,03
0306:  MOVF   01,W
0308:  ADDLW  01
030A:  MOVLB  4
030C:  MOVWF  x84
030E:  MOVLW  00
0310:  ADDWFC 02,W
0312:  MOVWF  x85
0314:  CLRF   03
0316:  MOVFF  41,02
031A:  BCF    FD8.0
031C:  RLCF   02,F
031E:  RLCF   03,F
0320:  MOVF   02,W
0322:  ADDWF  x84,F
0324:  MOVF   03,W
0326:  ADDWFC x85,F
0328:  MOVLW  01
032A:  ADDWF  x84,W
032C:  MOVWF  01
032E:  MOVLW  00
0330:  ADDWFC x85,W
0332:  MOVWF  03
0334:  MOVF   01,W
0336:  ADDLW  42
0338:  MOVWF  FE9
033A:  MOVLW  00
033C:  ADDWFC 03,W
033E:  MOVWF  FEA
0340:  MOVFF  FEF,484
0344:  MOVFF  484,487
0348:  MOVLB  0
034A:  RCALL  02BA
....................         GLCD_DATA( gdram_vdk.PIXEL[DOC][NGANG].nbyte[0]);   // Write Low Byte.  
034C:  MOVLB  4
034E:  CLRF   x85
0350:  MOVFF  40,484
0354:  CLRF   x87
0356:  MOVLW  20
0358:  MOVWF  x86
035A:  MOVLB  0
035C:  RCALL  0298
035E:  MOVFF  02,03
0362:  MOVF   01,W
0364:  ADDLW  01
0366:  MOVLB  4
0368:  MOVWF  x84
036A:  MOVLW  00
036C:  ADDWFC 02,W
036E:  MOVWF  x85
0370:  CLRF   03
0372:  MOVFF  41,02
0376:  BCF    FD8.0
0378:  RLCF   02,F
037A:  RLCF   03,F
037C:  MOVF   02,W
037E:  ADDWF  x84,F
0380:  MOVF   03,W
0382:  ADDWFC x85,F
0384:  MOVLW  42
0386:  ADDWF  x84,W
0388:  MOVWF  FE9
038A:  MOVLW  00
038C:  ADDWFC x85,W
038E:  MOVWF  FEA
0390:  MOVFF  FEF,486
0394:  MOVFF  486,487
0398:  MOVLB  0
039A:  RCALL  02BA
039C:  INCF   41,F
039E:  BRA    02EA
....................       }  
03A0:  INCF   40,F
03A2:  BRA    02CA
....................     }  
....................     gdram_vdk.refresh = FALSE;  
03A4:  BCF    42.0
....................   }  
03A6:  RETURN 0
.................... }  
....................  
.................... void GDRAM_VDK_TO_GDRAM_GLCD_AREA (int8 x,int8 y,int8 rong, int8 cao) 
.................... { 
....................   int8 hesox,hesoy;  
....................   if (gdram_vdk.refresh)  
....................   {  
....................       if((x/16)!=(x + rong)/16) 
....................             rong=((rong+15)/16)+1; 
....................       else rong=((rong+15)/16);  
....................        
....................       x = x/16; 
....................       for (DOC = y; DOC <(y+cao); DOC++)  
....................       {  
....................          if(DOC>31) 
....................             {   
....................                hesox = 8+x; 
....................                hesoy = DOC-32; 
....................                } 
....................          else {hesox = x; hesoy = DOC;} 
....................          GLCD_COMMAND( 0x80 |hesoy);    
....................          GLCD_COMMAND( 0x80 |hesox);   
....................        
....................          for (NGANG=hesox; NGANG <(hesox+rong); NGANG++)  
....................          {  
....................             GLCD_DATA( gdram_vdk.PIXEL[hesoy][NGANG].nbyte[1]);   // Write High Byte.  
....................             GLCD_DATA( gdram_vdk.PIXEL[hesoy][NGANG].nbyte[0]);   // Write Low Byte.  
....................          }  
....................        }  
....................     gdram_vdk.refresh = FALSE;  
....................   }       
.................... } 
....................  
....................  
.................... //!const unsigned char Logo_DHSPKTTP []= { 0X00,0X01,0X2E,0X00,0X39,0X00, 
.................... //!0X00,0X00,0X00,0X00,0X00,0X00,0X00,0X00,0X00,0X00,0X00,0X00,0X00,0X00,0X00,0X00, 
.................... //!0X00,0X00,0X00,0X00,0X00,0X00,0X00,0X00,0X00,0X00,0X00,0X00,0X00,0X00,0X00,0X00, 
.................... //!0X00,0X00,0X00,0X00,0X00,0X00,0X00,0X00,0X00,0X00,0X00,0X00,0X02,0X00,0X00,0X00, 
.................... //!0X00,0X00,0X02,0X00,0X00,0X00,0X00,0X00,0X02,0X04,0X00,0X00,0X00,0X01,0X02,0X0C, 
.................... //!0X00,0X00,0X00,0X01,0X82,0X0C,0X00,0X00,0X00,0X00,0X80,0X08,0X00,0X00,0X00,0X00, 
.................... //!0X80,0X00,0X00,0X00,0X00,0X00,0X0F,0X80,0X00,0X00,0X00,0X00,0X3F,0XC0,0X00,0X00, 
.................... //!0X00,0X70,0X70,0X70,0X70,0X00,0X00,0X38,0XC8,0X18,0XE0,0X00,0X00,0X18,0XD8,0X18, 
.................... //!0XC0,0X00,0X00,0X01,0XB0,0X0C,0X00,0X00,0X00,0X01,0XA0,0X0C,0X00,0X00,0X00,0X01, 
.................... //!0X60,0X0C,0X00,0X00,0X00,0X01,0X00,0X04,0X00,0X00,0X00,0X01,0X00,0X04,0X00,0X00, 
.................... //!0X00,0X31,0X00,0X04,0X00,0X00,0X00,0X79,0X80,0X0C,0XF0,0X00,0X00,0X71,0X80,0X0C, 
.................... //!0X70,0X00,0X00,0X01,0X80,0X0C,0X00,0X00,0X00,0X00,0XC0,0X18,0X00,0X00,0X00,0X00, 
.................... //!0XC0,0X18,0X00,0X00,0X00,0X00,0X60,0X30,0X00,0X00,0X00,0X00,0X60,0X30,0X00,0X00, 
.................... //!0X00,0X00,0X20,0X20,0X00,0X00,0X00,0X00,0X30,0X60,0X00,0X00,0X00,0X00,0X30,0X60, 
.................... //!0X00,0X00,0X00,0X00,0X3F,0XE0,0X00,0X00,0X00,0X00,0X3F,0XE0,0X00,0X00,0X00,0X00, 
.................... //!0X3F,0XE0,0X00,0X00,0X00,0X00,0X3F,0XE0,0X00,0X00,0X00,0X00,0X1F,0X80,0X00,0X00, 
.................... //!0X00,0X00,0X3E,0X60,0X00,0X00,0X00,0X00,0X39,0XE0,0X00,0X00,0X00,0X00,0X07,0XE0, 
.................... //!0X00,0X00,0X00,0X00,0X1F,0X80,0X00,0X00,0X00,0X00,0X3E,0X60,0X00,0X00,0X00,0X00, 
.................... //!0X3D,0XE0,0X00,0X00,0X00,0X00,0X3F,0XE0,0X00,0X00,0X00,0X00,0X1F,0XC0,0X00,0X00, 
.................... //!0X00,0X00,0X0F,0X80,0X00,0X00,0X00,0X00,0X02,0X00,0X00,0X00,0X00,0X00,0X00,0X00, 
.................... //!0X00,0X00,0X00,0X00,0X00,0X00,0X00,0X00,0X00,0X00,0X00,0X00,0X00,0X00,0X00,0X00, 
.................... //!0X00,0X00,0X00,0X00,0X00,0X00,0X00,0X00,0X00,0X00,0X00,0X00,0X00,0X00,0X00,0X00, 
.................... //!0X00,0X00,0X00,0X00,0X00,0X00,}; 
.................... //! 
.................... const unsigned char Logo_DHSPKTTP [] = { 
.................... 0x00, 0x00, 0x00, 0x00, 0x00, 0x00, 0x00, 0x00, 0x00, 0x00, 0x00, 0x00, 0x00, 0x00, 0x00, 0x00, 
.................... 0x00, 0x00, 0x00, 0x00, 0x00, 0x00, 0x00, 0x00, 0x00, 0x00, 0x00, 0x01, 0x80, 0x00, 0x00, 0x00, 
.................... 0x00, 0x00, 0x00, 0x01, 0x80, 0x00, 0x00, 0x00, 0x00, 0x00, 0x00, 0x01, 0x80, 0x00, 0x00, 0x00, 
.................... 0x00, 0x00, 0x00, 0x07, 0xE0, 0x00, 0x00, 0x00, 0x00, 0x00, 0x00, 0x07, 0xA0, 0x00, 0x00, 0x00, 
.................... 0x00, 0x00, 0x00, 0x03, 0x20, 0x00, 0x00, 0x00, 0x00, 0x00, 0x00, 0x03, 0x20, 0x00, 0x00, 0x00, 
.................... 0x00, 0x00, 0x00, 0x02, 0x20, 0x00, 0x00, 0x00, 0x00, 0x00, 0x00, 0x02, 0x30, 0x00, 0x00, 0x00, 
.................... 0x00, 0x00, 0x00, 0x02, 0x30, 0x00, 0x00, 0x00, 0x00, 0x7F, 0x00, 0x00, 0x30, 0x00, 0x7E, 0x00, 
.................... 0x00, 0xFE, 0x00, 0x07, 0xE0, 0x00, 0x3F, 0x00, 0x01, 0xF8, 0x00, 0x03, 0xE0, 0x00, 0x1F, 0x80, 
.................... 0x03, 0xF0, 0x00, 0x01, 0xC0, 0x00, 0x0F, 0xC0, 0x03, 0xE0, 0x00, 0x01, 0xC0, 0x00, 0x07, 0xE0, 
.................... 0x07, 0xC0, 0x00, 0x03, 0xC0, 0x00, 0x03, 0xF0, 0x0F, 0xC0, 0x00, 0x17, 0xF4, 0x00, 0x01, 0xF0, 
.................... 0x0F, 0x80, 0x00, 0x1D, 0x98, 0x00, 0x00, 0xF8, 0x1F, 0x00, 0x00, 0x11, 0x8C, 0x00, 0x00, 0xF8, 
.................... 0x1F, 0x01, 0x00, 0x31, 0x84, 0x00, 0x80, 0x7C, 0x3E, 0x06, 0x00, 0x31, 0x86, 0x00, 0x20, 0x7C, 
.................... 0x3E, 0x18, 0x00, 0x71, 0x86, 0x00, 0x1C, 0x3E, 0x3C, 0x43, 0x00, 0x31, 0x84, 0x00, 0xC3, 0x3E, 
.................... 0x7C, 0x0C, 0x00, 0x11, 0x8C, 0x00, 0x38, 0x1E, 0x7C, 0x31, 0x00, 0x1D, 0x98, 0x00, 0x86, 0x1F, 
.................... 0x78, 0xC6, 0x00, 0x1F, 0xFC, 0x00, 0x63, 0x1F, 0x78, 0x18, 0x00, 0x03, 0xC0, 0x00, 0x0C, 0x1F, 
.................... 0xF8, 0x63, 0x80, 0x01, 0x80, 0x00, 0xC7, 0x0F, 0xF9, 0x8E, 0x00, 0x00, 0x00, 0x00, 0x38, 0x8F, 
.................... 0xF8, 0x38, 0x80, 0x00, 0x00, 0x01, 0x0C, 0x0F, 0xF8, 0xC3, 0x80, 0x00, 0x00, 0x00, 0xE3, 0x8F, 
.................... 0xF9, 0x8E, 0x00, 0x00, 0x00, 0x00, 0x30, 0xCF, 0xF8, 0x38, 0xF8, 0x00, 0x00, 0x1F, 0x9E, 0x0F, 
.................... 0xF8, 0xE3, 0xFE, 0x00, 0x00, 0x7F, 0xE3, 0x8F, 0xF9, 0x9F, 0xFF, 0xC0, 0x03, 0xFF, 0xF9, 0xCF, 
.................... 0x78, 0xFF, 0xFF, 0xE0, 0x07, 0xFF, 0xFF, 0x0F, 0x78, 0x1F, 0xFF, 0xE0, 0x07, 0xFF, 0xFC, 0x1F, 
.................... 0x7C, 0x07, 0xFF, 0xE0, 0x07, 0xFF, 0xE0, 0x1F, 0x7C, 0x00, 0xFF, 0xE0, 0x07, 0xFF, 0x80, 0x1E, 
.................... 0x7C, 0x00, 0x1F, 0xE0, 0x07, 0xFC, 0x00, 0x3E, 0x3E, 0x01, 0xCF, 0xE0, 0x07, 0xF3, 0x80, 0x3E, 
.................... 0x3E, 0x01, 0xFF, 0xE0, 0x03, 0xFF, 0x80, 0x7C, 0x1F, 0x01, 0xFF, 0xE0, 0x03, 0xFF, 0xC0, 0x7C, 
.................... 0x1F, 0x01, 0xFF, 0xC0, 0x03, 0xFF, 0xC0, 0xF8, 0x0F, 0x83, 0xFF, 0xC0, 0x01, 0xFF, 0xC0, 0xF8, 
.................... 0x0F, 0x83, 0xFF, 0xC0, 0x01, 0xFF, 0xC1, 0xF0, 0x07, 0xC3, 0xFF, 0x80, 0x01, 0xFF, 0xE3, 0xF0, 
.................... 0x03, 0xE3, 0xFF, 0x80, 0x01, 0xFF, 0xE7, 0xE0, 0x03, 0xF7, 0xFF, 0x80, 0x00, 0xFF, 0xEF, 0xC0, 
.................... 0x01, 0xFF, 0xFF, 0x80, 0x00, 0xFF, 0xFF, 0x80, 0x00, 0xFF, 0xFF, 0x00, 0x00, 0xFF, 0xFF, 0x80, 
.................... 0x00, 0x7F, 0xFF, 0x00, 0x00, 0xFF, 0xFF, 0x00, 0x00, 0x3F, 0xFF, 0x00, 0x00, 0xFF, 0xFE, 0x00, 
.................... 0x00, 0x1F, 0xFF, 0x00, 0x00, 0x7F, 0xF8, 0x00, 0x00, 0x0F, 0xFE, 0x00, 0x00, 0x7F, 0xF0, 0x00, 
.................... 0x00, 0x03, 0xFF, 0x00, 0x00, 0x7F, 0xE0, 0x00, 0x00, 0x00, 0xFF, 0xFC, 0x1F, 0xFF, 0x80, 0x00, 
.................... 0x00, 0x00, 0x7F, 0xFF, 0xFF, 0xFE, 0x00, 0x00, 0x00, 0x00, 0x0F, 0xFF, 0xFF, 0xF8, 0x00, 0x00, 
.................... 0x00, 0x00, 0x01, 0xFF, 0xFF, 0xC0, 0x00, 0x00, 0x00, 0x00, 0x00, 0x0F, 0xF0, 0x00, 0x00, 0x00 
.................... }; 
....................  
....................  
.................... void GLCD_XUAT_ANH(int width,int height,int x,int y)  
.................... {  
....................    unsigned int i=0, j=0, k=0;  
....................    unsigned int16 count=0;  
....................    for(j=0;j<height;j++)  
....................       {     
....................          for(;i<width;)  
....................          {  
....................             for(k=8;k>0;k--) 
....................             { 
....................                glcd_pixel(i+x,j+y,bit_test(Logo_DHSPKTTP[count],(k-1)));  
....................                i++;  
....................             }  
....................             count++;  
....................          }  
....................       i=0;  
....................       }  
.................... }  
....................  
.................... #include <graphics.c> 
.................... ///////////////////////////////////////////////////////////////////////// 
.................... ////                          graphics.c                             //// 
.................... ////                                                                 //// 
.................... ////   This file contains functions to draw lines, rectangles, bars, //// 
.................... ////   circles and text to a display. A function which draws a       //// 
.................... ////   single pixel must be defined before calling the functions in  //// 
.................... ////   this file. Call it glcd_pixel(x, y, color) where x is the     //// 
.................... ////   horizontal coordinate, y is the vertical coordinate, and      //// 
.................... ////   color is 1 bit to turn the pixel on or off.                   //// 
.................... ////                                                                 //// 
.................... ////   * Note: (0, 0) is treated as the upper left corner            //// 
.................... ////                                                                 //// 
.................... ///////////////////////////////////////////////////////////////////////// 
.................... ////                                                                 //// 
.................... ////  glcd_line(x1, y1, x2, y2, color)                               //// 
.................... ////     * Draws a line from the first point to the second point     //// 
.................... ////       with the given color                                      //// 
.................... ////       - color can be ON or OFF                                  //// 
.................... ////                                                                 //// 
.................... ////  glcd_rect(x1, y1, x2, y2, fill, color)                         //// 
.................... ////     * Draws a rectangle with one corner at point (x1,y1) and    //// 
.................... ////       the other corner at point (x2,y2)                         //// 
.................... ////       - fill can be YES or NO                                   //// 
.................... ////       - color can be ON or OFF                                  //// 
.................... ////                                                                 //// 
.................... ////  glcd_bar(x1, y1, x2, y2, width, color)                         //// 
.................... ////     * Draws a bar (wide line) from the first point to the       //// 
.................... ////       second point                                              //// 
.................... ////       - width is the number of pixels wide                      //// 
.................... ////       - color is ON or OFF                                      //// 
.................... ////                                                                 //// 
.................... ////  glcd_circle(x, y, radius, fill, color)                         //// 
.................... ////     * Draws a circle with center at (x,y)                       //// 
.................... ////       - fill can be YES or NO                                   //// 
.................... ////       - color can be ON or OFF                                  //// 
.................... ////                                                                 //// 
.................... ////  glcd_text57(x, y, textptr, size, color)                        //// 
.................... ////     * Write the null terminated text pointed to by textptr with //// 
.................... ////       the upper left coordinate of the first character at (x,y) //// 
.................... ////       Characters are 5 pixels wide and 7 pixels tall            //// 
.................... ////       - size is an integer that scales the size of the text     //// 
.................... ////       - color is ON or OFF                                      //// 
.................... ////     * Note - This function wraps characters to the next line    //// 
.................... ////              use #define GLCD_WIDTH to specify a display width  //// 
.................... ////                                                                 //// 
.................... ///////////////////////////////////////////////////////////////////////// 
.................... ////        (C) Copyright 1996, 2010 Custom Computer Services        //// 
.................... //// This source code may only be used by licensed users of the CCS  //// 
.................... //// C compiler.  This source code may only be distributed to other  //// 
.................... //// licensed users of the CCS C compiler.  No other use,            //// 
.................... //// reproduction or distribution is permitted without written       //// 
.................... //// permission.  Derivative programs created using this software    //// 
.................... //// in object code form are not restricted in any way.              //// 
.................... ///////////////////////////////////////////////////////////////////////// 
....................  
....................  
.................... ///////////////////////////////////////////////////////////////////////// 
.................... #ifndef GRAPHICS_DRAWING_FUNCTIONS 
.................... #define GRAPHICS_DRAWING_FUNCTIONS 
.................... ///////////////////////////////////////////////////////////////////////// 
....................  
....................  
.................... ///////////////////////////////////////////////////////////////////////// 
.................... #ifndef ON 
.................... #define ON  1 
.................... #endif 
....................  
.................... #ifndef OFF 
.................... #define OFF 0 
.................... #endif 
....................  
.................... #ifndef YES 
.................... #define YES 1 
.................... #endif 
....................  
.................... #ifndef NO 
.................... #define NO  0 
.................... #endif 
.................... ///////////////////////////////////////////////////////////////////////// 
....................  
....................  
.................... ///////////////////////////////////////////////////////////////////////// 
.................... //// Defines a 5x7 font 
.................... ///////////////////////////////////////////////////////////////////////// 
.................... const unsigned int8 FONT[51][5] ={0x00, 0x00, 0x00, 0x00, 0x00, // SPACE 
....................                          0x00, 0x00, 0x5F, 0x00, 0x00, // ! 
....................                          0x00, 0x03, 0x00, 0x03, 0x00, // " 
....................                          0x14, 0x3E, 0x14, 0x3E, 0x14, // # 
....................                          0x24, 0x2A, 0x7F, 0x2A, 0x12, // $ 
....................                          0x43, 0x33, 0x08, 0x66, 0x61, // % 
....................                          0x36, 0x49, 0x55, 0x22, 0x50, // & 
....................                          0x00, 0x05, 0x03, 0x00, 0x00, // ' 
....................                          0x00, 0x1C, 0x22, 0x41, 0x00, // ( 
....................                          0x00, 0x41, 0x22, 0x1C, 0x00, // ) 
....................                          0x14, 0x08, 0x3E, 0x08, 0x14, // * 
....................                          0x08, 0x08, 0x3E, 0x08, 0x08, // + 
....................                          0x00, 0x50, 0x30, 0x00, 0x00, // , 
....................                          0x08, 0x08, 0x08, 0x08, 0x08, // - 
....................                          0x00, 0x60, 0x60, 0x00, 0x00, // . 
....................                          0x20, 0x10, 0x08, 0x04, 0x02, // / 
....................                          0x3E, 0x51, 0x49, 0x45, 0x3E, // 0 
....................                          0x00, 0x04, 0x02, 0x7F, 0x00, // 1 
....................                          0x42, 0x61, 0x51, 0x49, 0x46, // 2 
....................                          0x22, 0x41, 0x49, 0x49, 0x36, // 3 
....................                          0x18, 0x14, 0x12, 0x7F, 0x10, // 4 
....................                          0x27, 0x45, 0x45, 0x45, 0x39, // 5 
....................                          0x3E, 0x49, 0x49, 0x49, 0x32, // 6 
....................                          0x01, 0x01, 0x71, 0x09, 0x07, // 7 
....................                          0x36, 0x49, 0x49, 0x49, 0x36, // 8 
....................                          0x26, 0x49, 0x49, 0x49, 0x3E, // 9 
....................                          0x00, 0x36, 0x36, 0x00, 0x00, // : 
....................                          0x00, 0x56, 0x36, 0x00, 0x00, // ; 
....................                          0x08, 0x14, 0x22, 0x41, 0x00, // < 
....................                          0x14, 0x14, 0x14, 0x14, 0x14, // = 
....................                          0x00, 0x41, 0x22, 0x14, 0x08, // > 
....................                          0x02, 0x01, 0x51, 0x09, 0x06, // ? 
....................                          0x3E, 0x41, 0x59, 0x55, 0x5E, // @ 
....................                          0x7E, 0x09, 0x09, 0x09, 0x7E, // A 
....................                          0x7F, 0x49, 0x49, 0x49, 0x36, // B 
....................                          0x3E, 0x41, 0x41, 0x41, 0x22, // C 
....................                          0x7F, 0x41, 0x41, 0x41, 0x3E, // D 
....................                          0x7F, 0x49, 0x49, 0x49, 0x41, // E 
....................                          0x7F, 0x09, 0x09, 0x09, 0x01, // F 
....................                          0x3E, 0x41, 0x41, 0x49, 0x3A, // G 
....................                          0x7F, 0x08, 0x08, 0x08, 0x7F, // H 
....................                          0x00, 0x41, 0x7F, 0x41, 0x00, // I 
....................                          0x30, 0x40, 0x40, 0x40, 0x3F, // J 
....................                          0x7F, 0x08, 0x14, 0x22, 0x41, // K 
....................                          0x7F, 0x40, 0x40, 0x40, 0x40, // L 
....................                          0x7F, 0x02, 0x0C, 0x02, 0x7F, // M 
....................                          0x7F, 0x02, 0x04, 0x08, 0x7F, // N 
....................                          0x3E, 0x41, 0x41, 0x41, 0x3E, // O 
....................                          0x7F, 0x09, 0x09, 0x09, 0x06, // P 
....................                          0x1E, 0x21, 0x21, 0x21, 0x5E, // Q 
....................                          0x7F, 0x09, 0x09, 0x09, 0x76};// R 
....................  
.................... const unsigned int8 FONT2[44][5]={0x26, 0x49, 0x49, 0x49, 0x32, // S 
....................                          0x01, 0x01, 0x7F, 0x01, 0x01, // T 
....................                          0x3F, 0x40, 0x40, 0x40, 0x3F, // U 
....................                          0x1F, 0x20, 0x40, 0x20, 0x1F, // V 
....................                          0x7F, 0x20, 0x10, 0x20, 0x7F, // W 
....................                          0x41, 0x22, 0x1C, 0x22, 0x41, // X 
....................                          0x07, 0x08, 0x70, 0x08, 0x07, // Y 
....................                          0x61, 0x51, 0x49, 0x45, 0x43, // Z 
....................                          0x00, 0x7F, 0x41, 0x00, 0x00, // [ 
....................                          0x02, 0x04, 0x08, 0x10, 0x20, // \ 
....................                          0x00, 0x00, 0x41, 0x7F, 0x00, // ] 
....................                          0x04, 0x02, 0x01, 0x02, 0x04, // ^ 
....................                          0x40, 0x40, 0x40, 0x40, 0x40, // _ 
....................                          0x00, 0x01, 0x02, 0x04, 0x00, // ` 
....................                          0x20, 0x54, 0x54, 0x54, 0x78, // a 
....................                          0x7F, 0x44, 0x44, 0x44, 0x38, // b 
....................                          0x38, 0x44, 0x44, 0x44, 0x44, // c 
....................                          0x38, 0x44, 0x44, 0x44, 0x7F, // d 
....................                          0x38, 0x54, 0x54, 0x54, 0x18, // e 
....................                          0x04, 0x04, 0x7E, 0x05, 0x05, // f 
....................                          0x08, 0x54, 0x54, 0x54, 0x3C, // g 
....................                          0x7F, 0x08, 0x04, 0x04, 0x78, // h 
....................                          0x00, 0x44, 0x7D, 0x40, 0x00, // i 
....................                          0x20, 0x40, 0x44, 0x3D, 0x00, // j 
....................                          0x7F, 0x10, 0x28, 0x44, 0x00, // k 
....................                          0x00, 0x41, 0x7F, 0x40, 0x00, // l 
....................                          0x7C, 0x04, 0x78, 0x04, 0x78, // m 
....................                          0x7C, 0x08, 0x04, 0x04, 0x78, // n 
....................                          0x38, 0x44, 0x44, 0x44, 0x38, // o 
....................                          0x7C, 0x14, 0x14, 0x14, 0x08, // p 
....................                          0x08, 0x14, 0x14, 0x14, 0x7C, // q 
....................                          0x00, 0x7C, 0x08, 0x04, 0x04, // r 
....................                          0x48, 0x54, 0x54, 0x54, 0x20, // s 
....................                          0x04, 0x04, 0x3F, 0x44, 0x44, // t 
....................                          0x3C, 0x40, 0x40, 0x20, 0x7C, // u 
....................                          0x1C, 0x20, 0x40, 0x20, 0x1C, // v 
....................                          0x3C, 0x40, 0x30, 0x40, 0x3C, // w 
....................                          0x44, 0x28, 0x10, 0x28, 0x44, // x 
....................                          0x0C, 0x50, 0x50, 0x50, 0x3C, // y 
....................                          0x44, 0x64, 0x54, 0x4C, 0x44, // z 
....................                          0x00, 0x08, 0x36, 0x41, 0x41, // { 
....................                          0x00, 0x00, 0x7F, 0x00, 0x00, // | 
....................                          0x41, 0x41, 0x36, 0x08, 0x00, // } 
....................                          0x02, 0x01, 0x02, 0x04, 0x02};// ~ 
.................... ///////////////////////////////////////////////////////////////////////// 
....................  
....................  
.................... ///////////////////////////////////////////////////////////////////////// 
.................... // Purpose:       Draw a line on a graphic LCD using Bresenham's 
.................... //                line drawing algorithm 
.................... // Inputs:        (x1, y1) - the start coordinate 
.................... //                (x2, y2) - the end coordinate 
.................... //                color - ON or OFF 
.................... // Dependencies:  glcd_pixel() 
.................... ///////////////////////////////////////////////////////////////////////// 
.................... #ifdef LARGE_LCD 
.................... void glcd_line(unsigned int16 x1, unsigned int16 y1, unsigned int16 x2, iunsigned nt16 y2, int1 color) 
.................... #else 
.................... void glcd_line(unsigned int8 x1, unsigned int8 y1, unsigned int8 x2, unsigned int8 y2, int1 color) 
.................... #endif 
*
17A6:  MOVLW  01
17A8:  MOVLB  4
17AA:  MOVWF  x74
17AC:  MOVWF  x75
17AE:  CLRF   x7A
.................... { 
....................    unsigned int16        dy, dx; 
....................    signed int8  addx=1, addy=1; 
....................    signed int16 P, diff; 
....................  
....................    #ifdef LARGE_LCD 
....................    unsigned int16 i=0; 
....................    dx = abs((signed int16)(x2 - x1)); 
....................    dy = abs((signed int16)(y2 - y1)); 
....................    #else 
....................    unsigned int8 i=0; 
....................    dx = abs((signed int8)(x2 - x1)); 
17B0:  MOVF   x6B,W
17B2:  SUBWF  x6D,W
17B4:  MOVWF  x7B
17B6:  MOVF   x7B,W
17B8:  BTFSS  x7B.7
17BA:  BRA    17C2
17BC:  MOVLW  00
17BE:  BSF    FD8.0
17C0:  SUBFWB x7B,W
17C2:  CLRF   03
17C4:  MOVWF  x72
17C6:  MOVFF  03,473
....................    dy = abs((signed int8)(y2 - y1)); 
17CA:  MOVF   x6C,W
17CC:  SUBWF  x6E,W
17CE:  MOVWF  x7B
17D0:  MOVF   x7B,W
17D2:  BTFSS  x7B.7
17D4:  BRA    17DC
17D6:  MOVLW  00
17D8:  BSF    FD8.0
17DA:  SUBFWB x7B,W
17DC:  CLRF   03
17DE:  MOVWF  x70
17E0:  MOVFF  03,471
....................    #endif 
....................  
....................    if(x1 > x2) 
17E4:  MOVF   x6B,W
17E6:  SUBWF  x6D,W
17E8:  BC    17EC
....................       addx = -1; 
17EA:  SETF   x74
....................    if(y1 > y2) 
17EC:  MOVF   x6C,W
17EE:  SUBWF  x6E,W
17F0:  BC    17F4
....................       addy = -1; 
17F2:  SETF   x75
....................  
....................    if(dx >= dy) 
17F4:  MOVF   x71,W
17F6:  SUBWF  x73,W
17F8:  BNC   186E
17FA:  BNZ   1802
17FC:  MOVF   x70,W
17FE:  SUBWF  x72,W
1800:  BNC   186E
....................    { 
....................       dy *= 2; 
1802:  BCF    FD8.0
1804:  RLCF   x70,F
1806:  RLCF   x71,F
....................       P = dy - dx; 
1808:  MOVF   x72,W
180A:  SUBWF  x70,W
180C:  MOVWF  00
180E:  MOVF   x73,W
1810:  SUBWFB x71,W
1812:  MOVFF  00,476
1816:  MOVWF  x77
....................       diff = P - dx; 
1818:  MOVF   x72,W
181A:  SUBWF  x76,W
181C:  MOVWF  x78
181E:  MOVF   x73,W
1820:  SUBWFB x77,W
1822:  MOVWF  x79
....................  
....................       for(; i<=dx; ++i) 
1824:  MOVF   x73,F
1826:  BNZ   182E
1828:  MOVF   x7A,W
182A:  SUBWF  x72,W
182C:  BNC   186C
....................       { 
....................          glcd_pixel(x1, y1, color); 
182E:  MOVFF  46B,47B
1832:  MOVFF  46C,47C
1836:  MOVFF  46F,47D
183A:  MOVLB  0
183C:  RCALL  167E
....................  
....................          if(P < 0) 
183E:  MOVLB  4
1840:  BTFSS  x77.7
1842:  BRA    1854
....................          { 
....................             P  += dy; 
1844:  MOVF   x70,W
1846:  ADDWF  x76,F
1848:  MOVF   x71,W
184A:  ADDWFC x77,F
....................             x1 += addx; 
184C:  MOVF   x74,W
184E:  ADDWF  x6B,W
1850:  MOVWF  x6B
....................          } 
1852:  BRA    1868
....................          else 
....................          { 
....................             P  += diff; 
1854:  MOVF   x78,W
1856:  ADDWF  x76,F
1858:  MOVF   x79,W
185A:  ADDWFC x77,F
....................             x1 += addx; 
185C:  MOVF   x74,W
185E:  ADDWF  x6B,W
1860:  MOVWF  x6B
....................             y1 += addy; 
1862:  MOVF   x75,W
1864:  ADDWF  x6C,W
1866:  MOVWF  x6C
....................          } 
1868:  INCF   x7A,F
186A:  BRA    1824
....................       } 
....................    } 
186C:  BRA    18D8
....................    else 
....................    { 
....................       dx *= 2; 
186E:  BCF    FD8.0
1870:  RLCF   x72,F
1872:  RLCF   x73,F
....................       P = dx - dy; 
1874:  MOVF   x70,W
1876:  SUBWF  x72,W
1878:  MOVWF  00
187A:  MOVF   x71,W
187C:  SUBWFB x73,W
187E:  MOVFF  00,476
1882:  MOVWF  x77
....................       diff = P - dy; 
1884:  MOVF   x70,W
1886:  SUBWF  x76,W
1888:  MOVWF  x78
188A:  MOVF   x71,W
188C:  SUBWFB x77,W
188E:  MOVWF  x79
....................  
....................       for(; i<=dy; ++i) 
1890:  MOVF   x71,F
1892:  BNZ   189A
1894:  MOVF   x7A,W
1896:  SUBWF  x70,W
1898:  BNC   18D8
....................       { 
....................          glcd_pixel(x1, y1, color); 
189A:  MOVFF  46B,47B
189E:  MOVFF  46C,47C
18A2:  MOVFF  46F,47D
18A6:  MOVLB  0
18A8:  RCALL  167E
....................  
....................          if(P < 0) 
18AA:  MOVLB  4
18AC:  BTFSS  x77.7
18AE:  BRA    18C0
....................          { 
....................             P  += dx; 
18B0:  MOVF   x72,W
18B2:  ADDWF  x76,F
18B4:  MOVF   x73,W
18B6:  ADDWFC x77,F
....................             y1 += addy; 
18B8:  MOVF   x75,W
18BA:  ADDWF  x6C,W
18BC:  MOVWF  x6C
....................          } 
18BE:  BRA    18D4
....................          else 
....................          { 
....................             P  += diff; 
18C0:  MOVF   x78,W
18C2:  ADDWF  x76,F
18C4:  MOVF   x79,W
18C6:  ADDWFC x77,F
....................             x1 += addx; 
18C8:  MOVF   x74,W
18CA:  ADDWF  x6B,W
18CC:  MOVWF  x6B
....................             y1 += addy; 
18CE:  MOVF   x75,W
18D0:  ADDWF  x6C,W
18D2:  MOVWF  x6C
....................          } 
18D4:  INCF   x7A,F
18D6:  BRA    1890
....................       } 
....................    } 
18D8:  MOVLB  0
18DA:  RETURN 0
.................... } 
....................  
....................  
.................... ///////////////////////////////////////////////////////////////////////// 
.................... // Purpose:       Draw a rectangle on a graphic LCD 
.................... // Inputs:        (x1, y1) - the start coordinate 
.................... //                (x2, y2) - the end coordinate 
.................... //                fill  - YES or NO 
.................... //                color - ON or OFF 
.................... // Dependencies:  glcd_pixel(), glcd_line() 
.................... ///////////////////////////////////////////////////////////////////////// 
.................... #ifdef LARGE_LCD 
.................... void glcd_rect(unsigned int16 x1, unsigned int16 y1, unsigned int16 x2, unsigned int16 y2, int1 fill, int1 color) 
.................... #else 
.................... void glcd_rect(unsigned int8 x1, unsigned int8 y1, unsigned int8 x2, unsigned int8 y2, int1 fill, int1 color) 
.................... #endif 
.................... { 
....................    if(fill) 
*
1B3A:  MOVLB  4
1B3C:  MOVF   x63,F
1B3E:  BZ    1B9C
....................    { 
....................       #ifdef LARGE_LCD 
....................       unsigned int16 i, xmin, xmax, ymin, ymax; 
....................       #else 
....................       unsigned int8  i, xmin, xmax, ymin, ymax; 
....................       #endif 
....................  
....................       if(x1 < x2)                            //  Find x min and max 
1B40:  MOVF   x61,W
1B42:  SUBWF  x5F,W
1B44:  BC    1B50
....................       { 
....................          xmin = x1; 
1B46:  MOVFF  45F,466
....................          xmax = x2; 
1B4A:  MOVFF  461,467
....................       } 
1B4E:  BRA    1B58
....................       else 
....................       { 
....................          xmin = x2; 
1B50:  MOVFF  461,466
....................          xmax = x1; 
1B54:  MOVFF  45F,467
....................       } 
....................  
....................       if(y1 < y2)                            // Find the y min and max 
1B58:  MOVF   x62,W
1B5A:  SUBWF  x60,W
1B5C:  BC    1B68
....................       { 
....................          ymin = y1; 
1B5E:  MOVFF  460,468
....................          ymax = y2; 
1B62:  MOVFF  462,469
....................       } 
1B66:  BRA    1B70
....................       else 
....................       { 
....................          ymin = y2; 
1B68:  MOVFF  462,468
....................          ymax = y1; 
1B6C:  MOVFF  460,469
....................       } 
....................  
....................       for(; xmin <= xmax; ++xmin) 
1B70:  MOVF   x66,W
1B72:  SUBWF  x67,W
1B74:  BNC   1B9A
....................       { 
....................          for(i=ymin; i<=ymax; ++i) 
1B76:  MOVFF  468,465
1B7A:  MOVF   x65,W
1B7C:  SUBWF  x69,W
1B7E:  BNC   1B96
....................          { 
....................             glcd_pixel(xmin, i, color); 
1B80:  MOVFF  466,47B
1B84:  MOVFF  465,47C
1B88:  MOVFF  464,47D
1B8C:  MOVLB  0
1B8E:  RCALL  167E
1B90:  MOVLB  4
1B92:  INCF   x65,F
1B94:  BRA    1B7A
....................          } 
1B96:  INCF   x66,F
1B98:  BRA    1B70
....................       } 
....................    } 
1B9A:  BRA    1BF8
....................    else 
....................    { 
....................       glcd_line(x1, y1, x2, y1, color);      // Draw the 4 sides 
1B9C:  MOVFF  45F,46B
1BA0:  MOVFF  460,46C
1BA4:  MOVFF  461,46D
1BA8:  MOVFF  460,46E
1BAC:  MOVFF  464,46F
1BB0:  MOVLB  0
1BB2:  RCALL  17A6
....................       glcd_line(x1, y2, x2, y2, color); 
1BB4:  MOVFF  45F,46B
1BB8:  MOVFF  462,46C
1BBC:  MOVFF  461,46D
1BC0:  MOVFF  462,46E
1BC4:  MOVFF  464,46F
1BC8:  RCALL  17A6
....................       glcd_line(x1, y1, x1, y2, color); 
1BCA:  MOVFF  45F,46B
1BCE:  MOVFF  460,46C
1BD2:  MOVFF  45F,46D
1BD6:  MOVFF  462,46E
1BDA:  MOVFF  464,46F
1BDE:  RCALL  17A6
....................       glcd_line(x2, y1, x2, y2, color); 
1BE0:  MOVFF  461,46B
1BE4:  MOVFF  460,46C
1BE8:  MOVFF  461,46D
1BEC:  MOVFF  462,46E
1BF0:  MOVFF  464,46F
1BF4:  RCALL  17A6
1BF6:  MOVLB  4
....................    } 
1BF8:  MOVLB  0
1BFA:  RETURN 0
.................... } 
....................  
.................... ///////////////////////////////////////////////////////////////////////// 
.................... // Purpose:       Draw a bar (wide line) on a graphic LCD 
.................... // Inputs:        (x1, y1) - the start coordinate 
.................... //                (x2, y2) - the end coordinate 
.................... //                width  - The number of pixels wide 
.................... //                color - ON or OFF 
.................... ///////////////////////////////////////////////////////////////////////// 
.................... #ifdef LARGE_LCD 
.................... void glcd_bar(unsigned int16 x1, unsigned int16 y1, unsigned int16 x2, unsigned int16 y2, unsigned int8 width, int1 color) 
.................... #else 
.................... void glcd_bar(unsigned int8 x1, unsigned int8 y1, unsigned int8 x2, unsigned int8 y2, unsigned int8 width, int1 color) 
.................... #endif 
.................... { 
....................    unsigned int8         half_width; 
....................    signed int16 dy, dx; 
....................    signed int8  addx=1, addy=1, j; 
....................    signed int16 P, diff, c1, c2; 
....................  
....................    #ifdef LARGE_LCD 
....................    unsigned int16 i=0; 
....................    dx = abs((signed int16)(x2 - x1)); 
....................    dy = abs((signed int16)(y2 - y1)); 
....................    #else 
....................    unsigned int8 i=0; 
....................    dx = abs((signed int8)(x2 - x1)); 
....................    dy = abs((signed int8)(y2 - y1)); 
....................    #endif 
....................  
....................    half_width = width/2; 
....................    c1 = -(dx*x1 + dy*y1); 
....................    c2 = -(dx*x2 + dy*y2); 
....................  
....................    if(x1 > x2) 
....................    { 
....................       signed int16 temp; 
....................       temp = c1; 
....................       c1 = c2; 
....................       c2 = temp; 
....................       addx = -1; 
....................    } 
....................    if(y1 > y2) 
....................    { 
....................       signed int16 temp; 
....................       temp = c1; 
....................       c1 = c2; 
....................       c2 = temp; 
....................       addy = -1; 
....................    } 
....................  
....................    if(dx >= dy) 
....................    { 
....................       P = 2*dy - dx; 
....................       diff = P - dx; 
....................  
....................       for(i=0; i<=dx; ++i) 
....................       { 
....................          for(j=-half_width; j<half_width+width%2; ++j) 
....................          { 
....................                glcd_pixel(x1, y1+j, color); 
....................          } 
....................          if(P < 0) 
....................          { 
....................             P  += 2*dy; 
....................             x1 += addx; 
....................          } 
....................          else 
....................          { 
....................             P  += diff; 
....................             x1 += addx; 
....................             y1 += addy; 
....................          } 
....................       } 
....................    } 
....................    else 
....................    { 
....................       P = 2*dx - dy; 
....................       diff = P - dy; 
....................  
....................       for(i=0; i<=dy; ++i) 
....................       { 
....................          if(P < 0) 
....................          { 
....................             P  += 2*dx; 
....................             y1 += addy; 
....................          } 
....................          else 
....................          { 
....................             P  += diff; 
....................             x1 += addx; 
....................             y1 += addy; 
....................          } 
....................          for(j=-half_width; j<half_width+width%2; ++j) 
....................          { 
....................                glcd_pixel(x1+j, y1, color); 
....................          } 
....................       } 
....................    } 
.................... } 
....................  
....................  
.................... ///////////////////////////////////////////////////////////////////////// 
.................... // Purpose:       Draw a circle on a graphic LCD 
.................... // Inputs:        (x,y) - the center of the circle 
.................... //                radius - the radius of the circle 
.................... //                fill - YES or NO 
.................... //                color - ON or OFF 
.................... ///////////////////////////////////////////////////////////////////////// 
.................... #ifdef LARGE_LCD 
.................... void glcd_circle(unsigned int16 x, unsigned int16 y, unsigned int16 radius, int1 fill, int1 color) 
.................... #else 
.................... void glcd_circle(unsigned int8 x, unsigned int8 y, unsigned int8 radius, int1 fill, int1 color) 
.................... #endif 
.................... { 
....................    #ifdef LARGE_LCD 
....................    signed int16 a, b, P; 
....................    #else 
....................    signed int8  a, b, P; 
....................    #endif 
....................  
....................    a = 0; 
*
192A:  MOVLB  4
192C:  CLRF   x64
....................    b = radius; 
192E:  MOVFF  461,465
....................    P = 1 - radius; 
1932:  MOVLW  01
1934:  BSF    FD8.0
1936:  SUBFWB x61,W
1938:  MOVWF  x66
....................  
....................    do 
....................    { 
....................       if(fill) 
193A:  MOVF   x62,F
193C:  BZ    1A00
....................       { 
....................          glcd_line(x-a, y+b, x+a, y+b, color); 
193E:  MOVF   x64,W
1940:  SUBWF  x5F,W
1942:  MOVWF  x67
1944:  MOVF   x65,W
1946:  ADDWF  x60,W
1948:  MOVWF  x68
194A:  MOVF   x64,W
194C:  ADDWF  x5F,W
194E:  MOVWF  x69
1950:  MOVF   x65,W
1952:  ADDWF  x60,W
1954:  MOVWF  x6A
1956:  MOVFF  467,46B
195A:  MOVFF  468,46C
195E:  MOVFF  469,46D
1962:  MOVWF  x6E
1964:  MOVFF  463,46F
1968:  MOVLB  0
196A:  RCALL  17A6
....................          glcd_line(x-a, y-b, x+a, y-b, color); 
196C:  MOVLB  4
196E:  MOVF   x64,W
1970:  SUBWF  x5F,W
1972:  MOVWF  x67
1974:  MOVF   x65,W
1976:  SUBWF  x60,W
1978:  MOVWF  x68
197A:  MOVF   x64,W
197C:  ADDWF  x5F,W
197E:  MOVWF  x69
1980:  MOVF   x65,W
1982:  SUBWF  x60,W
1984:  MOVWF  x6A
1986:  MOVFF  467,46B
198A:  MOVFF  468,46C
198E:  MOVFF  469,46D
1992:  MOVWF  x6E
1994:  MOVFF  463,46F
1998:  MOVLB  0
199A:  RCALL  17A6
....................          glcd_line(x-b, y+a, x+b, y+a, color); 
199C:  MOVLB  4
199E:  MOVF   x65,W
19A0:  SUBWF  x5F,W
19A2:  MOVWF  x67
19A4:  MOVF   x64,W
19A6:  ADDWF  x60,W
19A8:  MOVWF  x68
19AA:  MOVF   x65,W
19AC:  ADDWF  x5F,W
19AE:  MOVWF  x69
19B0:  MOVF   x64,W
19B2:  ADDWF  x60,W
19B4:  MOVWF  x6A
19B6:  MOVFF  467,46B
19BA:  MOVFF  468,46C
19BE:  MOVFF  469,46D
19C2:  MOVWF  x6E
19C4:  MOVFF  463,46F
19C8:  MOVLB  0
19CA:  RCALL  17A6
....................          glcd_line(x-b, y-a, x+b, y-a, color); 
19CC:  MOVLB  4
19CE:  MOVF   x65,W
19D0:  SUBWF  x5F,W
19D2:  MOVWF  x67
19D4:  MOVF   x64,W
19D6:  SUBWF  x60,W
19D8:  MOVWF  x68
19DA:  MOVF   x65,W
19DC:  ADDWF  x5F,W
19DE:  MOVWF  x69
19E0:  MOVF   x64,W
19E2:  SUBWF  x60,W
19E4:  MOVWF  x6A
19E6:  MOVFF  467,46B
19EA:  MOVFF  468,46C
19EE:  MOVFF  469,46D
19F2:  MOVWF  x6E
19F4:  MOVFF  463,46F
19F8:  MOVLB  0
19FA:  RCALL  17A6
....................       } 
19FC:  BRA    1ADE
19FE:  MOVLB  4
....................       else 
....................       { 
....................          glcd_pixel(a+x, b+y, color); 
1A00:  MOVF   x5F,W
1A02:  ADDWF  x64,W
1A04:  MOVWF  x67
1A06:  MOVF   x60,W
1A08:  ADDWF  x65,W
1A0A:  MOVWF  x68
1A0C:  MOVFF  467,47B
1A10:  MOVWF  x7C
1A12:  MOVFF  463,47D
1A16:  MOVLB  0
1A18:  RCALL  167E
....................          glcd_pixel(b+x, a+y, color); 
1A1A:  MOVLB  4
1A1C:  MOVF   x5F,W
1A1E:  ADDWF  x65,W
1A20:  MOVWF  x67
1A22:  MOVF   x60,W
1A24:  ADDWF  x64,W
1A26:  MOVWF  x68
1A28:  MOVFF  467,47B
1A2C:  MOVWF  x7C
1A2E:  MOVFF  463,47D
1A32:  MOVLB  0
1A34:  RCALL  167E
....................          glcd_pixel(x-a, b+y, color); 
1A36:  MOVLB  4
1A38:  MOVF   x64,W
1A3A:  SUBWF  x5F,W
1A3C:  MOVWF  x67
1A3E:  MOVF   x60,W
1A40:  ADDWF  x65,W
1A42:  MOVWF  x68
1A44:  MOVFF  467,47B
1A48:  MOVWF  x7C
1A4A:  MOVFF  463,47D
1A4E:  MOVLB  0
1A50:  RCALL  167E
....................          glcd_pixel(x-b, a+y, color); 
1A52:  MOVLB  4
1A54:  MOVF   x65,W
1A56:  SUBWF  x5F,W
1A58:  MOVWF  x67
1A5A:  MOVF   x60,W
1A5C:  ADDWF  x64,W
1A5E:  MOVWF  x68
1A60:  MOVFF  467,47B
1A64:  MOVWF  x7C
1A66:  MOVFF  463,47D
1A6A:  MOVLB  0
1A6C:  RCALL  167E
....................          glcd_pixel(b+x, y-a, color); 
1A6E:  MOVLB  4
1A70:  MOVF   x5F,W
1A72:  ADDWF  x65,W
1A74:  MOVWF  x67
1A76:  MOVF   x64,W
1A78:  SUBWF  x60,W
1A7A:  MOVWF  x68
1A7C:  MOVFF  467,47B
1A80:  MOVWF  x7C
1A82:  MOVFF  463,47D
1A86:  MOVLB  0
1A88:  RCALL  167E
....................          glcd_pixel(a+x, y-b, color); 
1A8A:  MOVLB  4
1A8C:  MOVF   x5F,W
1A8E:  ADDWF  x64,W
1A90:  MOVWF  x67
1A92:  MOVF   x65,W
1A94:  SUBWF  x60,W
1A96:  MOVWF  x68
1A98:  MOVFF  467,47B
1A9C:  MOVWF  x7C
1A9E:  MOVFF  463,47D
1AA2:  MOVLB  0
1AA4:  RCALL  167E
....................          glcd_pixel(x-a, y-b, color); 
1AA6:  MOVLB  4
1AA8:  MOVF   x64,W
1AAA:  SUBWF  x5F,W
1AAC:  MOVWF  x67
1AAE:  MOVF   x65,W
1AB0:  SUBWF  x60,W
1AB2:  MOVWF  x68
1AB4:  MOVFF  467,47B
1AB8:  MOVWF  x7C
1ABA:  MOVFF  463,47D
1ABE:  MOVLB  0
1AC0:  RCALL  167E
....................          glcd_pixel(x-b, y-a, color); 
1AC2:  MOVLB  4
1AC4:  MOVF   x65,W
1AC6:  SUBWF  x5F,W
1AC8:  MOVWF  x67
1ACA:  MOVF   x64,W
1ACC:  SUBWF  x60,W
1ACE:  MOVWF  x68
1AD0:  MOVFF  467,47B
1AD4:  MOVWF  x7C
1AD6:  MOVFF  463,47D
1ADA:  MOVLB  0
1ADC:  RCALL  167E
....................       } 
....................  
....................       if(P < 0) 
1ADE:  MOVLB  4
1AE0:  BTFSS  x66.7
1AE2:  BRA    1B00
....................          P += 3 + 2 * a++; 
1AE4:  MOVF   x64,W
1AE6:  INCF   x64,F
1AE8:  MOVWF  x67
1AEA:  MOVLW  02
1AEC:  MOVWF  x68
1AEE:  MOVFF  467,469
1AF2:  MOVLB  0
1AF4:  RCALL  18DC
1AF6:  MOVF   01,W
1AF8:  ADDLW  03
1AFA:  MOVLB  4
1AFC:  ADDWF  x66,F
1AFE:  BRA    1B22
....................       else 
....................          P += 5 + 2 * (a++ - b--); 
1B00:  MOVF   x64,W
1B02:  INCF   x64,F
1B04:  MOVWF  x67
1B06:  MOVF   x65,W
1B08:  DECF   x65,F
1B0A:  SUBWF  x67,W
1B0C:  MOVWF  x67
1B0E:  MOVLW  02
1B10:  MOVWF  x68
1B12:  MOVFF  467,469
1B16:  MOVLB  0
1B18:  RCALL  18DC
1B1A:  MOVF   01,W
1B1C:  ADDLW  05
1B1E:  MOVLB  4
1B20:  ADDWF  x66,F
....................     } while(a <= b); 
1B22:  MOVF   x64,W
1B24:  XORLW  80
1B26:  MOVWF  00
1B28:  MOVF   x65,W
1B2A:  XORLW  80
1B2C:  SUBWF  00,W
1B2E:  BTFSC  FD8.2
1B30:  BRA    193A
1B32:  BTFSS  FD8.0
1B34:  BRA    193A
1B36:  MOVLB  0
1B38:  RETURN 0
.................... } 
....................  
....................  
.................... ///////////////////////////////////////////////////////////////////////// 
.................... // Purpose:       Write text on a graphic LCD 
.................... // Inputs:        (x,y) - The upper left coordinate of the first letter 
.................... //                textptr - A pointer to an array of text to display 
.................... //                size - The size of the text: 1 = 5x7, 2 = 10x14, ... 
.................... //                color - ON or OFF 
.................... ///////////////////////////////////////////////////////////////////////// 
.................... #ifdef LARGE_LCD 
.................... void glcd_text57(unsigned int16 x, unsigned int16 y, char* textptr, unsigned int8 size, int1 color) 
.................... #else 
.................... void glcd_text57(unsigned int8 x, unsigned int8 y, char* textptr, unsigned int8 size, int1 color) 
.................... #endif 
.................... { 
....................    unsigned int8 j, k, l, m;                       // Loop counters 
....................    unsigned int8 pixelData[5];                     // Stores character data 
....................  
....................    for(; *textptr != '\0'; ++textptr, ++x)// Loop through the passed string 
....................    { 
....................       if(*textptr < 'S') // Checks if the letter is in the first font array 
....................          memcpy(pixelData, FONT[*textptr - ' '], 5); 
....................       else if(*textptr <= '~') // Check if the letter is in the second font array 
....................          memcpy(pixelData, FONT2[*textptr - 'S'], 5); 
....................       else 
....................          memcpy(pixelData, FONT[0], 5);   // Default to space 
....................  
....................       // Handles newline and carriage returns 
....................       switch(*textptr) 
....................       { 
....................          case '\n': 
....................             y += 7*size + 1; 
....................             continue; 
....................          case '\r': 
....................             x = 0; 
....................             continue; 
....................       } 
....................  
....................       if(x+5*size >= GLCD_WIDTH)          // Performs character wrapping 
....................       { 
....................          x = 0;                           // Set x at far left position 
....................          y += 7*size + 1;                 // Set y at next position down 
....................       } 
....................       for(j=0; j<5; ++j, x+=size)         // Loop through character byte data 
....................       { 
....................          for(k=0; k < 7; ++k)             // Loop through the vertical pixels 
....................          { 
....................             if(bit_test(pixelData[j], k)) // Check if the pixel should be set 
....................             { 
....................                for(l=0; l < size; ++l)    // These two loops change the 
....................                {                          // character's size 
....................                   for(m=0; m < size; ++m) 
....................                   { 
....................                      glcd_pixel(x+m, y+k*size+l, color); // Draws the pixel 
....................                   } 
....................                } 
....................             } 
....................          } 
....................       } 
....................    } 
.................... } 
....................  
.................... #endif 
....................  
....................  
.................... UNSIGNED INT8     j, solan=100;  
.................... float  lm35a; 
.................... int16 KQ_HT; 
.................... int16 TP_CH_35,TP_DV_35,DV_35,CH_35;//lm35 
.................... int16 TP_NG,TP_CH,TP_DV,DV,CH;//DS18b20 
.................... int1 TT_HINH = 0; 
....................  
.................... void hienthi_glcd() 
*
151A:  CLRF   16
151C:  BTFSC  FF2.7
151E:  BSF    16.7
1520:  BCF    FF2.7
.................... { 
....................    glcd_command(glcd_text_mode); 
1522:  MOVLW  30
1524:  MOVLB  4
1526:  MOVWF  x85
1528:  MOVLB  0
152A:  CALL   028E
152E:  BTFSC  16.7
1530:  BSF    FF2.7
1532:  CLRF   16
1534:  BTFSC  FF2.7
1536:  BSF    16.7
1538:  BCF    FF2.7
....................    glcd_command (glcd_addr_line1+1);//NGUYEN LM35 
153A:  MOVLW  81
153C:  MOVLB  4
153E:  MOVWF  x85
1540:  MOVLB  0
1542:  CALL   028E
1546:  BTFSC  16.7
1548:  BSF    FF2.7
154A:  CLRF   16
154C:  BTFSC  FF2.7
154E:  BSF    16.7
1550:  BCF    FF2.7
....................    glcd_data (CH_35 ); 
1552:  MOVFF  451,487
1556:  CALL   02BA
155A:  BTFSC  16.7
155C:  BSF    FF2.7
155E:  CLRF   16
1560:  BTFSC  FF2.7
1562:  BSF    16.7
1564:  BCF    FF2.7
....................    glcd_data (DV_35 ); 
1566:  MOVFF  44F,487
156A:  CALL   02BA
156E:  BTFSC  16.7
1570:  BSF    FF2.7
1572:  CLRF   16
1574:  BTFSC  FF2.7
1576:  BSF    16.7
1578:  BCF    FF2.7
....................     
....................    glcd_command(glcd_text_mode);// NGUYEN DS18B20 
157A:  MOVLW  30
157C:  MOVLB  4
157E:  MOVWF  x85
1580:  MOVLB  0
1582:  CALL   028E
1586:  BTFSC  16.7
1588:  BSF    FF2.7
158A:  CLRF   16
158C:  BTFSC  FF2.7
158E:  BSF    16.7
1590:  BCF    FF2.7
....................    glcd_command (glcd_addr_line1+6); 
1592:  MOVLW  86
1594:  MOVLB  4
1596:  MOVWF  x85
1598:  MOVLB  0
159A:  CALL   028E
159E:  BTFSC  16.7
15A0:  BSF    FF2.7
15A2:  CLRF   16
15A4:  BTFSC  FF2.7
15A6:  BSF    16.7
15A8:  BCF    FF2.7
....................    glcd_data (CH ); 
15AA:  MOVFF  45B,487
15AE:  CALL   02BA
15B2:  BTFSC  16.7
15B4:  BSF    FF2.7
15B6:  CLRF   16
15B8:  BTFSC  FF2.7
15BA:  BSF    16.7
15BC:  BCF    FF2.7
....................    glcd_data (DV ); 
15BE:  MOVFF  459,487
15C2:  CALL   02BA
15C6:  BTFSC  16.7
15C8:  BSF    FF2.7
15CA:  CLRF   16
15CC:  BTFSC  FF2.7
15CE:  BSF    16.7
15D0:  BCF    FF2.7
....................     
....................    glcd_command(glcd_text_mode);//TP LM35 
15D2:  MOVLW  30
15D4:  MOVLB  4
15D6:  MOVWF  x85
15D8:  MOVLB  0
15DA:  CALL   028E
15DE:  BTFSC  16.7
15E0:  BSF    FF2.7
15E2:  CLRF   16
15E4:  BTFSC  FF2.7
15E6:  BSF    16.7
15E8:  BCF    FF2.7
....................    glcd_command (glcd_addr_line4 +1); 
15EA:  MOVLW  99
15EC:  MOVLB  4
15EE:  MOVWF  x85
15F0:  MOVLB  0
15F2:  CALL   028E
15F6:  BTFSC  16.7
15F8:  BSF    FF2.7
15FA:  CLRF   16
15FC:  BTFSC  FF2.7
15FE:  BSF    16.7
1600:  BCF    FF2.7
....................    glcd_data (TP_CH_35); 
1602:  MOVFF  44B,487
1606:  CALL   02BA
160A:  BTFSC  16.7
160C:  BSF    FF2.7
160E:  CLRF   16
1610:  BTFSC  FF2.7
1612:  BSF    16.7
1614:  BCF    FF2.7
....................    glcd_data (TP_DV_35); 
1616:  MOVFF  44D,487
161A:  CALL   02BA
161E:  BTFSC  16.7
1620:  BSF    FF2.7
1622:  CLRF   16
1624:  BTFSC  FF2.7
1626:  BSF    16.7
1628:  BCF    FF2.7
....................      
....................    glcd_command(glcd_text_mode);//TP DS18B20 
162A:  MOVLW  30
162C:  MOVLB  4
162E:  MOVWF  x85
1630:  MOVLB  0
1632:  CALL   028E
1636:  BTFSC  16.7
1638:  BSF    FF2.7
163A:  CLRF   16
163C:  BTFSC  FF2.7
163E:  BSF    16.7
1640:  BCF    FF2.7
....................    glcd_command (glcd_addr_line4 + 6); 
1642:  MOVLW  9E
1644:  MOVLB  4
1646:  MOVWF  x85
1648:  MOVLB  0
164A:  CALL   028E
164E:  BTFSC  16.7
1650:  BSF    FF2.7
1652:  CLRF   16
1654:  BTFSC  FF2.7
1656:  BSF    16.7
1658:  BCF    FF2.7
....................    glcd_data (TP_NG ); 
165A:  MOVFF  453,487
165E:  CALL   02BA
1662:  BTFSC  16.7
1664:  BSF    FF2.7
1666:  CLRF   16
1668:  BTFSC  FF2.7
166A:  BSF    16.7
166C:  BCF    FF2.7
....................    glcd_data (TP_CH ); 
166E:  MOVFF  455,487
1672:  CALL   02BA
1676:  BTFSC  16.7
1678:  BSF    FF2.7
167A:  GOTO   1D34 (RETURN)
.................... } 
....................  
.................... // Ngat 8 led quet 
.................... VOID HIEN_THI_8LED_7DOAN_QUET_ALL1() 
.................... {      
....................       FOR(TT8LED=0;TT8LED<8;TT8LED++)          
*
03A8:  CLRF   2C
03AA:  MOVF   2C,W
03AC:  SUBLW  07
03AE:  BNC   03EA
....................          {            
....................             XUAT_8LED_7DOAN_QUET_2(TT8LED, LED_7DQ[TT8LED]); 
03B0:  CLRF   03
03B2:  MOVF   2C,W
03B4:  ADDLW  24
03B6:  MOVWF  FE9
03B8:  MOVLW  00
03BA:  ADDWFC 03,W
03BC:  MOVWF  FEA
03BE:  MOVFF  FEF,484
03C2:  MOVFF  2C,485
03C6:  MOVFF  484,486
03CA:  RCALL  0164
....................             DELAY_US(900); 
03CC:  MOVLW  04
03CE:  MOVLB  4
03D0:  MOVWF  x84
03D2:  MOVLW  E0
03D4:  MOVWF  x85
03D6:  MOVLB  0
03D8:  RCALL  01AA
03DA:  MOVLB  4
03DC:  DECFSZ x84,F
03DE:  BRA    03D2
....................             XUAT_8LED_7DOAN_QUET_TAT_LED();   
03E0:  MOVLB  0
03E2:  RCALL  01FC
....................             gdram_vdk_to_gdram_glcd_all(); 
03E4:  RCALL  02C4
03E6:  INCF   2C,F
03E8:  BRA    03AA
....................          } 
03EA:  RETURN 0
.................... } 
....................  
.................... #INT_timer3 
....................  
.................... void NGAT_TIMER3 () 
.................... { 
....................    hien_thi_8led_7doan_quet_all1 (); 
03EC:  RCALL  03A8
....................    gdram_vdk_to_gdram_glcd_all(); 
03EE:  RCALL  02C4
....................    set_timer3 (-6000); 
03F0:  MOVLW  E8
03F2:  MOVWF  FB3
03F4:  MOVLW  90
03F6:  MOVWF  FB2
03F8:  BCF    FA1.1
03FA:  GOTO   0054
.................... } 
.................... // END ngat 8 led quet 
....................  
.................... void giai_ma_gan_cho_8led_quet() 
.................... { 
....................    led_7dq[0] = ma7doan [GIAY_DS13 % 16]; 
*
108E:  MOVF   3B,W
1090:  ANDLW  0F
1092:  CLRF   03
1094:  MOVFF  FF2,45F
1098:  BCF    FF2.7
109A:  CALL   0096
109E:  MOVLB  4
10A0:  BTFSC  x5F.7
10A2:  BSF    FF2.7
10A4:  MOVWF  24
....................    led_7dq[1] = ma7doan [GIAY_DS13 / 16]; 
10A6:  SWAPF  3B,W
10A8:  MOVWF  00
10AA:  MOVLW  0F
10AC:  ANDWF  00,F
10AE:  MOVF   00,W
10B0:  CLRF   03
10B2:  MOVFF  FF2,45F
10B6:  BCF    FF2.7
10B8:  MOVLB  0
10BA:  CALL   0096
10BE:  MOVLB  4
10C0:  BTFSC  x5F.7
10C2:  BSF    FF2.7
10C4:  MOVWF  25
....................    led_7dq[2] = 0XBF; 
10C6:  MOVLW  BF
10C8:  MOVWF  26
....................    led_7dq[3] = ma7doan [nguyen % 10 ]; 
10CA:  MOVFF  32,460
10CE:  MOVLW  0A
10D0:  MOVWF  x61
10D2:  MOVLB  0
10D4:  RCALL  101C
10D6:  CLRF   03
10D8:  MOVF   00,W
10DA:  MOVFF  FF2,45F
10DE:  BCF    FF2.7
10E0:  CALL   0096
10E4:  MOVLB  4
10E6:  BTFSC  x5F.7
10E8:  BSF    FF2.7
10EA:  MOVWF  27
....................    led_7dq[4] = ma7doan [nguyen / 10 ]; 
10EC:  MOVFF  32,460
10F0:  MOVLW  0A
10F2:  MOVWF  x61
10F4:  MOVLB  0
10F6:  RCALL  101C
10F8:  CLRF   03
10FA:  MOVF   01,W
10FC:  MOVFF  FF2,45F
1100:  BCF    FF2.7
1102:  CALL   0096
1106:  MOVLB  4
1108:  BTFSC  x5F.7
110A:  BSF    FF2.7
110C:  MOVWF  28
....................    led_7dq[5] = 0XBF; 
110E:  MOVLW  BF
1110:  MOVWF  29
....................    led_7dq[6] = ma7doan [KQ_HT / 100 % 10]; 
1112:  MOVFF  44A,462
1116:  MOVFF  449,461
111A:  CLRF   x64
111C:  MOVLW  64
111E:  MOVWF  x63
1120:  MOVLB  0
1122:  RCALL  1048
1124:  MOVFF  02,460
1128:  MOVFF  01,45F
112C:  MOVFF  02,462
1130:  MOVFF  01,461
1134:  MOVLB  4
1136:  CLRF   x64
1138:  MOVLW  0A
113A:  MOVWF  x63
113C:  MOVLB  0
113E:  RCALL  1048
1140:  MOVFF  00,45F
1144:  MOVLB  4
1146:  MOVFF  03,460
114A:  MOVFF  03,03
114E:  MOVF   00,W
1150:  MOVFF  FF2,461
1154:  BCF    FF2.7
1156:  MOVLB  0
1158:  CALL   0096
115C:  MOVLB  4
115E:  BTFSC  x61.7
1160:  BSF    FF2.7
1162:  MOVWF  2A
....................    led_7dq[7] = ma7doan [KQ_HT / 100 / 10 % 10 ]; 
1164:  MOVFF  44A,462
1168:  MOVFF  449,461
116C:  CLRF   x64
116E:  MOVLW  64
1170:  MOVWF  x63
1172:  MOVLB  0
1174:  RCALL  1048
1176:  MOVFF  02,460
117A:  MOVFF  01,45F
117E:  MOVFF  02,462
1182:  MOVFF  01,461
1186:  MOVLB  4
1188:  CLRF   x64
118A:  MOVLW  0A
118C:  MOVWF  x63
118E:  MOVLB  0
1190:  RCALL  1048
1192:  MOVFF  02,460
1196:  MOVFF  01,45F
119A:  MOVFF  02,462
119E:  MOVFF  01,461
11A2:  MOVLB  4
11A4:  CLRF   x64
11A6:  MOVLW  0A
11A8:  MOVWF  x63
11AA:  MOVLB  0
11AC:  RCALL  1048
11AE:  MOVFF  00,45F
11B2:  MOVLB  4
11B4:  MOVFF  03,460
11B8:  MOVFF  03,03
11BC:  MOVF   00,W
11BE:  MOVFF  FF2,461
11C2:  BCF    FF2.7
11C4:  MOVLB  0
11C6:  CALL   0096
11CA:  MOVLB  4
11CC:  BTFSC  x61.7
11CE:  BSF    FF2.7
11D0:  MOVWF  2B
11D2:  MOVLB  0
11D4:  RETURN 0
.................... } 
.................... void giaima_lcd_lm35() 
.................... { 
....................    TP_DV_35 = KQ_HT%10 +0x30; 
*
12EC:  MOVFF  44A,462
12F0:  MOVFF  449,461
12F4:  MOVLB  4
12F6:  CLRF   x64
12F8:  MOVLW  0A
12FA:  MOVWF  x63
12FC:  MOVLB  0
12FE:  RCALL  1048
1300:  MOVLB  4
1302:  MOVLW  30
1304:  ADDWF  00,W
1306:  MOVWF  x4D
1308:  MOVLW  00
130A:  ADDWFC 03,W
130C:  MOVWF  x4E
....................    TP_CH_35 = KQ_HT/10%10+0x30; 
130E:  MOVFF  44A,462
1312:  MOVFF  449,461
1316:  CLRF   x64
1318:  MOVLW  0A
131A:  MOVWF  x63
131C:  MOVLB  0
131E:  RCALL  1048
1320:  MOVFF  02,460
1324:  MOVFF  01,45F
1328:  MOVFF  02,462
132C:  MOVFF  01,461
1330:  MOVLB  4
1332:  CLRF   x64
1334:  MOVLW  0A
1336:  MOVWF  x63
1338:  MOVLB  0
133A:  RCALL  1048
133C:  MOVLB  4
133E:  MOVLW  30
1340:  ADDWF  00,W
1342:  MOVWF  x4B
1344:  MOVLW  00
1346:  ADDWFC 03,W
1348:  MOVWF  x4C
....................    DV_35 = KQ_HT/100%10+0x30; 
134A:  MOVFF  44A,462
134E:  MOVFF  449,461
1352:  CLRF   x64
1354:  MOVLW  64
1356:  MOVWF  x63
1358:  MOVLB  0
135A:  RCALL  1048
135C:  MOVFF  02,460
1360:  MOVFF  01,45F
1364:  MOVFF  02,462
1368:  MOVFF  01,461
136C:  MOVLB  4
136E:  CLRF   x64
1370:  MOVLW  0A
1372:  MOVWF  x63
1374:  MOVLB  0
1376:  RCALL  1048
1378:  MOVLB  4
137A:  MOVLW  30
137C:  ADDWF  00,W
137E:  MOVWF  x4F
1380:  MOVLW  00
1382:  ADDWFC 03,W
1384:  MOVWF  x50
....................    CH_35 = KQ_HT/1000+0x30; 
1386:  MOVFF  44A,462
138A:  MOVFF  449,461
138E:  MOVLW  03
1390:  MOVWF  x64
1392:  MOVLW  E8
1394:  MOVWF  x63
1396:  MOVLB  0
1398:  RCALL  1048
139A:  MOVLW  30
139C:  MOVLB  4
139E:  ADDWF  01,W
13A0:  MOVWF  x51
13A2:  MOVLW  00
13A4:  ADDWFC 02,W
13A6:  MOVWF  x52
13A8:  MOVLB  0
13AA:  GOTO   1D24 (RETURN)
.................... } 
....................  
.................... void hienthi_lcd_lm35() 
.................... { 
....................    lcd_GOTO_xy(0,0); 
*
140C:  MOVLB  4
140E:  CLRF   x5F
1410:  CLRF   x60
1412:  MOVLB  0
1414:  RCALL  13AE
....................    lcd_data("LM35: "); 
1416:  MOVLW  FE
1418:  MOVWF  FF6
141A:  MOVLW  03
141C:  MOVWF  FF7
141E:  RCALL  13EC
....................    lcd_data(CH_35);lcd_data(DV_35); 
1420:  MOVFF  451,461
1424:  RCALL  13D4
1426:  MOVFF  44F,461
142A:  RCALL  13D4
....................    lcd_data('.'); 
142C:  MOVLW  2E
142E:  MOVLB  4
1430:  MOVWF  x61
1432:  MOVLB  0
1434:  RCALL  13D4
....................    lcd_data(TP_CH_35);lcd_data(TP_DV_35); 
1436:  MOVFF  44B,461
143A:  RCALL  13D4
143C:  MOVFF  44D,461
1440:  RCALL  13D4
1442:  GOTO   1D28 (RETURN)
.................... } 
....................  
.................... ///// 
.................... void giaima_lcd_ds18b20() 
.................... { 
....................    TP_DV = tp%10 +0x30; 
1446:  MOVFF  33,460
144A:  MOVLW  0A
144C:  MOVLB  4
144E:  MOVWF  x61
1450:  MOVLB  0
1452:  RCALL  101C
1454:  MOVLW  30
1456:  ADDWF  00,W
1458:  MOVLB  4
145A:  MOVWF  x57
145C:  CLRF   x58
....................    TP_CH = tp/10%10+0x30; 
145E:  MOVFF  33,460
1462:  MOVLW  0A
1464:  MOVWF  x61
1466:  MOVLB  0
1468:  RCALL  101C
146A:  MOVFF  01,460
146E:  MOVLW  0A
1470:  MOVLB  4
1472:  MOVWF  x61
1474:  MOVLB  0
1476:  RCALL  101C
1478:  MOVLW  30
147A:  ADDWF  00,W
147C:  MOVLB  4
147E:  MOVWF  x55
1480:  CLRF   x56
....................    TP_NG = tp/100 +0x30; 
1482:  MOVFF  33,460
1486:  MOVLW  64
1488:  MOVWF  x61
148A:  MOVLB  0
148C:  RCALL  101C
148E:  MOVLW  30
1490:  ADDWF  01,W
1492:  MOVLB  4
1494:  MOVWF  x53
1496:  CLRF   x54
....................    DV = nguyen%10+0x30; 
1498:  MOVFF  32,460
149C:  MOVLW  0A
149E:  MOVWF  x61
14A0:  MOVLB  0
14A2:  RCALL  101C
14A4:  MOVLW  30
14A6:  ADDWF  00,W
14A8:  MOVLB  4
14AA:  MOVWF  x59
14AC:  CLRF   x5A
....................    CH = nguyen/10%10+0x30; 
14AE:  MOVFF  32,460
14B2:  MOVLW  0A
14B4:  MOVWF  x61
14B6:  MOVLB  0
14B8:  RCALL  101C
14BA:  MOVFF  01,460
14BE:  MOVLW  0A
14C0:  MOVLB  4
14C2:  MOVWF  x61
14C4:  MOVLB  0
14C6:  RCALL  101C
14C8:  MOVLW  30
14CA:  ADDWF  00,W
14CC:  MOVLB  4
14CE:  MOVWF  x5B
14D0:  CLRF   x5C
14D2:  MOVLB  0
14D4:  GOTO   1D2C (RETURN)
.................... } 
....................  
.................... void hienthi_lcd_ds18b20() 
.................... { 
....................    lcd_GOTO_xy(1,0); 
14D8:  MOVLW  01
14DA:  MOVLB  4
14DC:  MOVWF  x5F
14DE:  CLRF   x60
14E0:  MOVLB  0
14E2:  RCALL  13AE
....................    lcd_data("DS18B20: "); 
14E4:  MOVLW  06
14E6:  MOVWF  FF6
14E8:  MOVLW  04
14EA:  MOVWF  FF7
14EC:  RCALL  13EC
....................    lcd_data(CH);lcd_data(DV); 
14EE:  MOVFF  45B,461
14F2:  RCALL  13D4
14F4:  MOVFF  459,461
14F8:  RCALL  13D4
....................    lcd_data('.'); 
14FA:  MOVLW  2E
14FC:  MOVLB  4
14FE:  MOVWF  x61
1500:  MOVLB  0
1502:  RCALL  13D4
....................    lcd_data(TP_NG);lcd_data(TP_CH);lcd_data(TP_DV); 
1504:  MOVFF  453,461
1508:  RCALL  13D4
150A:  MOVFF  455,461
150E:  RCALL  13D4
1510:  MOVFF  457,461
1514:  RCALL  13D4
1516:  GOTO   1D30 (RETURN)
.................... } 
....................  
.................... void doc_nd_lm35a() 
.................... { 
....................    set_adc_channel (0); lm35a = 0; 
*
0EF2:  MOVLW  00
0EF4:  MOVWF  01
0EF6:  MOVF   FC2,W
0EF8:  ANDLW  C3
0EFA:  IORWF  01,W
0EFC:  MOVWF  FC2
0EFE:  MOVLB  4
0F00:  CLRF   x48
0F02:  CLRF   x47
0F04:  CLRF   x46
0F06:  CLRF   x45
....................    FOR (j = 0; j < solan; j++) 
0F08:  CLRF   x43
0F0A:  MOVF   x44,W
0F0C:  SUBWF  x43,W
0F0E:  BC    0F6A
....................    { 
....................       lm35a = lm35a + read_adc () ; 
0F10:  BSF    FC2.1
0F12:  BTFSC  FC2.1
0F14:  BRA    0F12
0F16:  MOVFF  FC4,03
0F1A:  MOVFF  FC3,45F
0F1E:  MOVFF  FC4,460
0F22:  MOVLB  0
0F24:  RCALL  09AE
0F26:  BCF    FD8.1
0F28:  MOVFF  448,462
0F2C:  MOVFF  447,461
0F30:  MOVFF  446,460
0F34:  MOVFF  445,45F
0F38:  MOVFF  03,466
0F3C:  MOVFF  02,465
0F40:  MOVFF  01,464
0F44:  MOVFF  00,463
0F48:  BRA    09E4
0F4A:  MOVFF  03,448
0F4E:  MOVFF  02,447
0F52:  MOVFF  01,446
0F56:  MOVFF  00,445
....................       delay_us (100); 
0F5A:  MOVLW  A6
0F5C:  MOVWF  00
0F5E:  DECFSZ 00,F
0F60:  BRA    0F5E
0F62:  NOP   
0F64:  MOVLB  4
0F66:  INCF   x43,F
0F68:  BRA    0F0A
....................    } 
....................  
....................    lm35a = lm35a / 2.046; 
0F6A:  MOVFF  448,462
0F6E:  MOVFF  447,461
0F72:  MOVFF  446,460
0F76:  MOVFF  445,45F
0F7A:  MOVLW  AA
0F7C:  MOVWF  x66
0F7E:  MOVLW  F1
0F80:  MOVWF  x65
0F82:  MOVLW  02
0F84:  MOVWF  x64
0F86:  MOVLW  80
0F88:  MOVWF  x63
0F8A:  MOVLB  0
0F8C:  RCALL  0C5E
0F8E:  MOVFF  03,448
0F92:  MOVFF  02,447
0F96:  MOVFF  01,446
0F9A:  MOVFF  00,445
....................    lm35a = lm35a / solan; 
0F9E:  MOVLB  4
0FA0:  CLRF   x60
0FA2:  MOVFF  444,45F
0FA6:  MOVLB  0
0FA8:  RCALL  09AE
0FAA:  MOVFF  448,462
0FAE:  MOVFF  447,461
0FB2:  MOVFF  446,460
0FB6:  MOVFF  445,45F
0FBA:  MOVFF  03,466
0FBE:  MOVFF  02,465
0FC2:  MOVFF  01,464
0FC6:  MOVFF  00,463
0FCA:  RCALL  0C5E
0FCC:  MOVFF  03,448
0FD0:  MOVFF  02,447
0FD4:  MOVFF  01,446
0FD8:  MOVFF  00,445
....................    KQ_HT = (INT16) (LM35A * 100); 
0FDC:  MOVFF  448,462
0FE0:  MOVFF  447,461
0FE4:  MOVFF  446,460
0FE8:  MOVFF  445,45F
0FEC:  MOVLB  4
0FEE:  CLRF   x66
0FF0:  CLRF   x65
0FF2:  MOVLW  48
0FF4:  MOVWF  x64
0FF6:  MOVLW  85
0FF8:  MOVWF  x63
0FFA:  MOVLB  0
0FFC:  BRA    0DBC
0FFE:  MOVFF  03,462
1002:  MOVFF  02,461
1006:  MOVFF  01,460
100A:  MOVFF  00,45F
100E:  BRA    0EB4
1010:  MOVFF  02,44A
1014:  MOVFF  01,449
1018:  GOTO   1CD0 (RETURN)
.................... } 
....................  
.................... VOID TRON_VUONG() 
.................... { 
....................    IF (!INPUT(BT0)) 
*
1BFC:  BSF    F93.5
1BFE:  BTFSC  F81.5
1C00:  BRA    1C1E
....................    { 
....................       DELAY_MS(20); 
1C02:  MOVLW  14
1C04:  MOVLB  4
1C06:  MOVWF  x60
1C08:  MOVLB  0
1C0A:  CALL   047E
....................       IF (!INPUT(BT0)) 
1C0E:  BSF    F93.5
1C10:  BTFSC  F81.5
1C12:  BRA    1C1E
....................       { 
....................          TT_HINH = ~TT_HINH; 
1C14:  MOVLB  4
1C16:  BTG    x5D.0
....................          WHILE (!INPUT(BT0)); 
1C18:  BSF    F93.5
1C1A:  BTFSS  F81.5
1C1C:  BRA    1C18
1C1E:  MOVLB  0
....................       } 
....................    } 
1C20:  GOTO   1DF0 (RETURN)
.................... } 
....................  
.................... void main() 
1C24:  CLRF   FF8
1C26:  BCF    FD0.7
1C28:  BSF    07.7
1C2A:  CLRF   19
1C2C:  CLRF   20
1C2E:  CLRF   21
1C30:  CLRF   22
1C32:  CLRF   23
1C34:  CLRF   2C
1C36:  MOVLW  64
1C38:  MOVLB  4
1C3A:  MOVWF  x44
1C3C:  BCF    x5D.0
1C3E:  MOVF   FC1,W
1C40:  ANDLW  C0
1C42:  IORLW  0F
1C44:  MOVWF  FC1
1C46:  MOVLW  07
1C48:  MOVWF  FB4
1C4A:  SETF   24
1C4C:  SETF   25
1C4E:  SETF   26
1C50:  SETF   27
1C52:  SETF   28
1C54:  SETF   29
1C56:  SETF   2A
1C58:  SETF   2B
.................... { 
....................    set_up_port_ic_chot (); 
1C5A:  MOVLB  0
1C5C:  GOTO   0410
....................    setup_adc (adc_clock_div_32); 
1C60:  MOVF   FC0,W
1C62:  ANDLW  C0
1C64:  IORLW  02
1C66:  MOVWF  FC0
1C68:  BSF    FC0.7
1C6A:  BSF    FC2.0
....................    setup_adc_ports (an0_to_an1|vss_vdd); 
1C6C:  MOVF   FC1,W
1C6E:  ANDLW  C0
1C70:  IORLW  0D
1C72:  MOVWF  FC1
....................    setup_lcd (); 
1C74:  GOTO   04A6
....................    khoi_tao_ds18b20 (); 
1C78:  GOTO   061E
....................     
....................    //khoi tao ngat 
....................    setup_timer_3 (T3_internal|T3_div_by_8); 
1C7C:  MOVLW  B5
1C7E:  MOVWF  FB1
....................    set_timer3 (-6000); 
1C80:  MOVLW  E8
1C82:  MOVWF  FB3
1C84:  MOVLW  90
1C86:  MOVWF  FB2
....................    enable_interrupts (global); 
1C88:  MOVLW  C0
1C8A:  IORWF  FF2,F
....................    enable_interrupts (INT_timer3);  
1C8C:  BSF    FA0.1
....................     
....................    ds18a_tam = 0; 
1C8E:  CLRF   2F
....................     
....................    doc_thoi_gian_tu_realtime (); 
1C90:  CALL   0706
....................  
....................    IF (ma_ds13 != ma_ds) 
1C94:  MOVF   3C,W
1C96:  SUBLW  91
1C98:  BZ    1CA2
....................    { 
....................       thiet_lap_thoi_gian_hien_tai (); 
1C9A:  GOTO   07E8
....................       NAP_THOI_GIAN_HTAI_VAO_DS13B07 (); 
1C9E:  GOTO   0810
....................    } 
....................  
....................    doc_thoi_gian_tu_realtime () ; 
1CA2:  CALL   0706
....................    giaytam = giay_ds13; 
1CA6:  MOVFF  3B,3E
....................     
....................     
....................    setup_glcd(glcd_text_mode); 
1CAA:  MOVLW  30
1CAC:  MOVLB  4
1CAE:  MOVWF  x5F
1CB0:  MOVLB  0
1CB2:  CALL   08A0
....................    setup_glcd(glcd_graphic_mode); 
1CB6:  MOVLW  36
1CB8:  MOVLB  4
1CBA:  MOVWF  x5F
1CBC:  MOVLB  0
1CBE:  CALL   08A0
....................    glcd_mau_nen(0); 
1CC2:  MOVLB  4
1CC4:  CLRF   x5F
1CC6:  MOVLB  0
1CC8:  CALL   0928
.................... //!   glcd_circle(22, 12, 12, 0, 1); 
.................... //!   glcd_circle(22, 50, 12, 0, 1); 
.................... //!    
.................... //!   glcd_rect (80, 0, 120, 20, 0, 1); 
.................... //!   glcd_rect (80, 45, 120, 63, 0, 1); 
.................... //!    
.................... //!   gdram_vdk_to_gdram_glcd_all(); 
....................  
....................     
....................    WHILE (true) 
....................    { 
....................       doc_nd_lm35a (); 
1CCC:  GOTO   0EF2
....................        
....................       doc_thoi_gian_tu_realtime (); 
1CD0:  CALL   0706
....................  
....................       IF (giaytam != giay_ds13) 
1CD4:  MOVF   3B,W
1CD6:  SUBWF  3E,W
1CD8:  BZ    1CE2
....................       { 
....................          giaytam = giay_ds13; 
1CDA:  MOVFF  3B,3E
....................          //!         HT_DS1307(); 
....................          giai_ma_gan_cho_8led_quet () ; 
1CDE:  CALL   108E
....................       } 
....................  
....................       IF (touch_present () ){doc_giatri_ds18b20 (); } 
1CE2:  CALL   0502
1CE6:  MOVF   01,F
1CE8:  BTFSS  FD8.2
1CEA:  GOTO   1240
....................       IF (ds18al != ds18a_tam) 
1CEE:  MOVF   2F,W
1CF0:  SUBWF  2D,W
1CF2:  BZ    1D10
....................       { 
....................          ds18a_tam = ds18al; 
1CF4:  MOVFF  2D,2F
....................          for (INT i = 0; i < 200; i++) 
1CF8:  MOVLB  4
1CFA:  CLRF   x5E
1CFC:  MOVF   x5E,W
1CFE:  SUBLW  C7
1D00:  BNC   1D0E
....................          { 
....................             giai_ma_gan_cho_8led_quet () ; 
1D02:  MOVLB  0
1D04:  CALL   108E
1D08:  MOVLB  4
1D0A:  INCF   x5E,F
1D0C:  BRA    1CFC
1D0E:  MOVLB  0
1D10:  CLRF   16
1D12:  BTFSC  FF2.7
1D14:  BSF    16.7
1D16:  BCF    FF2.7
....................          } 
....................       } 
....................  
....................        
.................... //!      for (INT8 i = 0; i < 200; i++) 
.................... //!      { 
.................... //!         hien_thi_8led_7doan_quet () ; 
.................... //!      } 
....................          hien_thi_8led_7doan_quet_all1 (); 
1D18:  CALL   03A8
1D1C:  BTFSC  16.7
1D1E:  BSF    FF2.7
....................  
....................        
....................        
....................       giaima_lcd_lm35 () ; 
1D20:  GOTO   12EC
....................       hienthi_lcd_lm35 () ; 
1D24:  GOTO   140C
....................        
....................       giaima_lcd_ds18b20 () ; 
1D28:  GOTO   1446
....................       hienthi_lcd_ds18b20 () ; 
1D2C:  GOTO   14D8
....................        
....................        
....................       hienthi_glcd(); 
1D30:  GOTO   151A
....................        
....................       IF (TT_HINH == 0) 
1D34:  MOVLB  4
1D36:  BTFSC  x5D.0
1D38:  BRA    1D96
....................       { 
....................          SETUP_GLCD (GLCD_GRAPHIC_MODE); 
1D3A:  MOVLW  36
1D3C:  MOVWF  x5F
1D3E:  MOVLB  0
1D40:  CALL   08A0
....................          GLCD_MAU_NEN (0); 
1D44:  MOVLB  4
1D46:  CLRF   x5F
1D48:  MOVLB  0
1D4A:  CALL   0928
....................          glcd_circle(23, 40, 15, 0, 1); 
1D4E:  MOVLW  17
1D50:  MOVLB  4
1D52:  MOVWF  x5F
1D54:  MOVLW  28
1D56:  MOVWF  x60
1D58:  MOVLW  0F
1D5A:  MOVWF  x61
1D5C:  CLRF   x62
1D5E:  MOVLW  01
1D60:  MOVWF  x63
1D62:  MOVLB  0
1D64:  RCALL  192A
....................          glcd_rect(88, 28, 120, 53, 0, 1) ; 
1D66:  MOVLW  58
1D68:  MOVLB  4
1D6A:  MOVWF  x5F
1D6C:  MOVLW  1C
1D6E:  MOVWF  x60
1D70:  MOVLW  78
1D72:  MOVWF  x61
1D74:  MOVLW  35
1D76:  MOVWF  x62
1D78:  CLRF   x63
1D7A:  MOVLW  01
1D7C:  MOVWF  x64
1D7E:  MOVLB  0
1D80:  RCALL  1B3A
1D82:  CLRF   16
1D84:  BTFSC  FF2.7
1D86:  BSF    16.7
1D88:  BCF    FF2.7
....................          GDRAM_VDK_TO_GDRAM_GLCD_ALL (); 
1D8A:  CALL   02C4
1D8E:  BTFSC  16.7
1D90:  BSF    FF2.7
....................       } 
1D92:  BRA    1DEE
1D94:  MOVLB  4
....................       ELSE 
....................       { 
....................          SETUP_GLCD (GLCD_GRAPHIC_MODE); 
1D96:  MOVLW  36
1D98:  MOVWF  x5F
1D9A:  MOVLB  0
1D9C:  CALL   08A0
....................          GLCD_MAU_NEN (0); 
1DA0:  MOVLB  4
1DA2:  CLRF   x5F
1DA4:  MOVLB  0
1DA6:  CALL   0928
....................          glcd_rect(14, 28, 35, 48, 0, 1) ; 
1DAA:  MOVLW  0E
1DAC:  MOVLB  4
1DAE:  MOVWF  x5F
1DB0:  MOVLW  1C
1DB2:  MOVWF  x60
1DB4:  MOVLW  23
1DB6:  MOVWF  x61
1DB8:  MOVLW  30
1DBA:  MOVWF  x62
1DBC:  CLRF   x63
1DBE:  MOVLW  01
1DC0:  MOVWF  x64
1DC2:  MOVLB  0
1DC4:  RCALL  1B3A
....................          glcd_circle(105, 38, 15, 0, 1); 
1DC6:  MOVLW  69
1DC8:  MOVLB  4
1DCA:  MOVWF  x5F
1DCC:  MOVLW  26
1DCE:  MOVWF  x60
1DD0:  MOVLW  0F
1DD2:  MOVWF  x61
1DD4:  CLRF   x62
1DD6:  MOVLW  01
1DD8:  MOVWF  x63
1DDA:  MOVLB  0
1DDC:  RCALL  192A
1DDE:  CLRF   16
1DE0:  BTFSC  FF2.7
1DE2:  BSF    16.7
1DE4:  BCF    FF2.7
....................          GDRAM_VDK_TO_GDRAM_GLCD_ALL (); 
1DE6:  CALL   02C4
1DEA:  BTFSC  16.7
1DEC:  BSF    FF2.7
....................       } 
....................       TRON_VUONG(); 
1DEE:  BRA    1BFC
1DF0:  BRA    1CCC
....................        
....................        
....................        
....................    } 
.................... } 
....................  
1DF2:  SLEEP 

Configuration Fuses:
   Word  1: CC27   PLL12 CPUDIV1 USBDIV HS FCMEN IESO
   Word  2: 1E3E   PUT BROWNOUT BORV21 VREGEN NOWDT WDT32768
   Word  3: 8700   CCP2C1 PBADEN LPT1OSC MCLR
   Word  4: 00A1   STVREN NOLVP ICSP2 NOXINST NODEBUG
   Word  5: C00F   NOPROTECT NOCPB NOCPD
   Word  6: E00F   NOWRT NOWRTC NOWRTB NOWRTD
   Word  7: 400F   NOEBTR NOEBTRB
