CCS PCH C Compiler, Version 5.015, 5967               17-Aug-20 13:47

               Filename:   C:\Users\tsqua\OneDrive - student.mtsac.edu\Desktop\BAI_TAP_VXL_NEW_3\TONG_HOP_REAL_TIME_2.lst

               ROM used:   5892 bytes (18%)
                           Largest free fragment is 26872
               RAM used:   1105 (54%) at main() level
                           1151 (56%) worst case
               Stack used: 16 locations (8 in main + 8 for interrupts)
               Stack size: 31

*
0000:  GOTO   145A
*
0008:  MOVWF  04
000A:  MOVFF  FD8,05
000E:  MOVFF  FE0,06
0012:  MOVLB  0
0014:  MOVFF  FE9,0C
0018:  MOVFF  FEA,07
001C:  MOVFF  FE1,08
0020:  MOVFF  FE2,09
0024:  MOVFF  FD9,0A
0028:  MOVFF  FDA,0B
002C:  MOVFF  FF3,12
0030:  MOVFF  FF4,13
0034:  MOVFF  FFA,14
0038:  MOVFF  00,0E
003C:  MOVFF  01,0F
0040:  MOVFF  02,10
0044:  MOVFF  03,11
0048:  BTFSS  FA0.1
004A:  GOTO   0054
004E:  BTFSC  FA1.1
0050:  GOTO   04D8
0054:  MOVFF  0E,00
0058:  MOVFF  0F,01
005C:  MOVFF  10,02
0060:  MOVFF  11,03
0064:  MOVFF  0C,FE9
0068:  MOVFF  07,FEA
006C:  BSF    07.7
006E:  MOVFF  08,FE1
0072:  MOVFF  09,FE2
0076:  MOVFF  0A,FD9
007A:  MOVFF  0B,FDA
007E:  MOVFF  12,FF3
0082:  MOVFF  13,FF4
0086:  MOVFF  14,FFA
008A:  MOVF   04,W
008C:  MOVFF  06,FE0
0090:  MOVFF  05,FD8
0094:  RETFIE 0
.................... #include <tv_pickit2_shift_1.c> 
.................... #INCLUDE    <18F4550.H> 
.................... //////////// Standard Header file for the PIC18F4550 device //////////////// 
.................... /////////////////////////////////////////////////////////////////////////// 
.................... ////        (C) Copyright 1996, 2013 Custom Computer Services          //// 
.................... //// This source code may only be used by licensed users of the CCS C  //// 
.................... //// compiler.  This source code may only be distributed to other      //// 
.................... //// licensed users of the CCS C compiler.  No other use, reproduction //// 
.................... //// or distribution is permitted without written permission.          //// 
.................... //// Derivative programs created using this software in object code    //// 
.................... //// form are not restricted in any way.                               //// 
.................... /////////////////////////////////////////////////////////////////////////// 
.................... #device PIC18F4550 
0096:  MOVFF  FF2,0D
009A:  BCF    FF2.7
009C:  CLRF   FF7
009E:  ADDLW  B0
00A0:  MOVWF  FF6
00A2:  MOVLW  00
00A4:  ADDWFC FF7,F
00A6:  TBLRD*+
00A8:  MOVF   FF5,W
00AA:  BTFSC  0D.7
00AC:  BSF    FF2.7
00AE:  RETURN 0
00B0:  DATA C0,F9
00B2:  DATA A4,B0
00B4:  DATA 99,92
00B6:  DATA 82,F8
00B8:  DATA 80,90
00BA:  DATA 88,83
00BC:  DATA C6,A1
00BE:  DATA 86,8E
00C0:  BTFSS  07.7
00C2:  BRA    00CA
00C4:  MOVFF  FF2,0D
00C8:  BCF    FF2.7
00CA:  CLRF   FF7
00CC:  ADDLW  E2
00CE:  MOVWF  FF6
00D0:  MOVLW  00
00D2:  ADDWFC FF7,F
00D4:  TBLRD*+
00D6:  MOVF   FF5,W
00D8:  BTFSS  07.7
00DA:  BRA    00E0
00DC:  BTFSC  0D.7
00DE:  BSF    FF2.7
00E0:  RETURN 0
00E2:  DATA 7F,BF
00E4:  DATA DF,EF
00E6:  DATA F7,FB
00E8:  DATA FD,FE
00EA:  MOVFF  FF2,0D
00EE:  BCF    FF2.7
00F0:  CLRF   FF7
00F2:  ADDLW  04
00F4:  MOVWF  FF6
00F6:  MOVLW  01
00F8:  ADDWFC FF7,F
00FA:  TBLRD*+
00FC:  MOVF   FF5,W
00FE:  BTFSC  0D.7
0100:  BSF    FF2.7
0102:  RETURN 0
0104:  DATA 00,01
0106:  DATA 02,05
0108:  DATA 03,04
010A:  DATA 01,02
010C:  DATA 20,03
010E:  DATA 07,03
0110:  DATA 06,06
0112:  DATA 02,05
0114:  DATA 03,03
0116:  DATA 06,06
0118:  DATA 02,03
011A:  DATA 03,04
011C:  DATA 07,03
011E:  DATA 07,20
0120:  DATA 20,07
0122:  DATA 07,06
0124:  DATA 06,03
0126:  DATA 03,04
0128:  DATA 00,06
012A:  DATA 06,05
012C:  DATA 03,04
012E:  DATA 01,01
0130:  DATA 07,20
0132:  DATA 20,07
0134:  DATA 00,06
0136:  DATA 02,05
0138:  DATA 03,04
013A:  DATA 00,06
013C:  DATA 02,03
013E:  DATA 03,04
0140:  DATA 20,20
0142:  DATA 20,20
0144:  DATA 20,20
0146:  DATA 00,06
0148:  DATA 02,05
014A:  DATA 20,20
014C:  DATA 20,20
014E:  DATA 20,20
0150:  DATA 07,20
0152:  DATA 07,20
0154:  DATA 20,07
0156:  DATA 06,07
0158:  DATA 07,03
015A:  DATA 07,07
015C:  DATA 20,07
015E:  DATA 03,03
0160:  DATA 07,07
0162:  DATA 03,07
0164:  DATA 20,20
0166:  DATA 20,03
0168:  DATA 03,03
016A:  DATA 20,01
016C:  DATA 20,20
016E:  DATA 20,20
0170:  DATA 07,01
0172:  DATA 01,07
0174:  DATA 03,03
0176:  DATA 20,01
0178:  DATA 20,20
017A:  DATA 01,20
017C:  MOVFF  FF2,0D
0180:  BCF    FF2.7
0182:  CLRF   FF7
0184:  ADDLW  96
0186:  MOVWF  FF6
0188:  MOVLW  01
018A:  ADDWFC FF7,F
018C:  TBLRD*+
018E:  MOVF   FF5,W
0190:  BTFSC  0D.7
0192:  BSF    FF2.7
0194:  RETURN 0
0196:  DATA 07,0F
0198:  DATA 1F,1F
019A:  DATA 1F,1F
019C:  DATA 1F,1F
019E:  DATA 1F,1F
01A0:  DATA 1F,00
01A2:  DATA 00,00
01A4:  DATA 00,00
01A6:  DATA 1C,1E
01A8:  DATA 1F,1F
01AA:  DATA 1F,1F
01AC:  DATA 1F,1F
01AE:  DATA 00,00
01B0:  DATA 00,00
01B2:  DATA 00,1F
01B4:  DATA 1F,1F
01B6:  DATA 1F,1F
01B8:  DATA 1F,1F
01BA:  DATA 1F,1F
01BC:  DATA 1E,1C
01BE:  DATA 1F,1F
01C0:  DATA 1F,1F
01C2:  DATA 1F,1F
01C4:  DATA 0F,07
01C6:  DATA 1F,1F
01C8:  DATA 1F,00
01CA:  DATA 00,00
01CC:  DATA 1F,1F
01CE:  DATA 1F,1F
01D0:  DATA 1F,1F
01D2:  DATA 1F,1F
01D4:  DATA 1F,1F
01D6:  MOVFF  FF2,0D
01DA:  BCF    FF2.7
01DC:  CLRF   FF7
01DE:  ADDLW  F0
01E0:  MOVWF  FF6
01E2:  MOVLW  01
01E4:  ADDWFC FF7,F
01E6:  TBLRD*+
01E8:  MOVF   FF5,W
01EA:  BTFSC  0D.7
01EC:  BSF    FF2.7
01EE:  RETURN 0
01F0:  DATA 80,C0
01F2:  DATA 94,D4
*
0384:  MOVLB  4
0386:  MOVF   x75,W
0388:  MULWF  x77
038A:  MOVFF  FF3,01
038E:  MOVFF  FF4,00
0392:  MULWF  x78
0394:  MOVF   FF3,W
0396:  ADDWF  00,F
0398:  MOVF   x76,W
039A:  MULWF  x77
039C:  MOVF   FF3,W
039E:  ADDWFC 00,W
03A0:  MOVWF  02
03A2:  MOVLB  0
03A4:  RETURN 0
*
04E8:  DATA 47,49
04EA:  DATA 4F,00
04EC:  DATA 50,48
04EE:  DATA 55,54
04F0:  DATA 00,00
04F2:  DATA 47,49
04F4:  DATA 41,59
04F6:  DATA 00,00
04F8:  DATA 54,48
04FA:  DATA 55,00
*
086C:  TBLRD*+
086E:  MOVF   FF5,F
0870:  BZ    088A
0872:  MOVFF  FF6,450
0876:  MOVFF  FF7,451
087A:  MOVFF  FF5,454
087E:  RCALL  076E
0880:  MOVFF  450,FF6
0884:  MOVFF  451,FF7
0888:  BRA    086C
088A:  RETURN 0
*
08AE:  CLRF   00
08B0:  CLRF   01
08B2:  MOVLB  4
08B4:  MOVF   x59,W
08B6:  BCF    FD8.0
08B8:  BTFSC  x5A.0
08BA:  ADDWF  00,F
08BC:  RRCF   00,F
08BE:  RRCF   01,F
08C0:  BTFSC  x5A.1
08C2:  ADDWF  00,F
08C4:  RRCF   00,F
08C6:  RRCF   01,F
08C8:  BTFSC  x5A.2
08CA:  ADDWF  00,F
08CC:  RRCF   00,F
08CE:  RRCF   01,F
08D0:  BTFSC  x5A.3
08D2:  ADDWF  00,F
08D4:  RRCF   00,F
08D6:  RRCF   01,F
08D8:  BTFSC  x5A.4
08DA:  ADDWF  00,F
08DC:  RRCF   00,F
08DE:  RRCF   01,F
08E0:  BTFSC  x5A.5
08E2:  ADDWF  00,F
08E4:  RRCF   00,F
08E6:  RRCF   01,F
08E8:  BTFSC  x5A.6
08EA:  ADDWF  00,F
08EC:  RRCF   00,F
08EE:  RRCF   01,F
08F0:  BTFSC  x5A.7
08F2:  ADDWF  00,F
08F4:  RRCF   00,F
08F6:  RRCF   01,F
08F8:  MOVLB  0
08FA:  RETURN 0
....................  
.................... #list 
....................  
.................... #DEVICE     ADC=10 
.................... #FUSES      NOWDT,PUT,HS,NOPROTECT,NOLVP,CPUDIV1 
.................... #USE        I2C(MASTER,SLOW,SDA=PIN_B0,SCL=PIN_B1) 
*
05EE:  MOVLW  08
05F0:  MOVWF  01
05F2:  NOP   
05F4:  BCF    F8A.1
05F6:  BCF    F93.1
05F8:  NOP   
05FA:  MOVLB  4
05FC:  RLCF   x50,F
05FE:  BCF    F8A.0
0600:  BTFSC  FD8.0
0602:  BSF    F93.0
0604:  BTFSS  FD8.0
0606:  BCF    F93.0
0608:  BSF    F93.1
060A:  BTFSS  F81.1
060C:  BRA    060A
060E:  DECFSZ 01,F
0610:  BRA    0614
0612:  BRA    0618
0614:  MOVLB  0
0616:  BRA    05F2
0618:  NOP   
061A:  BCF    F8A.1
061C:  BCF    F93.1
061E:  NOP   
0620:  BSF    F93.0
0622:  NOP   
0624:  NOP   
0626:  BSF    F93.1
0628:  BTFSS  F81.1
062A:  BRA    0628
062C:  CLRF   01
062E:  NOP   
0630:  BTFSC  F81.0
0632:  BSF    01.0
0634:  BCF    F8A.1
0636:  BCF    F93.1
0638:  BCF    F8A.0
063A:  BCF    F93.0
063C:  MOVLB  0
063E:  RETURN 0
0640:  MOVLW  08
0642:  MOVLB  4
0644:  MOVWF  x51
0646:  MOVFF  00,452
064A:  BSF    F93.0
064C:  NOP   
064E:  BSF    F93.1
0650:  BTFSS  F81.1
0652:  BRA    0650
0654:  BTFSC  F81.0
0656:  BSF    FD8.0
0658:  BTFSS  F81.0
065A:  BCF    FD8.0
065C:  RLCF   01,F
065E:  NOP   
0660:  BCF    F93.1
0662:  BCF    F8A.1
0664:  DECFSZ x51,F
0666:  BRA    064A
0668:  BSF    F93.0
066A:  NOP   
066C:  BCF    F8A.0
066E:  MOVF   x52,W
0670:  BTFSS  FD8.2
0672:  BCF    F93.0
0674:  NOP   
0676:  BSF    F93.1
0678:  BTFSS  F81.1
067A:  BRA    0678
067C:  NOP   
067E:  BCF    F8A.1
0680:  BCF    F93.1
0682:  NOP   
0684:  BCF    F8A.0
0686:  BCF    F93.0
0688:  MOVLB  0
068A:  RETURN 0
.................... #USE        DELAY(CLOCK=20000000) 
*
0296:  MOVLW  03
0298:  MOVLB  4
029A:  SUBWF  x76,F
029C:  BNC   02B2
029E:  MOVLW  04
02A0:  MOVWF  FEA
02A2:  MOVLW  76
02A4:  MOVWF  FE9
02A6:  MOVF   FEF,W
02A8:  BZ    02B2
02AA:  BRA    02AE
02AC:  BRA    02AE
02AE:  DECFSZ FEF,F
02B0:  BRA    02AC
02B2:  MOVLB  0
02B4:  RETURN 0
*
056A:  MOVLW  04
056C:  MOVWF  FEA
056E:  MOVLW  51
0570:  MOVWF  FE9
0572:  MOVF   FEF,W
0574:  BZ    0590
0576:  MOVLW  06
0578:  MOVWF  01
057A:  CLRF   00
057C:  DECFSZ 00,F
057E:  BRA    057C
0580:  DECFSZ 01,F
0582:  BRA    057A
0584:  MOVLW  7B
0586:  MOVWF  00
0588:  DECFSZ 00,F
058A:  BRA    0588
058C:  DECFSZ FEF,F
058E:  BRA    0576
0590:  RETURN 0
.................... //#USE        rs232(baud=9600, xmit=PIN_C6,rcv=PIN_C7) 
.................... //NUT NHAN: 
.................... #DEFINE  BT0     PIN_B5 
.................... #DEFINE  BT1     PIN_B4 
.................... #DEFINE  BT2     PIN_B3 
.................... #DEFINE  BT3     PIN_B2 
....................  
.................... #DEFINE  ON      BT0       //DK LED DON, MOTOR 
.................... #DEFINE  OFF     BT1 
.................... #DEFINE  INV     BT2 
....................  
.................... #DEFINE  UP      BT0    //DK LED DON 
.................... #DEFINE  DW      BT1 
.................... #DEFINE  CLR     BT2 
.................... #DEFINE  MOD     BT3 
....................  
.................... #DEFINE  STOP    BT3 
....................  
.................... #DEFINE  ON1     BT0      
.................... #DEFINE  OFF1    BT1 
.................... #DEFINE  ON2     BT2        
.................... #DEFINE  OFF2    BT3 
....................  
....................  
.................... #DEFINE     TRIGGER      PIN_E2 
.................... #DEFINE     ECHO         PIN_E1 
.................... //   IC74138_A    PIN_B6   //OUTPUT GIAI MA 2 SANG 4 TICH CUC MUC 0 
.................... //   IC74138_B    PIN_B7   //OUTPUT GIAI MA 2 SANG 4 TICH CUC MUC 0 
....................  
.................... //          ENCODER  PIN_C0   //RC0/T13CKI 
....................  
.................... //          CB_KC    PIN_A2   //RA2/AN2 
.................... //          PIR      PIN_A3   //RA3/AN3 
.................... //          CBXUNG   PIN_A4   //RA4/T0CKI 
.................... //          LEDTHU   PIN_A4   //RA4/T0CKI//SW802 
....................  
.................... //          CB_KCSA_TRIGGER  PIN_E2   //RE2/SDO  DUNG CHUNG 
.................... //          CB_KCSA_RCHO     PIN_E1   //RE1 
....................  
.................... //          CB_TCS3200_OUT    PIN_E1   //RE1 //CAM BIEN MAU TCS3200 
.................... //          CB_TCS3200_S0     B12      //LAY TU MBI5026 
.................... //          CB_TCS3200_S1     B13      //LAY TU MBI5026 
.................... //          CB_TCS3200_S2     B14      //LAY TU MBI5026 
.................... //          CB_TCS3200_S3     B15      //LAY TU MBI5026 
....................  
.................... //          CB_POWER  SW803 
.................... //          CB_GAS      AIN3_PCF8591T   //RE1 
.................... //          CB_QUANG    AIN2_PCF8591T    
.................... //          CB_LM35B    AIN1_PCF8591T   //RA1/AN1 
.................... //          CB_LM35A    AIN0_PCF8591T   //RE1/AN0 
....................  
.................... //XXXXXXXXXXXXXXXXXXXXXXXXXXXXXXXXXXXXXXXXXXXXXXXXX 
.................... #DEFINE      ENABLE_573A      PIN_D1         //CS0 CUA A 
.................... #DEFINE      ENABLE_573B      PIN_D0         //CS1 CUA B 
.................... //XXXXXXXXXXXXXXXXXXXXXXXXXXXXXXXXXXXXXXXXXXXXXXXXX 
.................... #DEFINE      SSDO             PIN_E2         //CHUNG TAT CA 
.................... #DEFINE      SSCK             PIN_E0         //CHUNG TAT CA 
.................... //XXXXXXXXXXXXXXXXXXXXXXXXXXXXXXXXXXXXXXXXXXXXXXXXX 
.................... #DEFINE      RCK_4LED7DOAN    PIN_D7         //A - 4 BYTE 
.................... #DEFINE      G_4LED7DOAN      PIN_D6         //A - 4 BYTE 
.................... //XXXXXXXXXXXXXXXXXXXXXXXXXXXXXXXXXXXXXXXXXXXX     
.................... #DEFINE      RCK_MATRANLED    PIN_D7         //B - 3 BYTE DAO 
.................... #DEFINE      G_MATRANLED      PIN_D6         //B - 3 BYTE DAO 
.................... //XXXXXXXXXXXXXXXXXXXXXXXXXXXXXXXXXXXXXXXXXXXXXXXXX 
.................... #DEFINE      RCK_32LED        PIN_D5         //A - 4 BYTE 
.................... #DEFINE      G_32LED          PIN_D4         //A - 4 BYTE 
.................... //XXXXXXXXXXXXXXXXXXXXXXXXXXXXXXXXXXXXXXXXXXXX  
.................... #DEFINE      RCK_8LEDQUET     PIN_D5         //B - 2 BYTE DAO 
.................... #DEFINE      G_8LEDQUET       PIN_D4         //B - 2 BYTE DAO 
.................... //XXXXXXXXXXXXXXXXXXXXXXXXXXXXXXXXXXXXXXXXXXXXXXXXX 
.................... #DEFINE      RCK_LCD20X4      PIN_D3         //A - 2 BYTE DAO 
.................... #DEFINE      G_LCD20X4         PIN_D2         //A - 2 BYTE DAO 
.................... //XXXXXXXXXXXXXXXXXXXXXXXXXXXXXXXXXXXXXXXXXXXX  
.................... #DEFINE      RCK_BUZERELAY    PIN_D3     //B - 1 BYTE  
.................... #DEFINE      G_BUZERELAY      PIN_D2         //B - 1 BYTE  
....................  
.................... VOID XUAT_LCD20X4(UNSIGNED INT8 LCD_SIGNAL,LCD_INS_HTHI); 
....................  
.................... VOID XUAT_BUZZER_RELAY(); 
.................... //XXXXXXXXXXXXXXXXXXXXXXXXXXXXXXXXXXXXXXXXXXXX    
.................... #DEFINE     CHOT_2_IC_74573_A_B  OUTPUT_D(0XFC) 
....................  
.................... UNSIGNED INT8 TIN_HIEU_DK_74573_A; 
.................... #BIT G_4A         = TIN_HIEU_DK_74573_A.6 
.................... #BIT G_32A        = TIN_HIEU_DK_74573_A.4 
.................... #BIT G_LCDA       = TIN_HIEU_DK_74573_A.2 
.................... //XXXXXXXXXXXXXXXXXXXXXXXXXXXXXXXXXXXXXXXXXXXX          
.................... #DEFINE     MO_32_LED_DON        G_32A=0; //OUTPUT_LOW(G_32LED)  
.................... #DEFINE     TAT_32_LED_DON       G_32A=1; //OUTPUT_HIGH(G_32LED)  
.................... //XXXXXXXXXXXXXXXXXXXXXXXXXXXXXXXXXXXXXXXXXXXX          
.................... #DEFINE     MO_4_LED_7DOAN       G_4A=0;  //OUTPUT_LOW(G_4LED7DOAN) 
.................... #DEFINE     TAT_4_LED_7DOAN      G_4A=1;  //OUTPUT_HIGH(G_4LED7DOAN) 
.................... //XXXXXXXXXXXXXXXXXXXXXXXXXXXXXXXXXXXXXXXXXXXX  
.................... #DEFINE     MO_GLCD_LCD           G_LCDA=0;   //OUTPUT_LOW(G_LCD20X4) 
.................... #DEFINE     TAT_GLCD_LCD          G_LCDA=1;   // OUTPUT_LOW(G_LCD20X4) 
....................  
.................... UNSIGNED INT8 TIN_HIEU_DK_74573_B;   
.................... #BIT G_MTB        = TIN_HIEU_DK_74573_B.6 
.................... #BIT G_8B         = TIN_HIEU_DK_74573_B.4 
.................... #BIT G_RBDCB      = TIN_HIEU_DK_74573_B.2 
.................... //XXXXXXXXXXXXXXXXXXXXXXXXXXXXXXXXXXXXXXXXXXXX  
.................... #DEFINE     MO_LED_MATRAN        G_MTB=0; //OUTPUT_LOW(G_MATRANLED) 
.................... #DEFINE     TAT_LED_MATRAN       G_MTB=1; //OUTPUT_LOW(G_MATRANLED) 
.................... //XXXXXXXXXXXXXXXXXXXXXXXXXXXXXXXXXXXXXXXXXXXX        
.................... #DEFINE     MO_8_LED_QUET        G_8B=0;  //OUTPUT_LOW(G_8LEDQUET) 
.................... #DEFINE     TAT_8_LED_QUET       G_8B=1;  //OUTPUT_LOW(G_8LEDQUET) 
.................... //XXXXXXXXXXXXXXXXXXXXXXXXXXXXXXXXXXXXXXXXXXXX          
.................... #DEFINE     MO_RELAY_BUZZER_DC   G_RBDCB=0;  //OUTPUT_LOW(G_BUZERELAY) 
.................... #DEFINE     TAT_RELAY_BUZZER_DC  G_RBDCB=1;  //OUTPUT_LOW(G_BUZERELAY) 
....................  
.................... //XXXXXXXXXXXXXXXXXXXXXXXXXXXXXXXXXXXXXXXXXXXX 
.................... //CHUONG TRINH KIEM TRA PHIM BT1 
.................... //XXXXXXXXXXXXXXXXXXXXXXXXXXXXXXXXXXXXXXXXXXXX 
.................... UNSIGNED INT8 DL_BTN=0; 
.................... INT1 PHIM_BT0(UNSIGNED INT16 DL) 
.................... {   
....................     IF (!INPUT(BT0)) 
....................     {   
....................       DL_BTN++; 
....................        
....................       IF (DL_BTN>= DL) 
....................          { 
....................             DL_BTN =0; 
....................             RETURN(1); 
....................          } 
....................       ELSE RETURN(0); 
....................     } 
....................     ELSE    RETURN(0); 
.................... }  
.................... //XXXXXXXXXXXXXXXXXXXXXXXXXXXXXXXXXXXXXXXXXXXX 
.................... //CHUONG TRINH KIEM TRA PHIM BT1 
.................... //XXXXXXXXXXXXXXXXXXXXXXXXXXXXXXXXXXXXXXXXXXXX 
.................... INT1 PHIM_BT1(UNSIGNED INT16 DL ) 
.................... {   
....................     IF (!INPUT(BT1)) 
....................     {   
....................       DL_BTN++; 
....................        
....................       IF (DL_BTN>= DL) 
....................          { 
....................             DL_BTN =0; 
....................             RETURN(1); 
....................          } 
....................       ELSE RETURN(0); 
....................     } 
....................     ELSE    RETURN(0); 
.................... }  
.................... //XXXXXXXXXXXXXXXXXXXXXXXXXXXXXXXXXXXXXXXXXXXX 
.................... //CHUONG TRINH KIEM TRA PHIM BT2       
.................... //XXXXXXXXXXXXXXXXXXXXXXXXXXXXXXXXXXXXXXXXXXXX                                     
.................... INT1 PHIM_BT2(UNSIGNED INT16 DL ) 
.................... {                                         
....................     IF (!INPUT(BT2)) 
....................     {   
....................       DL_BTN++; 
....................        
....................       IF (DL_BTN>= DL) 
....................          { 
....................             DL_BTN =0; 
....................             RETURN(1); 
....................          } 
....................       ELSE RETURN(0); 
....................     } 
....................     ELSE    RETURN(0); 
....................                                           
.................... }       
....................  
.................... //XXXXXXXXXXXXXXXXXXXXXXXXXXXXXXXXXXXXXXXXXXXX 
.................... //CHUONG TRINH KIEM TRA PHIM BT3 
.................... //XXXXXXXXXXXXXXXXXXXXXXXXXXXXXXXXXXXXXXXXXXXX 
.................... INT1 PHIM_BT3(UNSIGNED INT16 DL,  UNSIGNED INT8 SOLAN  ) 
.................... {   
....................     IF (!INPUT(BT3)) 
....................     {   
....................       DL_BTN++; 
....................       IF(DL_BTN==1) RETURN(1); 
....................       ELSE 
....................       { 
....................          IF (DL_BTN>= DL) 
....................          DL_BTN =SOLAN; 
....................       } 
....................     } 
....................     ELSE    
....................     { 
....................       //DL_BTN =0; 
....................       RETURN(0); 
....................     } 
.................... }  
.................... //XXXXXXXXXXXXXXXXXXXXXXXXXXXXXXXXXXXXXXXXXXXX 
.................... //KHAI BAO DU LIEU 16 BIT CHO MODULE RELAY, TRIAC, BUZZER, DONG CO 
.................... //XXXXXXXXXXXXXXXXXXXXXXXXXXXXXXXXXXXXXXXXXXXX 
.................... UNSIGNED INT16 RBDC; 
.................... #BIT STEP_MOTOR_ENABLE  = RBDC.0    //1=ENA,0=DIS 
.................... #BIT STEP_MOTOR_IN1     = RBDC.1     
.................... #BIT STEP_MOTOR_IN2     = RBDC.2 
.................... #BIT STEP_MOTOR_IN3     = RBDC.3 
.................... #BIT STEP_MOTOR_IN4     = RBDC.4 
.................... #BIT DC_ENABLE          = RBDC.5    //1=ENA,0=DIS 
.................... #BIT PWRKEY             = RBDC.6    //KHOI TAO SIM900 
....................  
.................... #BIT BUZZER             = RBDC.8    //1=ON,0=OFF 
.................... #BIT TRIAC_1            = RBDC.9    //1=ON,0=OFF 
.................... #BIT TRIAC_2            = RBDC.10   //1=ON,0=OFF 
.................... #BIT RELAY_1            = RBDC.11   //0=ON,1=OFF 
.................... #BIT RELAY_2            = RBDC.12   //0=ON,1=OFF 
....................  
.................... //HAM 103 
.................... //XXXXXXXXXXXXXXXXXXXXXXXXXXXXXXXXXXXXXXXXXXXX 
.................... //CHUONG TRINH CON KHOI TAO IC CHOT 
.................... //XXXXXXXXXXXXXXXXXXXXXXXXXXXXXXXXXXXXXXXXXXXX          
.................... #DEFINE     CHO_IC_74573_A_GOI_DU_LIEU     OUTPUT_HIGH(ENABLE_573A) 
.................... #DEFINE     CHOT_IC_74573_A_GOI_DU_LIEU    OUTPUT_LOW(ENABLE_573A) 
....................  
.................... #DEFINE     CHO_IC_74573_B_GOI_DU_LIEU     OUTPUT_HIGH(ENABLE_573B) 
.................... #DEFINE     CHOT_IC_74573_B_GOI_DU_LIEU    OUTPUT_LOW(ENABLE_573B) 
.................... VOID MO_IC_74573_A_THONG_DL(); 
....................  
.................... //XXXXXXXXXXXXXXXXXXXXXXXXXXXXXXXXXXXXXXXXXXXX    
.................... CONST UNSIGNED CHAR MA7DOAN[16]= {0XC0,0XF9,0xA4,0XB0,0X99,0X92,0X82,0XF8, 
.................... 0X80,0X90,0x88, 0x83, 0xC6, 0xA1, 0x86, 0x8E}; 
.................... #DEFINE     MASO0    0XC0 
.................... #DEFINE     MASO1    0XF9 
.................... #DEFINE     MASO2    0XA4 
.................... #DEFINE     MASO3    0XB0 
.................... #DEFINE     MASO4    0X99 
.................... #DEFINE     MASO5    0X92 
.................... #DEFINE     MASO6    0X82 
.................... #DEFINE     MASO7    0XF8 
....................  
.................... //XXXXXXXXXXXXXXXXXXXXXXXXXXXXXXXXXXXXXXXXXXXX  
.................... //HAM 102 
.................... //XXXXXXXXXXXXXXXXXXXXXXXXXXXXXXXXXXXXXXXXXXXX     
.................... //XUAT 1 BYTE RA THANH GHI DICH 
.................... //XXXXXXXXXXXXXXXXXXXXXXXXXXXXXXXXXXXXXXXXXXXX     
.................... VOID XUAT_1BYTE(UNSIGNED INT8 BYTEXUAT) 
.................... { 
....................    UNSIGNED INT8   SB,X;    
....................    #BIT BSERI  = X.7 
....................    X = BYTEXUAT; 
*
01F4:  MOVFF  47C,47E
....................    FOR (SB=0;SB<8;SB++) 
01F8:  MOVLB  4
01FA:  CLRF   x7D
01FC:  MOVF   x7D,W
01FE:  SUBLW  07
0200:  BNC   021E
....................       {                                                  
....................          OUTPUT_BIT(SSDO,BSERI);     
0202:  BTFSC  x7E.7
0204:  BRA    020A
0206:  BCF    F8D.2
0208:  BRA    020C
020A:  BSF    F8D.2
020C:  BCF    F96.2
....................          OUTPUT_LOW(SSCK); OUTPUT_HIGH(SSCK); 
020E:  BCF    F96.0
0210:  BCF    F8D.0
0212:  BCF    F96.0
0214:  BSF    F8D.0
....................          X= X<<1;          
0216:  BCF    FD8.0
0218:  RLCF   x7E,F
021A:  INCF   x7D,F
021C:  BRA    01FC
....................      } 
021E:  MOVLB  0
0220:  RETURN 0
.................... } 
.................... //XXXXXXXXXXXXXXXXXXXXXXXXXXXXXXXXXXXXXXXXXXXX  
.................... //HAM 301 
.................... //XXXXXXXXXXXXXXXXXXXXXXXXXXXXXXXXXXXXXXXXXXXX 
.................... //CHUONG TRINH CON XUAT 4 BYTE RA 32 LED DON 
.................... //XXXXXXXXXXXXXXXXXXXXXXXXXXXXXXXXXXXXXXXXXXXX 
.................... VOID XUAT_32LED_DON_4BYTE(UNSIGNED INT8 BLD3,BLD2,BLD1,BLD0) 
.................... {      
....................       XUAT_1BYTE(BLD3);           
....................       XUAT_1BYTE(BLD2); 
....................       XUAT_1BYTE(BLD1);           
....................       XUAT_1BYTE(BLD0);             
....................       MO_32_LED_DON;       
....................       MO_IC_74573_A_THONG_DL();             
....................       OUTPUT_HIGH(RCK_32LED);    OUTPUT_LOW(RCK_32LED); 
....................       CHOT_IC_74573_A_GOI_DU_LIEU;       
.................... } 
.................... //HAM 302 
.................... //XXXXXXXXXXXXXXXXXXXXXXXXXXXXXXXXXXXXXXXXXXXX 
.................... //CHUONG TRINH CON XUAT 2 WORD 16 BITRA 32 LED DON 
.................... //XXXXXXXXXXXXXXXXXXXXXXXXXXXXXXXXXXXXXXXXXXXX 
.................... VOID XUAT_32LED_DON_2WORD(UNSIGNED INT16 WLD1, UNSIGNED INT16 WLD0) 
.................... {      
....................      UNSIGNED INT8  B3,B2,B1,B0; 
....................      B3 = WLD1>>8;  B2 = WLD1;  
....................      B1 = WLD0>>8;  B0 = WLD0; 
....................      XUAT_32LED_DON_4BYTE(B3,B2,B1,B0); 
.................... } 
.................... //HAM 303 
.................... //XXXXXXXXXXXXXXXXXXXXXXXXXXXXXXXXXXXXXXXXXXXX 
.................... //CHUONG TRINH CON XUAT 1 DOUBLE WORD RA 32 LED DON 
.................... //XXXXXXXXXXXXXXXXXXXXXXXXXXXXXXXXXXXXXXXXXXXX 
.................... VOID XUAT_32LED_DON_1DW(UNSIGNED LONG LONG DWLD) 
.................... {      
....................      UNSIGNED INT16  WD1,WD0; 
....................      WD1 = DWLD>>16;  WD0 = DWLD; 
....................      XUAT_32LED_DON_2WORD(WD1,WD0); 
.................... } 
....................  
.................... //HAM 304 
.................... //XXXXXXXXXXXXXXXXXXXXXXXXXXXXXXXXXXXXXXXXXXXX 
.................... //CHUONG TRINH CON MO 32 LED DON SANG 
.................... //XXXXXXXXXXXXXXXXXXXXXXXXXXXXXXXXXXXXXXXXXXXX 
.................... VOID MO_32LED_DON() 
.................... {         
....................      XUAT_32LED_DON_1DW(0XFFFFFFFF); 
.................... } 
.................... //HAM 305 
.................... //XXXXXXXXXXXXXXXXXXXXXXXXXXXXXXXXXXXXXXXXXXXX 
.................... //CHUONG TRINH CON TAT 32 LED DON  
.................... //XXXXXXXXXXXXXXXXXXXXXXXXXXXXXXXXXXXXXXXXXXXX 
.................... VOID TAT_32LED_DON() 
.................... {         
....................      XUAT_32LED_DON_1DW(0); 
.................... } 
.................... //XXXXXXXXXXXXXXXXXXXXXXXXXXXXXXXXXXXXXXXXXXXX     
.................... //XUAT 1 BIT ROI TRA LAI KET QUA SAU KHI DICH DI 1 BIT 
.................... //XXXXXXXXXXXXXXXXXXXXXXXXXXXXXXXXXXXXXXXXXXXX     
.................... UNSIGNED  INT8 XUAT_1BIT(UNSIGNED INT8 BYTEXUAT) 
.................... { 
....................       UNSIGNED INT8   XBITX;    
....................       #BIT BSERIX  = XBITX.0 
....................       XBITX = BYTEXUAT; 
....................                                              
....................       OUTPUT_BIT(SSDO,BSERIX);     
....................       OUTPUT_LOW(SSCK); OUTPUT_HIGH(SSCK); 
....................       XBITX= XBITX>>1;    
....................       RETURN(XBITX);   
.................... } 
.................... //XXXXXXXXXXXXXXXXXXXXXXXXXXXXXXXXXXXXXXXXXXXX  
.................... //HAM 101 
.................... //XXXXXXXXXXXXXXXXXXXXXXXXXXXXXXXXXXXXXXXXXXXX     
.................... //HAM KHOI TAO CAC PORT VA IC CHOT 
.................... //XXXXXXXXXXXXXXXXXXXXXXXXXXXXXXXXXXXXXXXXXXXX     
.................... VOID SET_UP_PORT_IC_CHOT() 
.................... {      
....................       SET_TRIS_D(0x00);     
*
04FC:  MOVLW  00
04FE:  MOVWF  F95
....................       SET_TRIS_E(0X00); 
0500:  MOVWF  F96
....................       OUTPUT_D(0XFF); 
0502:  CLRF   F95
0504:  SETF   F8C
....................       TIN_HIEU_DK_74573_A=0XFF;   
0506:  SETF   17
....................       TIN_HIEU_DK_74573_B=0XFF;       
0508:  SETF   18
....................       CHOT_IC_74573_A_GOI_DU_LIEU; 
050A:  BCF    F95.1
050C:  BCF    F8C.1
....................       CHOT_IC_74573_B_GOI_DU_LIEU;   
050E:  BCF    F95.0
0510:  BCF    F8C.0
....................       RBDC=0; 
0512:  CLRF   1B
0514:  CLRF   1A
0516:  GOTO   1494 (RETURN)
.................... } 
.................... //HAM 104 
.................... //XXXXXXXXXXXXXXXXXXXXXXXXXXXXXXXXXXXXXXXXXXXX     
.................... //XUAT CÁC THIEU DIEU KHIEN  
.................... //GIU NGUYEN CAC TRANG THAI CUA 2 MODULE KHAC 
.................... //XXXXXXXXXXXXXXXXXXXXXXXXXXXXXXXXXXXXXXXXXXXX     
.................... VOID MO_IC_74573_A_THONG_DL() 
.................... {      
....................       OUTPUT_D(0X00); 
*
02F4:  CLRF   F95
02F6:  CLRF   F8C
....................       OUTPUT_BIT(G_32LED,G_32A); 
02F8:  BTFSC  17.4
02FA:  BRA    0300
02FC:  BCF    F8C.4
02FE:  BRA    0302
0300:  BSF    F8C.4
0302:  BCF    F95.4
....................       OUTPUT_BIT(G_4LED7DOAN,G_4A); 
0304:  BTFSC  17.6
0306:  BRA    030C
0308:  BCF    F8C.6
030A:  BRA    030E
030C:  BSF    F8C.6
030E:  BCF    F95.6
....................       OUTPUT_BIT(G_LCD20X4,G_LCDA);   
0310:  BTFSC  17.2
0312:  BRA    0318
0314:  BCF    F8C.2
0316:  BRA    031A
0318:  BSF    F8C.2
031A:  BCF    F95.2
....................       CHO_IC_74573_A_GOI_DU_LIEU; 
031C:  BCF    F95.1
031E:  BSF    F8C.1
0320:  RETURN 0
.................... } 
.................... VOID MO_IC_74573_B_THONG_DL() 
.................... {      
....................       OUTPUT_D(0X00); 
*
0222:  CLRF   F95
0224:  CLRF   F8C
....................       OUTPUT_BIT(G_MATRANLED,G_MTB); 
0226:  BTFSC  18.6
0228:  BRA    022E
022A:  BCF    F8C.6
022C:  BRA    0230
022E:  BSF    F8C.6
0230:  BCF    F95.6
....................       OUTPUT_BIT(G_8LEDQUET,G_8B); 
0232:  BTFSC  18.4
0234:  BRA    023A
0236:  BCF    F8C.4
0238:  BRA    023C
023A:  BSF    F8C.4
023C:  BCF    F95.4
....................       OUTPUT_BIT(G_BUZERELAY,G_RBDCB);  
023E:  BTFSC  18.2
0240:  BRA    0246
0242:  BCF    F8C.2
0244:  BRA    0248
0246:  BSF    F8C.2
0248:  BCF    F95.2
....................       CHO_IC_74573_B_GOI_DU_LIEU; 
024A:  BCF    F95.0
024C:  BSF    F8C.0
024E:  RETURN 0
.................... } 
.................... //ham 401 
.................... //XXXXXXXXXXXXXXXXXXXXXXXXXXXXXXXXXXXXXXXXXXXX 
.................... //CHUONG TRINH CON XUAT 4 BYTE RA 4 LED 7 DOAN 
.................... //XXXXXXXXXXXXXXXXXXXXXXXXXXXXXXXXXXXXXXXXXXXX 
.................... VOID XUAT_4LED_7DOAN_4SO(UNSIGNED INT BL743,BL742,BL741,BL740) 
.................... {      
....................       XUAT_1BYTE(BL740);   XUAT_1BYTE(BL741); 
....................       XUAT_1BYTE(BL742);   XUAT_1BYTE(BL743); 
....................        
....................       MO_4_LED_7DOAN; 
....................       MO_IC_74573_A_THONG_DL(); 
....................         
....................       OUTPUT_LOW(RCK_4LED7DOAN);   OUTPUT_HIGH(RCK_4LED7DOAN);  
....................       CHOT_IC_74573_A_GOI_DU_LIEU; 
.................... } 
.................... //ham 404 
.................... VOID XUAT_4LED_7DOAN_3SO(UNSIGNED INT BL742,BL741,BL740) 
.................... {      
....................      XUAT_4LED_7DOAN_4SO(0XFF,BL742,BL741,BL740); 
.................... } 
.................... //ham 403 
.................... VOID XUAT_4LED_7DOAN_2SO(UNSIGNED INT BL741,BL740) 
.................... {      
....................      XUAT_4LED_7DOAN_4SO(0XFF,0XFF,BL741,BL740); 
.................... } 
.................... //ham 402 
.................... VOID XUAT_4LED_7DOAN_1SO(UNSIGNED INT BL740) 
.................... {      
....................      XUAT_4LED_7DOAN_4SO(0XFF,0XFF,0XFF,BL740); 
.................... } 
....................  
.................... //ham 405 
.................... //XXXXXXXXXXXXXXXXXXXXXXXXXXXXXXXXXXXXXXXXXXXXXXXXXXXXXXXXXXXXX 
.................... //CHUONG TRINH CON HIEN THI DU LIEU 16 BIT TREN 4 LED 7 DOAN 
.................... //XXXXXXXXXXXXXXXXXXXXXXXXXXXXXXXXXXXXXXXXXXXXXXXXXXXXXXXXXXXXX 
.................... UNSIGNED CHAR DONVI4,CHUC4,TRAM4,NGAN4; 
.................... VOID  XUAT_4LED_7DOAN_GIAIMA_XOA_SO0 (UNSIGNED INT16 TAM) 
.................... {          
....................       DONVI4 = MA7DOAN[TAM %10];          
....................       CHUC4  = MA7DOAN[TAM/10%10]; 
....................       TRAM4  = MA7DOAN[TAM/100%10];  
....................       NGAN4  = MA7DOAN[TAM/1000%10];        
....................       IF (NGAN4==0XC0) 
....................       { 
....................          NGAN4=0XFF; 
....................          IF (TRAM4==0XC0) 
....................          { 
....................             TRAM4=0XFF; 
....................             IF (CHUC4==0XC0)   CHUC4=0XFF; 
....................          } 
....................       } 
....................       XUAT_4LED_7DOAN_4SO(NGAN4,TRAM4,CHUC4,DONVI4);    
.................... } 
.................... UNSIGNED INT8 LCDDATA=0;  
.................... UNSIGNED INT8 LCDCONTROL=0; 
.................... UNSIGNED INT8 GLCDDATA=0; 
.................... UNSIGNED INT8 GLCDCONTROL=0;  
.................... //HAM 701 
.................... //XXXXXXXXXXXXXXXXXXXXXXXXXXXXXXXXXXXXXXXXXXXXXXXXXXXXXXXXXXXXX 
.................... //CHUONG TRINH CON XUAT DU LIEU 4 BYTE RA GLCD VA LCD 
.................... //XXXXXXXXXXXXXXXXXXXXXXXXXXXXXXXXXXXXXXXXXXXXXXXXXXXXXXXXXXXXX 
.................... VOID XUAT_GLCD_LCD() 
.................... {       
....................     XUAT_1BYTE(GLCDCONTROL);              
*
0322:  MOVFF  23,47C
0326:  RCALL  01F4
....................     XUAT_1BYTE(GLCDDATA); 
0328:  MOVFF  22,47C
032C:  RCALL  01F4
....................     XUAT_1BYTE(LCDCONTROL);        
032E:  MOVFF  21,47C
0332:  RCALL  01F4
....................     XUAT_1BYTE(LCDDATA);       
0334:  MOVFF  20,47C
0338:  RCALL  01F4
....................        
....................     MO_GLCD_LCD; 
033A:  BCF    17.2
....................     MO_IC_74573_A_THONG_DL();             
033C:  RCALL  02F4
....................     OUTPUT_HIGH(RCK_LCD20X4);      
033E:  BCF    F95.3
0340:  BSF    F8C.3
....................     OUTPUT_LOW(RCK_LCD20X4); 
0342:  BCF    F95.3
0344:  BCF    F8C.3
....................     CHOT_IC_74573_A_GOI_DU_LIEU; 
0346:  BCF    F95.1
0348:  BCF    F8C.1
034A:  RETURN 0
.................... } 
.................... //HAM 702 
.................... VOID XUAT_LCD20X4(UNSIGNED INT8 LCD_SIGNAL,LCD_INS_HTHI) 
.................... {      
....................     LCDCONTROL = ~LCD_SIGNAL; 
*
051A:  MOVLB  4
051C:  MOVFF  459,21
0520:  COMF   21,F
....................     LCDDATA    = ~LCD_INS_HTHI;       
0522:  MOVFF  45A,20
0526:  COMF   20,F
0528:  CLRF   16
052A:  BTFSC  FF2.7
052C:  BSF    16.7
052E:  BCF    FF2.7
....................     XUAT_GLCD_LCD(); 
0530:  MOVLB  0
0532:  RCALL  0322
0534:  BTFSC  16.7
0536:  BSF    FF2.7
0538:  RETURN 0
.................... } 
.................... //HAM 703 
.................... VOID XUAT_GLCD128X64(UNSIGNED INT8 GLCD_SIGNAL,GLCD_INS_HTHI) 
.................... {      
....................     GLCDCONTROL = ~GLCD_SIGNAL; 
*
034C:  MOVLB  4
034E:  MOVFF  47A,23
0352:  COMF   23,F
....................     GLCDDATA    = ~GLCD_INS_HTHI;      
0354:  MOVFF  47B,22
0358:  COMF   22,F
....................     XUAT_GLCD_LCD(); 
035A:  MOVLB  0
035C:  RCALL  0322
035E:  RETURN 0
.................... } 
.................... //HAM 501 
.................... //XXXXXXXXXXXXXXXXXXXXXXXXXXXXXXXXXXXXXXXXXXXX 
.................... //CHUONG TRINH CON XUAT 2 BYTE RA DK 1 LED QUET SANG 
.................... //XXXXXXXXXXXXXXXXXXXXXXXXXXXXXXXXXXXXXXXXXXXX 
.................... VOID XUAT_8LED_7DOAN_QUET_1(UNSIGNED INT MA,SO_HTHI) 
.................... {      
....................       XUAT_1BYTE(~MA);   XUAT_1BYTE(~SO_HTHI); 
*
02B6:  MOVLB  4
02B8:  MOVFF  475,477
02BC:  COMF   x77,F
02BE:  MOVFF  477,47C
02C2:  MOVLB  0
02C4:  RCALL  01F4
02C6:  MOVLB  4
02C8:  MOVFF  476,477
02CC:  COMF   x77,F
02CE:  MOVFF  477,47C
02D2:  MOVLB  0
02D4:  RCALL  01F4
....................        
....................       MO_8_LED_QUET; 
02D6:  BCF    18.4
....................       MO_IC_74573_B_THONG_DL(); 
02D8:  RCALL  0222
....................        
....................       OUTPUT_HIGH(RCK_8LEDQUET); OUTPUT_LOW(RCK_8LEDQUET); 
02DA:  BCF    F95.5
02DC:  BSF    F8C.5
02DE:  BCF    F95.5
02E0:  BCF    F8C.5
....................       CHOT_IC_74573_B_GOI_DU_LIEU; 
02E2:  BCF    F95.0
02E4:  BCF    F8C.0
02E6:  RETURN 0
.................... } 
.................... //HAM 502 
.................... //XXXXXXXXXXXXXXXXXXXXXXXXXXXXXXXXXXXXXXXXXXXX 
.................... //CHUONG TRINH CON XUAT 2 BYTE RA TAT 8 LED QUET 
.................... //XXXXXXXXXXXXXXXXXXXXXXXXXXXXXXXXXXXXXXXXXXXX 
.................... VOID XUAT_8LED_7DOAN_QUET_TAT_LED() 
.................... { 
....................    XUAT_8LED_7DOAN_QUET_1(0XFF,0XFF); 
02E8:  MOVLB  4
02EA:  SETF   x75
02EC:  SETF   x76
02EE:  MOVLB  0
02F0:  RCALL  02B6
02F2:  RETURN 0
.................... } 
.................... //HAM 503 
.................... //XXXXXXXXXXXXXXXXXXXXXXXXXXXXXXXXXXXXXXXXXXXX 
.................... //CHUONG TRINH CON HIEN THI LED THEO THU TU 
.................... //XXXXXXXXXXXXXXXXXXXXXXXXXXXXXXXXXXXXXXXXXXXX 
.................... CONST UNSIGNED CHAR TTLEDQUET[8]= {0x7F,0xBF,0xDF,0xEF,0xF7,0xFB,0xFD,0xFE}; 
.................... VOID XUAT_8LED_7DOAN_QUET_2(UNSIGNED INT THUTULED,SO_HTHI) 
.................... {          
....................       XUAT_1BYTE(~ (TTLEDQUET[THUTULED]));   XUAT_1BYTE(~SO_HTHI);      
*
0250:  CLRF   03
0252:  MOVLB  4
0254:  MOVF   x76,W
0256:  MOVFF  FF2,478
025A:  BCF    FF2.7
025C:  MOVLB  0
025E:  RCALL  00C0
0260:  MOVLB  4
0262:  BTFSC  x78.7
0264:  BSF    FF2.7
0266:  MOVWF  01
0268:  MOVWF  x78
026A:  COMF   x78,F
026C:  MOVFF  478,47C
0270:  MOVLB  0
0272:  RCALL  01F4
0274:  MOVLB  4
0276:  MOVFF  477,478
027A:  COMF   x78,F
027C:  MOVFF  478,47C
0280:  MOVLB  0
0282:  RCALL  01F4
....................       MO_8_LED_QUET; 
0284:  BCF    18.4
....................       MO_IC_74573_B_THONG_DL(); 
0286:  RCALL  0222
....................       OUTPUT_HIGH(RCK_8LEDQUET); OUTPUT_LOW(RCK_8LEDQUET); 
0288:  BCF    F95.5
028A:  BSF    F8C.5
028C:  BCF    F95.5
028E:  BCF    F8C.5
....................       CHOT_IC_74573_B_GOI_DU_LIEU; 
0290:  BCF    F95.0
0292:  BCF    F8C.0
0294:  RETURN 0
.................... } 
.................... //HAM 504 
.................... //XXXXXXXXXXXXXXXXXXXXXXXXXXXXXXXXXXXXXXXXXXXX 
.................... //CHUONG TRINH CON HIEN THI 8 SO TREN 8 LED QUET - CO KIEM TRA 
.................... //XXXXXXXXXXXXXXXXXXXXXXXXXXXXXXXXXXXXXXXXXXXX 
.................... UNSIGNED INT8 LED_7DQ[8]={0XFF,0XFF,0XFF,0XFF,0XFF,0XFF,0XFF,0XFF}; 
.................... UNSIGNED INT8 TT8LED=0; 
.................... VOID HIEN_THI_8LED_7DOAN_QUET() 
.................... {      
....................       FOR(TT8LED=0;TT8LED<8;TT8LED++) 
....................          IF (LED_7DQ[TT8LED]!=0XFF) 
....................          {            
....................             XUAT_8LED_7DOAN_QUET_2(TT8LED, LED_7DQ[TT8LED]); 
....................             DELAY_US(100); 
....................             XUAT_8LED_7DOAN_QUET_TAT_LED();            
....................             } 
.................... } 
.................... //HAM 505 
.................... //XXXXXXXXXXXXXXXXXXXXXXXXXXXXXXXXXXXXXXXXXXXX 
.................... //CHUONG TRINH CON HIEN THI 8 SO TREN 8 LED QUET - KHONG KIEM TRA 
.................... //XXXXXXXXXXXXXXXXXXXXXXXXXXXXXXXXXXXXXXXXXXXX 
.................... VOID HIEN_THI_8LED_7DOAN_QUET_ALL() 
.................... {      
....................       FOR(TT8LED=0;TT8LED<8;TT8LED++)          
....................          {            
....................             XUAT_8LED_7DOAN_QUET_2(TT8LED, LED_7DQ[TT8LED]); 
....................             DELAY_US(100); 
....................             XUAT_8LED_7DOAN_QUET_TAT_LED();            
....................             } 
.................... } 
....................  
.................... VOID DELAY_QUET_8LED(UNSIGNED INT16 DL) 
.................... {  
....................       UNSIGNED INT8 I; 
....................       FOR (I=0; I<DL;I++) 
....................       HIEN_THI_8LED_7DOAN_QUET_ALL(); 
.................... }  
....................  
.................... VOID GIAI_MA_GAN_CHO_8LED_QUET_16_XOA(UNSIGNED INT16 X) 
.................... {      
....................       LED_7DQ[0]= MA7DOAN [X %10];     
....................       LED_7DQ[1]= MA7DOAN [X/10%10]; 
....................       LED_7DQ[2]= MA7DOAN [X/100%10];     
....................       LED_7DQ[3]= MA7DOAN [X/1000%10]; 
....................       LED_7DQ[4]= MA7DOAN [X/10000%10]; 
....................       IF (LED_7DQ[4]==MASO0)  
....................       { 
....................             LED_7DQ[4]=0XFF; 
....................             IF (LED_7DQ[3]==MASO0)  
....................             { 
....................                LED_7DQ[3]=0XFF; 
....................                IF (LED_7DQ[2]==MASO0)  
....................                { 
....................                   LED_7DQ[2]=0XFF; 
....................                   IF (LED_7DQ[1]==MASO0)  
....................                   { 
....................                      LED_7DQ[1]=0XFF; 
....................                   } 
....................                } 
....................             } 
....................       } 
....................              
.................... } 
.................... //XXXXXXXXXXXXXXXXXXXXXXXXXXXXXXXXXXXXXXXXXXXX          
.................... VOID XUAT_2BYTE(UNSIGNED INT16 BYTE2XUAT) 
.................... { 
....................    INT8 SBB; 
....................    UNSIGNED INT16   XX;   //SHORT  BSERI; 
....................    #BIT BSERIX  = XX.15 
....................    XX = BYTE2XUAT; 
....................    FOR (SBB=0;SBB<16;SBB++) 
....................       {                                                  
....................          OUTPUT_BIT(SSDO,BSERIX);     
....................          OUTPUT_LOW(SSCK);          
....................          OUTPUT_HIGH(SSCK); 
....................          XX= XX<<1;          
....................      } 
.................... } 
.................... //XXXXXXXXXXXXXXXXXXXXXXXXXXXXXXXXXXXXXXXXXXXX 
.................... //CHUONG TRINH CON XUAT RA LED MA TRAN 
.................... //XXXXXXXXXXXXXXXXXXXXXXXXXXXXXXXXXXXXXXXXXXXX 
.................... VOID XUAT_MATRANLED(UNSIGNED INT16 MAHANG,UNSIGNED INT16 MACOT1, 
.................... UNSIGNED INT16 MACOT2,UNSIGNED INT16 MACOT3) 
.................... {       
....................       XUAT_2BYTE(MACOT3); 
....................       XUAT_2BYTE(MACOT2); 
....................       XUAT_2BYTE(MACOT1); 
....................       XUAT_2BYTE(MAHANG); 
....................        
....................       MO_LED_MATRAN; 
....................       MO_IC_74573_B_THONG_DL(); 
....................        
....................       OUTPUT_HIGH(RCK_MATRANLED); OUTPUT_LOW(RCK_MATRANLED);  
....................       CHOT_IC_74573_B_GOI_DU_LIEU; 
.................... } 
.................... //XXXXXXXXXXXXXXXXXXXXXXXXXXXXXXXXXXXXXXXXXXXX 
.................... //CHUONG TRINH CON XUAT RA LED MA TRAN 
.................... //XXXXXXXXXXXXXXXXXXXXXXXXXXXXXXXXXXXXXXXXXXXX 
.................... VOID TAT_MATRANLED() 
.................... {       
....................       XUAT_2BYTE(0); 
....................       XUAT_2BYTE(0); 
....................       XUAT_2BYTE(0); 
....................       XUAT_2BYTE(0);            
....................       OUTPUT_HIGH(RCK_MATRANLED);  
....................       OUTPUT_LOW(RCK_MATRANLED); 
.................... } 
.................... UNSIGNED  INT8 HIEU_CHINH_4BIT_CAO(UNSIGNED INT8 XZY) 
.................... { 
....................       INT1  BTG; 
....................       UNSIGNED INT8   BX;    
....................       #BIT BIT4  = BX.4 
....................       #BIT BIT5  = BX.5 
....................       #BIT BIT6  = BX.6 
....................       #BIT BIT7  = BX.7 
....................       BX=XZY; 
....................       BTG=BIT4;   BIT4=BIT7;  BIT7=BTG; 
....................       BTG=BIT5;   BIT5=BIT6;  BIT6=BTG;       
....................       RETURN(BX);   
.................... } 
.................... //HAM 601 
.................... //XXXXXXXXXXXXXXXXXXXXXXXXXXXXXXXXXXXXXXXXXXXXXXXXXXXX 
.................... //MODULE DIEU KHIEN RELAY,TRIAC, BUZZER, DONG CO, SIM 
.................... //XXXXXXXXXXXXXXXXXXXXXXXXXXXXXXXXXXXXXXXXXXXXXXXXXXXX 
.................... VOID XUAT_BUZZER_RELAY() 
.................... {      
....................    UNSIGNED INT8 RBDC1,RBDC2; 
....................       RBDC1=RBDC; RBDC2=RBDC>>8;       
....................       XUAT_1BYTE(RBDC2);       
....................       XUAT_1BYTE(RBDC1); 
....................       MO_RELAY_BUZZER_DC; 
....................       MO_IC_74573_B_THONG_DL(); 
....................        
....................       OUTPUT_HIGH(RCK_BUZERELAY);   OUTPUT_LOW(RCK_BUZERELAY); 
....................       CHOT_IC_74573_B_GOI_DU_LIEU; 
.................... } 
.................... //HAM 602 
.................... //XXXXXXXXXXXXXXXXXXXXXXXXXXXXXXXXXXXXXXXXXXXXXXXXXXXX 
.................... VOID BUZZER_ON() 
.................... {     
....................       BUZZER=1; 
....................       XUAT_BUZZER_RELAY();          
.................... } 
.................... //HAM 603 
.................... //XXXXXXXXXXXXXXXXXXXXXXXXXXXXXXXXXXXXXXXXXXXXXXXXXXXX 
.................... VOID BUZZER_OFF() 
.................... {      
....................       BUZZER=0; 
....................       XUAT_BUZZER_RELAY(); 
.................... } 
.................... //HAM 604 
.................... //XXXXXXXXXXXXXXXXXXXXXXXXXXXXXXXXXXXXXXXXXXXXXXXXXXXX 
.................... VOID RELAY_1_ON() 
.................... {     
....................       RELAY_1=1; 
....................       XUAT_BUZZER_RELAY();          
.................... } 
.................... //HAM 603 
.................... //XXXXXXXXXXXXXXXXXXXXXXXXXXXXXXXXXXXXXXXXXXXXXXXXXXXX 
.................... VOID RELAY_1_OFF() 
.................... {     
....................       RELAY_1=0; 
....................       XUAT_BUZZER_RELAY();          
.................... } 
.................... //HAM 604 
.................... //XXXXXXXXXXXXXXXXXXXXXXXXXXXXXXXXXXXXXXXXXXXXXXXXXXXX 
.................... VOID RELAY_2_ON() 
.................... {     
....................       RELAY_2=1; 
....................       XUAT_BUZZER_RELAY();          
.................... } 
.................... //HAM 607 
.................... //XXXXXXXXXXXXXXXXXXXXXXXXXXXXXXXXXXXXXXXXXXXXXXXXXXXX 
.................... VOID RELAY_2_OFF() 
.................... {     
....................       RELAY_2=0; 
....................       XUAT_BUZZER_RELAY();          
.................... } 
.................... //HAM 608 
.................... //XXXXXXXXXXXXXXXXXXXXXXXXXXXXXXXXXXXXXXXXXXXXXXXXXXXX 
.................... VOID RELAY_1_RELAY_2_ON() 
.................... {     
....................       RELAY_1=1;  RELAY_2=1; 
....................       XUAT_BUZZER_RELAY();          
.................... } 
.................... //HAM 609 
.................... //XXXXXXXXXXXXXXXXXXXXXXXXXXXXXXXXXXXXXXXXXXXXXXXXXXXX 
.................... VOID RELAY_1_RELAY_2_OFF() 
.................... {     
....................       RELAY_1=0;  RELAY_2=0; 
....................       XUAT_BUZZER_RELAY();          
.................... } 
.................... //HAM 610 
.................... //XXXXXXXXXXXXXXXXXXXXXXXXXXXXXXXXXXXXXXXXXXXXXXXXXXXX 
.................... VOID TRIAC_1_ON() 
.................... {     
....................       TRIAC_1=1; 
....................       XUAT_BUZZER_RELAY();          
.................... } 
.................... //HAM 611 
.................... //XXXXXXXXXXXXXXXXXXXXXXXXXXXXXXXXXXXXXXXXXXXXXXXXXXXX 
.................... VOID TRIAC_1_OFF() 
.................... {     
....................       TRIAC_1=0; 
....................       XUAT_BUZZER_RELAY();          
.................... } 
.................... //HAM 612 
.................... //XXXXXXXXXXXXXXXXXXXXXXXXXXXXXXXXXXXXXXXXXXXXXXXXXXXX 
.................... VOID TRIAC_2_ON() 
.................... {     
....................       TRIAC_2=1; 
....................       XUAT_BUZZER_RELAY();          
.................... } 
.................... //HAM 613 
.................... //XXXXXXXXXXXXXXXXXXXXXXXXXXXXXXXXXXXXXXXXXXXXXXXXXXXX 
.................... VOID TRIAC_2_OFF() 
.................... {     
....................       TRIAC_2=0; 
....................       XUAT_BUZZER_RELAY();          
.................... } 
.................... //XXXXXXXXXXXXXXXXXXXXXXXXXXXXXXXXXXXXXXXXXXXX 
....................  
....................  
....................  
.................... #include <TV_PICKIT2_SHIFT_DS13B07_I2C.c> 
.................... #INCLUDE <TV_PICKIT2_SHIFT_LCD.c> 
.................... UNSIGNED INT8 LCD_CONTROL;   
.................... #bit LCD_P = LCD_CONTROL.3 
.................... #bit LCD_RS = LCD_CONTROL.2 
.................... #bit LCD_RW = LCD_CONTROL.1 
.................... #bit LCD_E  = LCD_CONTROL.0 
....................  
.................... #DEFINE LCD_FUNCTION_SET       0X38 
.................... #DEFINE LCD_DISPLAY_CONTROL    0X0C 
.................... #DEFINE LCD_CLEAR_DISPLAY      0X01 
.................... #DEFINE LCD_ENTRY_MODE         0X06 
.................... #DEFINE LCD_SHIFT_LEFT         0X18 
.................... #DEFINE LCD_SHIFT_RIGHT        0X1C 
....................  
.................... #DEFINE LCD_ADDR_LINE1         0X80 
.................... #DEFINE LCD_ADDR_LINE2         0XC0 
.................... #DEFINE LCD_ADDR_LINE3         0X94 
.................... #DEFINE LCD_ADDR_LINE4         0XD4 
....................  
.................... VOID LCD_XUAT_8BIT(INT8 LCD_DATA_X) 
.................... { 
....................       LCD_E=1; XUAT_LCD20X4(LCD_CONTROL,LCD_DATA_X);      
*
053A:  BSF    2D.0
053C:  MOVFF  2D,459
0540:  MOVFF  458,45A
0544:  RCALL  051A
....................       LCD_E=0; XUAT_LCD20X4(LCD_CONTROL,LCD_DATA_X);  
0546:  BCF    2D.0
0548:  MOVFF  2D,459
054C:  MOVFF  458,45A
0550:  RCALL  051A
0552:  RETURN 0
.................... } 
.................... void LCD_COMMAND(INT8 LCD_DATA_X)    
....................   { 
....................       LCD_RS = 0; 
0554:  BCF    2D.2
....................       LCD_XUAT_8BIT(LCD_DATA_X); 
0556:  MOVFF  457,458
055A:  RCALL  053A
....................       DELAY_US(20); 
055C:  MOVLW  20
055E:  MOVWF  00
0560:  DECFSZ 00,F
0562:  BRA    0560
0564:  BRA    0566
0566:  NOP   
0568:  RETURN 0
....................   } 
.................... void LCD_DATA(INT8 LCD_DATA_X)        
....................   { 
....................       LCD_RS = 1;      
*
076E:  BSF    2D.2
....................       LCD_XUAT_8BIT(LCD_DATA_X); 
0770:  MOVFF  454,458
0774:  RCALL  053A
....................       DELAY_US(20); 
0776:  MOVLW  20
0778:  MOVWF  00
077A:  DECFSZ 00,F
077C:  BRA    077A
077E:  BRA    0780
0780:  NOP   
0782:  RETURN 0
....................   } 
....................    
.................... VOID SETUP_LCD () 
.................... {                      
....................          LCD_E  = 0;  
*
0592:  BCF    2D.0
....................          LCD_RW = 0;  
0594:  BCF    2D.1
....................          LCD_RS = 1;  
0596:  BSF    2D.2
....................          LCD_P =0; 
0598:  BCF    2D.3
....................          LCD_COMMAND(LCD_FUNCTION_SET);          
059A:  MOVLW  38
059C:  MOVLB  4
059E:  MOVWF  x57
05A0:  MOVLB  0
05A2:  RCALL  0554
....................          DELAY_US(40); 
05A4:  MOVLW  42
05A6:  MOVWF  00
05A8:  DECFSZ 00,F
05AA:  BRA    05A8
05AC:  NOP   
....................          LCD_COMMAND(LCD_DISPLAY_CONTROL);    
05AE:  MOVLW  0C
05B0:  MOVLB  4
05B2:  MOVWF  x57
05B4:  MOVLB  0
05B6:  RCALL  0554
....................          DELAY_US(40); 
05B8:  MOVLW  42
05BA:  MOVWF  00
05BC:  DECFSZ 00,F
05BE:  BRA    05BC
05C0:  NOP   
....................          LCD_COMMAND(LCD_CLEAR_DISPLAY);       
05C2:  MOVLW  01
05C4:  MOVLB  4
05C6:  MOVWF  x57
05C8:  MOVLB  0
05CA:  RCALL  0554
....................          DELAY_MS(2); 
05CC:  MOVLW  02
05CE:  MOVLB  4
05D0:  MOVWF  x51
05D2:  MOVLB  0
05D4:  RCALL  056A
....................          LCD_COMMAND(LCD_ENTRY_MODE);        
05D6:  MOVLW  06
05D8:  MOVLB  4
05DA:  MOVWF  x57
05DC:  MOVLB  0
05DE:  RCALL  0554
....................          DELAY_US(40);                 
05E0:  MOVLW  42
05E2:  MOVWF  00
05E4:  DECFSZ 00,F
05E6:  BRA    05E4
05E8:  NOP   
05EA:  GOTO   1498 (RETURN)
.................... } 
....................  
.................... CONST UNSIGNED CHAR LCD_SO_X[10+1+1+1+7][6] ={ 
....................                   0,1,2,5,3,4,               // SO 0 
....................                   1,2,32,3,7,3,              // SO 1 
....................                   6,6,2,5,3,3,               // SO 2 
....................                   6,6,2,3,3,4,               // SO 3 
....................                   7,3,7,32,32,7,             // SO 4 
....................                   7,6,6,3,3,4,               // SO 5 
....................                   0,6,6,5,3,4,               // SO 6 
....................                   1,1,7,32,32,7,             // SO 7 
....................                   0,6,2,5,3,4,               // SO 8 
....................                   0,6,2,3,3,4,               // SO 9 
....................                   32,32,32,32,32,32,         // KHOANG TRANG 0x20 tai vi tri 10 
....................                   0,6,2,5,32,32,              // CHU "P" tai vi tri 11 
....................                   32,32,32,32,7,32,           // DAU CHAM tai vi tri 12 
....................                   7, 32, 32, 7, 6, 7,          // CHU "B" tai vi tri 13 
....................                   7, 3, 7, 7, 32, 7,          // CHU "H" tai vi tri 14 
....................                   3, 3, 7, 7, 3, 7,           // CHU "d" tai vi tri 15 
....................                   32, 32, 32, 3, 3, 3,        // dau gach duoi tai vi tri 16 
....................                   32, 1, 32, 32, 32, 32,      // dau do (oC) tai vi tri 17 
....................                   7, 1, 1, 7, 3, 3,           // CHU "C" tai vi tri 18 
....................                   32, 1, 32, 32, 1, 32       // DAU HAI CHAM : tai vi tri 19 
....................                   }; 
....................                    
....................                    
.................... CONST UNSIGNED CHAR LCD_MA_8DOAN[] = { 
....................    0x07,0x0F,0x1F,0x1F,0x1F,0x1F,0x1F,0x1F,  //DOAN F - 0 
....................    0x1F,0x1F,0x1F,0X00,0X00,0X00,0X00,0X00,  //DOAN A - 1 
....................    0x1C,0x1E,0x1F,0x1F,0x1F,0x1F,0x1F,0x1F,  //DOAN B - 2 
....................    0X00,0X00,0X00,0X00,0X00,0x1F,0x1F,0x1F,  //DOAN D - 3 
....................    0x1F,0x1F,0x1F,0x1F,0x1F,0x1F,0x1E,0x1C,  //DOAN C - 4 
....................    0x1F,0x1F,0x1F,0x1F,0x1F,0x1F,0x0F,0x07,  //DOAN E - 5 
....................    0x1F,0x1F,0x1F,0X00,0X00,0X00,0x1F,0x1F,  //DOAN G+D-6  
....................    0x1F,0x1F,0x1F,0x1F,0x1F,0x1F,0x1F,0x1F}; //DOAN I  -7 
....................     
.................... VOID LCD_GOTO_XY(SIGNED INT8 X, SIGNED INT8 Y) 
.................... {  
....................    CONST UNSIGNED INT8 LCD_VITRI[]={0x80,0xC0,0x94,0xD4}; 
....................    LCD_COMMAND(LCD_VITRI[X]+Y); 
*
088C:  CLRF   03
088E:  MOVLB  4
0890:  MOVF   x54,W
0892:  MOVFF  FF2,456
0896:  BCF    FF2.7
0898:  MOVLB  0
089A:  RCALL  01D6
089C:  MOVLB  4
089E:  BTFSC  x56.7
08A0:  BSF    FF2.7
08A2:  ADDWF  x55,W
08A4:  MOVWF  x56
08A6:  MOVWF  x57
08A8:  MOVLB  0
08AA:  RCALL  0554
08AC:  RETURN 0
.................... } 
....................  
.................... VOID XXX() 
.................... {  
....................    SIGNED INT8 X; 
....................    X= LCD_SO_X[0][0]; 
....................    X= LCD_MA_8DOAN[0]; 
.................... } 
....................  
.................... #define   GIAY_HTAI      0X55 
.................... #define   PHUT_HTAI      0X32 
.................... #define   GIO_HTAI       0X16 
.................... #define   THU_HTAI       2 
.................... #define   NGAY_HTAI      0X10 
.................... #define   THANG_HTAI     0X08 
.................... #define   NAM_HTAI       0X20       
.................... #define   MA_DS          0X91 
....................  
.................... #define  ADDR_WR_13B07   0xD0 
.................... #define  ADDR_RD_13B07   0xD1 
.................... #define  ADDR_MEM        0x00 
....................  
.................... //!UNSIGNED CHAR GIATRI_MOD; 
....................  
.................... UNSIGNED  CHAR    NAM_DS13,THANG_DS13,NGAY_DS13,THU_DS13,GIO_DS13, 
....................                   PHUT_DS13,GIAY_DS13,MA_DS13,CONTROL_DS13,GIAYTAM; 
....................                                 
.................... void THIET_LAP_THOI_GIAN_HIEN_TAI() 
.................... {     GIAY_DS13   =   GIAY_HTAI;       PHUT_DS13  =    PHUT_HTAI;    
*
0784:  MOVLW  55
0786:  MOVWF  34
0788:  MOVLW  32
078A:  MOVWF  33
....................       GIO_DS13    =   GIO_HTAI;        THU_DS13   =    THU_HTAI; 
078C:  MOVLW  16
078E:  MOVWF  32
0790:  MOVLW  02
0792:  MOVWF  31
....................       NGAY_DS13   =   NGAY_HTAI;       THANG_DS13 =    THANG_HTAI;    
0794:  MOVLW  10
0796:  MOVWF  30
0798:  MOVLW  08
079A:  MOVWF  2F
....................       NAM_DS13    =   NAM_HTAI;    
079C:  MOVLW  20
079E:  MOVWF  2E
....................       CONTROL_DS13 = 0X90;             MA_DS13      =   MA_DS; 
07A0:  MOVLW  90
07A2:  MOVWF  36
07A4:  MOVLW  91
07A6:  MOVWF  35
07A8:  GOTO   14FA (RETURN)
.................... } 
....................   
.................... void NAP_THOI_GIAN_HTAI_VAO_DS13B07() 
.................... {     I2C_START();          
07AC:  BSF    F93.0
07AE:  MOVLW  05
07B0:  MOVWF  00
07B2:  DECFSZ 00,F
07B4:  BRA    07B2
07B6:  BSF    F93.1
07B8:  MOVLW  06
07BA:  MOVWF  00
07BC:  DECFSZ 00,F
07BE:  BRA    07BC
07C0:  BCF    F8A.0
07C2:  BCF    F93.0
07C4:  MOVLW  05
07C6:  MOVWF  00
07C8:  DECFSZ 00,F
07CA:  BRA    07C8
07CC:  BCF    F8A.1
07CE:  BCF    F93.1
....................       I2C_WRITE(ADDR_WR_13B07);     
07D0:  MOVLW  D0
07D2:  MOVLB  4
07D4:  MOVWF  x50
07D6:  MOVLB  0
07D8:  RCALL  05EE
....................       I2C_WRITE(0X00); 
07DA:  MOVLB  4
07DC:  CLRF   x50
07DE:  MOVLB  0
07E0:  RCALL  05EE
....................       I2C_WRITE(GIAY_DS13);        I2C_WRITE(PHUT_DS13);       
07E2:  MOVFF  34,450
07E6:  RCALL  05EE
07E8:  MOVFF  33,450
07EC:  RCALL  05EE
....................       I2C_WRITE(GIO_DS13);         I2C_WRITE(THU_DS13);       
07EE:  MOVFF  32,450
07F2:  RCALL  05EE
07F4:  MOVFF  31,450
07F8:  RCALL  05EE
....................       I2C_WRITE(NGAY_DS13);        I2C_WRITE(THANG_DS13);             
07FA:  MOVFF  30,450
07FE:  RCALL  05EE
0800:  MOVFF  2F,450
0804:  RCALL  05EE
....................       I2C_WRITE(NAM_DS13);         I2C_WRITE(CONTROL_DS13);    
0806:  MOVFF  2E,450
080A:  RCALL  05EE
080C:  MOVFF  36,450
0810:  RCALL  05EE
....................       I2C_WRITE(MA_DS13); 
0812:  MOVFF  35,450
0816:  RCALL  05EE
....................       I2C_STOP(); 
0818:  BCF    F93.0
081A:  NOP   
081C:  BSF    F93.1
081E:  BTFSS  F81.1
0820:  BRA    081E
0822:  MOVLW  05
0824:  MOVWF  00
0826:  DECFSZ 00,F
0828:  BRA    0826
082A:  BRA    082C
082C:  NOP   
082E:  BSF    F93.0
0830:  MOVLW  05
0832:  MOVWF  00
0834:  DECFSZ 00,F
0836:  BRA    0834
0838:  GOTO   14FE (RETURN)
.................... } 
....................      
.................... void DOC_THOI_GIAN_TU_REALTIME() 
.................... {    
....................       I2C_START(); 
*
068C:  BSF    F93.0
068E:  MOVLW  05
0690:  MOVWF  00
0692:  DECFSZ 00,F
0694:  BRA    0692
0696:  BSF    F93.1
0698:  MOVLW  06
069A:  MOVWF  00
069C:  DECFSZ 00,F
069E:  BRA    069C
06A0:  BCF    F8A.0
06A2:  BCF    F93.0
06A4:  MOVLW  05
06A6:  MOVWF  00
06A8:  DECFSZ 00,F
06AA:  BRA    06A8
06AC:  BCF    F8A.1
06AE:  BCF    F93.1
....................       I2C_WRITE(ADDR_WR_13B07); 
06B0:  MOVLW  D0
06B2:  MOVLB  4
06B4:  MOVWF  x50
06B6:  MOVLB  0
06B8:  RCALL  05EE
....................       I2C_WRITE(ADDR_MEM);                      
06BA:  MOVLB  4
06BC:  CLRF   x50
06BE:  MOVLB  0
06C0:  RCALL  05EE
....................       I2C_START();                 
06C2:  BSF    F93.0
06C4:  MOVLW  05
06C6:  MOVWF  00
06C8:  DECFSZ 00,F
06CA:  BRA    06C8
06CC:  BSF    F93.1
06CE:  MOVLW  06
06D0:  MOVWF  00
06D2:  DECFSZ 00,F
06D4:  BRA    06D2
06D6:  BTFSS  F81.1
06D8:  BRA    06D6
06DA:  BCF    F8A.0
06DC:  BCF    F93.0
06DE:  MOVLW  05
06E0:  MOVWF  00
06E2:  DECFSZ 00,F
06E4:  BRA    06E2
06E6:  BCF    F8A.1
06E8:  BCF    F93.1
....................                  
....................       I2C_WRITE(ADDR_RD_13B07); 
06EA:  MOVLW  D1
06EC:  MOVLB  4
06EE:  MOVWF  x50
06F0:  MOVLB  0
06F2:  RCALL  05EE
....................       GIAY_DS13      =  I2C_READ();               
06F4:  MOVLW  01
06F6:  MOVWF  00
06F8:  RCALL  0640
06FA:  MOVFF  01,34
....................       PHUT_DS13      =  I2C_READ();              
06FE:  MOVLW  01
0700:  MOVWF  00
0702:  RCALL  0640
0704:  MOVFF  01,33
....................       GIO_DS13       =  I2C_READ();              
0708:  MOVLW  01
070A:  MOVWF  00
070C:  RCALL  0640
070E:  MOVFF  01,32
....................       THU_DS13       =  I2C_READ();  
0712:  MOVLW  01
0714:  MOVWF  00
0716:  RCALL  0640
0718:  MOVFF  01,31
....................       NGAY_DS13      =  I2C_READ();  
071C:  MOVLW  01
071E:  MOVWF  00
0720:  RCALL  0640
0722:  MOVFF  01,30
....................       THANG_DS13     =  I2C_READ();  
0726:  MOVLW  01
0728:  MOVWF  00
072A:  RCALL  0640
072C:  MOVFF  01,2F
....................       NAM_DS13       =  I2C_READ();  
0730:  MOVLW  01
0732:  MOVWF  00
0734:  RCALL  0640
0736:  MOVFF  01,2E
....................       CONTROL_DS13   =  I2C_READ();           
073A:  MOVLW  01
073C:  MOVWF  00
073E:  RCALL  0640
0740:  MOVFF  01,36
....................       MA_DS13        =  I2C_READ(0);     //NOT ACK 
0744:  CLRF   00
0746:  RCALL  0640
0748:  MOVFF  01,35
....................       I2C_STOP(); 
074C:  BCF    F93.0
074E:  NOP   
0750:  BSF    F93.1
0752:  BTFSS  F81.1
0754:  BRA    0752
0756:  MOVLW  05
0758:  MOVWF  00
075A:  DECFSZ 00,F
075C:  BRA    075A
075E:  BRA    0760
0760:  NOP   
0762:  BSF    F93.0
0764:  MOVLW  05
0766:  MOVWF  00
0768:  DECFSZ 00,F
076A:  BRA    0768
076C:  RETURN 0
.................... }     
....................  
....................     
.................... void DOC_GIAY_TU_REALTIME() 
.................... {    
....................       I2C_START(); 
....................       I2C_WRITE(ADDR_WR_13B07); 
....................       I2C_WRITE(ADDR_MEM);                      
....................       I2C_START();                 
....................                  
....................       I2C_WRITE(ADDR_RD_13B07); 
....................       GIAY_DS13      =  I2C_READ(0);               
....................       I2C_STOP(); 
.................... }   
....................          
....................   
.................... void HIEN_THI_THOI_GIAN_DS13B07 ( ) 
.................... {     LCD_COMMAND (0x8C);    
....................       LCD_DATA(GIO_DS13/16  +0X30);    LCD_DATA(GIO_DS13%16  +0X30); 
....................       LCD_DATA(' '); 
....................       LCD_DATA(PHUT_DS13/16 +0X30);    LCD_DATA(PHUT_DS13%16 +0X30); 
....................       LCD_DATA(' '); 
....................       LCD_DATA(GIAY_DS13/16 +0X30);    LCD_DATA(GIAY_DS13%16 +0X30); 
....................       LCD_COMMAND (0xCC);   
....................       LCD_DATA(NGAY_DS13/16 +0X30);    LCD_DATA(NGAY_DS13%16 +0X30); 
....................       LCD_DATA(' '); 
....................       LCD_DATA(THANG_DS13/16 +0X30);   LCD_DATA(THANG_DS13%16 +0X30); 
....................       LCD_DATA(' '); 
....................       LCD_DATA(NAM_DS13/16 +0X30);     LCD_DATA(NAM_DS13%16 +0X30);  
.................... } 
....................  
.................... //!void HT_DS1307 ( ) 
.................... //!{      
.................... //!    LCD_COMMAND (0x8C);    
.................... //!      LCD_DATA(GIO_DS13/16  +0X30);    LCD_DATA(GIO_DS13%16  +0X30); 
.................... //!      LCD_DATA(' '); 
.................... //!      LCD_DATA(PHUT_DS13/16 +0X30);    LCD_DATA(PHUT_DS13%16 +0X30); 
.................... //!      LCD_DATA(' '); 
.................... //!      LCD_DATA(GIAY_DS13/16 +0X30);    LCD_DATA(GIAY_DS13%16 +0X30); 
.................... //!      LCD_COMMAND (0xC6); 
.................... //!      LCD_DATA("THU "); 
.................... //!      LCD_DATA(THU_DS13 +0X30);  
.................... //!      LCD_COMMAND (0xCC);   
.................... //!      LCD_DATA(NGAY_DS13/16 +0X30);    LCD_DATA(NGAY_DS13%16 +0X30); 
.................... //!      LCD_DATA(' '); 
.................... //!      LCD_DATA(THANG_DS13/16 +0X30);   LCD_DATA(THANG_DS13%16 +0X30); 
.................... //!      LCD_DATA(' '); 
.................... //!      LCD_DATA(NAM_DS13/16 +0X30);     LCD_DATA(NAM_DS13%16 +0X30);  
.................... //!} 
.................... //! 
.................... //!VOID HIEN_THI_GIA_TRI_MOD() 
.................... //!{ 
.................... //!   LCD_COMMAND(0X8A); 
.................... //!   LCD_DATA(GIATRI_MOD + 0X30); 
.................... //!} 
....................  
.................... // VI TRI 
.................... //!NAM_DS13==0XD2 
.................... //!THANG_DS13==0XCF 
.................... //!NGAY_DS13==0XCC 
.................... //!GIO_DS13==0X8C 
.................... //!PHUT_DS13==0X8F 
.................... //!GIAY_DS13==0X92 
....................  
.................... #include <tv_pickit2_shift_glcd128x64.c> 
.................... UNSIGNED INT8 GLCD_CONTROL;   
.................... #bit GLCD_P    = GLCD_CONTROL.5 
.................... #bit GLCD_RS   = GLCD_CONTROL.4 
.................... #bit GLCD_RW   = GLCD_CONTROL.3 
.................... #bit GLCD_E    = GLCD_CONTROL.2 
.................... #bit GLCD_CS2  = GLCD_CONTROL.1 
.................... #bit GLCD_CS1  = GLCD_CONTROL.0 
....................  
.................... //#DEFINE GLCD_FUNCTION_SET       0X30 
.................... #DEFINE GLCD_TEXT_MODE          0x30 
.................... #DEFINE GLCD_GRAPHIC_MODE       0x36  
....................  
.................... #DEFINE GLCD_CLEAR_DISPLAY      0X01 
.................... #DEFINE GLCD_CURSOR_DISPLAY     0X0C 
.................... #DEFINE GLCD_ENTRY_MODE         0X06 
....................  
....................  
.................... #DEFINE GLCD_ADDR_LINE1         0X80 
.................... #DEFINE GLCD_ADDR_LINE2         0X90 
.................... #DEFINE GLCD_ADDR_LINE3         0X88 
.................... #DEFINE GLCD_ADDR_LINE4         0X98 
....................  
.................... VOID GLCD_XUAT_8BIT(INT8 GLCD_DATA1) 
.................... { 
....................       GLCD_E=1; XUAT_GLCD128X64(GLCD_CONTROL,GLCD_DATA1);      
*
0360:  BSF    38.2
0362:  MOVFF  38,47A
0366:  MOVFF  479,47B
036A:  RCALL  034C
....................       GLCD_E=0; XUAT_GLCD128X64(GLCD_CONTROL,GLCD_DATA1);  
036C:  BCF    38.2
036E:  MOVFF  38,47A
0372:  MOVFF  479,47B
0376:  RCALL  034C
0378:  RETURN 0
.................... } 
....................  
.................... void GLCD_COMMAND(INT8 GLCD_DATA2)    
....................   { 
....................       GLCD_RS = 0; 
037A:  BCF    38.4
....................       GLCD_XUAT_8BIT(GLCD_DATA2);       
037C:  MOVFF  476,479
0380:  RCALL  0360
0382:  RETURN 0
....................   } 
.................... void GLCD_DATA(INT8 GLCD_DATA3)        
....................   { 
....................       GLCD_RS = 1;      
*
03A6:  BSF    38.4
....................       GLCD_XUAT_8BIT(GLCD_DATA3);      
03A8:  MOVFF  478,479
03AC:  RCALL  0360
03AE:  RETURN 0
....................   } 
....................    
....................   VOID GLCD_DATA_X(INT8 GLCD_DATA3) 
.................... { 
....................       GLCD_RS = 1;      
....................       GLCD_XUAT_8BIT(0XA1); 
....................       GLCD_XUAT_8BIT(0X40);   
.................... } 
.................... VOID SETUP_GLCD (INT8 GLCD_FUNCTION_SET_MODE) 
.................... {                      
....................          GLCD_CS1 = 1; 
*
0A1A:  BSF    38.0
....................          GLCD_CS2 = 1; 
0A1C:  BSF    38.1
....................          GLCD_E  = 0; 
0A1E:  BCF    38.2
....................          GLCD_RW = 0;           
0A20:  BCF    38.3
....................          GLCD_P =0;          
0A22:  BCF    38.5
0A24:  CLRF   16
0A26:  BTFSC  FF2.7
0A28:  BSF    16.7
0A2A:  BCF    FF2.7
....................          GLCD_COMMAND(GLCD_FUNCTION_SET_MODE);          
0A2C:  MOVFF  450,476
0A30:  RCALL  037A
0A32:  BTFSC  16.7
0A34:  BSF    FF2.7
....................          DELAY_US(10); 
0A36:  MOVLW  10
0A38:  MOVWF  00
0A3A:  DECFSZ 00,F
0A3C:  BRA    0A3A
0A3E:  NOP   
0A40:  CLRF   16
0A42:  BTFSC  FF2.7
0A44:  BSF    16.7
0A46:  BCF    FF2.7
....................          GLCD_COMMAND(GLCD_CURSOR_DISPLAY);        
0A48:  MOVLW  0C
0A4A:  MOVLB  4
0A4C:  MOVWF  x76
0A4E:  MOVLB  0
0A50:  RCALL  037A
0A52:  BTFSC  16.7
0A54:  BSF    FF2.7
....................          DELAY_US(10);     
0A56:  MOVLW  10
0A58:  MOVWF  00
0A5A:  DECFSZ 00,F
0A5C:  BRA    0A5A
0A5E:  NOP   
0A60:  CLRF   16
0A62:  BTFSC  FF2.7
0A64:  BSF    16.7
0A66:  BCF    FF2.7
....................          GLCD_COMMAND(GLCD_CLEAR_DISPLAY);       
0A68:  MOVLW  01
0A6A:  MOVLB  4
0A6C:  MOVWF  x76
0A6E:  MOVLB  0
0A70:  RCALL  037A
0A72:  BTFSC  16.7
0A74:  BSF    FF2.7
....................          DELAY_MS(2); 
0A76:  MOVLW  02
0A78:  MOVLB  4
0A7A:  MOVWF  x51
0A7C:  MOVLB  0
0A7E:  RCALL  056A
0A80:  CLRF   16
0A82:  BTFSC  FF2.7
0A84:  BSF    16.7
0A86:  BCF    FF2.7
....................          GLCD_COMMAND(GLCD_ENTRY_MODE);       
0A88:  MOVLW  06
0A8A:  MOVLB  4
0A8C:  MOVWF  x76
0A8E:  MOVLB  0
0A90:  RCALL  037A
0A92:  BTFSC  16.7
0A94:  BSF    FF2.7
....................          DELAY_US(10);                           
0A96:  MOVLW  10
0A98:  MOVWF  00
0A9A:  DECFSZ 00,F
0A9C:  BRA    0A9A
0A9E:  NOP   
0AA0:  RETURN 0
.................... } 
....................  
.................... #DEFINE GLCD_NGANG     16 //256 PIXEL 
.................... #DEFINE GLCD_DOC       32 //32 HANG 
.................... #DEFINE GLCD_WIDTH     128 //DANH CHO THU VIEN GRAPHIC.C 
.................... int8 DOC, NGANG; 
....................  
.................... typedef union  
.................... {  
....................   unsigned int16 word;  
....................   unsigned int8 nbyte[2];  
.................... } Dots;  
....................  
.................... typedef struct  
.................... {  
....................   int1 refresh;  
....................   Dots PIXEL[GLCD_DOC][GLCD_NGANG];     
....................   } GD_RAM;     
....................  
.................... GD_RAM gdram_vdk;  
....................  
....................  
.................... void GLCD_MAU_NEN(int1 GLCD_COLOR)  
.................... {   
....................   int16 d;  
....................   if(GLCD_COLOR)  d=0xffff; else d=0; 
0AA2:  MOVLB  4
0AA4:  MOVF   x50,F
0AA6:  BZ    0AAE
0AA8:  SETF   x52
0AAA:  SETF   x51
0AAC:  BRA    0AB2
0AAE:  CLRF   x52
0AB0:  CLRF   x51
....................   for (DOC=0; DOC < GLCD_DOC; DOC++)  
0AB2:  CLRF   39
0AB4:  MOVF   39,W
0AB6:  SUBLW  1F
0AB8:  BNC   0B22
....................   {  
....................     for (NGANG=0; NGANG < GLCD_NGANG; NGANG++)  
0ABA:  CLRF   3A
0ABC:  MOVF   3A,W
0ABE:  SUBLW  0F
0AC0:  BNC   0B1E
0AC2:  CLRF   16
0AC4:  BTFSC  FF2.7
0AC6:  BSF    16.7
0AC8:  BCF    FF2.7
....................     {  
....................       gdram_vdk.PIXEL[DOC][NGANG].word = d;  
0ACA:  CLRF   x76
0ACC:  MOVFF  39,475
0AD0:  CLRF   x78
0AD2:  MOVLW  20
0AD4:  MOVWF  x77
0AD6:  MOVLB  0
0AD8:  RCALL  0384
0ADA:  BTFSC  16.7
0ADC:  BSF    FF2.7
0ADE:  MOVFF  02,03
0AE2:  MOVF   01,W
0AE4:  ADDLW  01
0AE6:  MOVLB  4
0AE8:  MOVWF  x53
0AEA:  MOVLW  00
0AEC:  ADDWFC 02,W
0AEE:  MOVWF  x54
0AF0:  CLRF   03
0AF2:  MOVFF  3A,02
0AF6:  BCF    FD8.0
0AF8:  RLCF   02,F
0AFA:  RLCF   03,F
0AFC:  MOVF   02,W
0AFE:  ADDWF  x53,F
0B00:  MOVF   03,W
0B02:  ADDWFC x54,F
0B04:  MOVLW  3B
0B06:  ADDWF  x53,W
0B08:  MOVWF  FE9
0B0A:  MOVLW  00
0B0C:  ADDWFC x54,W
0B0E:  MOVWF  FEA
0B10:  MOVFF  452,FEC
0B14:  MOVF   FED,F
0B16:  MOVFF  451,FEF
0B1A:  INCF   3A,F
0B1C:  BRA    0ABC
....................     }  
0B1E:  INCF   39,F
0B20:  BRA    0AB4
....................   }  
....................   gdram_vdk.refresh = TRUE;  
0B22:  BSF    3B.0
0B24:  MOVLB  0
0B26:  RETURN 0
.................... }  
....................  
.................... void glcd_pixel(int8 x, int8 y, int1 color)  
.................... {  
....................   int8  b;  
....................   if(y>31){x += 128; y-= 32;};  
*
0DFC:  MOVLB  4
0DFE:  MOVF   x6D,W
0E00:  SUBLW  1F
0E02:  BC    0E0C
0E04:  MOVLW  80
0E06:  ADDWF  x6C,F
0E08:  MOVLW  20
0E0A:  SUBWF  x6D,F
....................   DOC = y;  
0E0C:  MOVFF  46D,39
....................   NGANG = x/16;  
0E10:  SWAPF  x6C,W
0E12:  MOVWF  3A
0E14:  MOVLW  0F
0E16:  ANDWF  3A,F
....................   b = 15 - (x % 16);  
0E18:  MOVF   x6C,W
0E1A:  ANDLW  0F
0E1C:  XORLW  FF
0E1E:  ADDLW  10
0E20:  MOVWF  x6F
....................    
....................   if (color == 1) bit_set (gdram_vdk.PIXEL[DOC][NGANG].word, b);  
0E22:  DECFSZ x6E,W
0E24:  BRA    0E9E
0E26:  CLRF   16
0E28:  BTFSC  FF2.7
0E2A:  BSF    16.7
0E2C:  BCF    FF2.7
0E2E:  CLRF   x76
0E30:  MOVFF  39,475
0E34:  CLRF   x78
0E36:  MOVLW  20
0E38:  MOVWF  x77
0E3A:  MOVLB  0
0E3C:  CALL   0384
0E40:  BTFSC  16.7
0E42:  BSF    FF2.7
0E44:  MOVFF  02,03
0E48:  MOVF   01,W
0E4A:  ADDLW  01
0E4C:  MOVLB  4
0E4E:  MOVWF  x70
0E50:  MOVLW  00
0E52:  ADDWFC 02,W
0E54:  MOVWF  x71
0E56:  CLRF   03
0E58:  MOVFF  3A,02
0E5C:  BCF    FD8.0
0E5E:  RLCF   02,F
0E60:  RLCF   03,F
0E62:  MOVF   02,W
0E64:  ADDWF  x70,F
0E66:  MOVF   03,W
0E68:  ADDWFC x71,F
0E6A:  MOVLW  3B
0E6C:  ADDWF  x70,W
0E6E:  MOVWF  01
0E70:  MOVLW  00
0E72:  ADDWFC x71,W
0E74:  MOVWF  03
0E76:  MOVFF  01,FE9
0E7A:  MOVWF  FEA
0E7C:  CLRF   03
0E7E:  MOVLW  01
0E80:  MOVWF  02
0E82:  MOVF   x6F,W
0E84:  MOVWF  00
0E86:  BZ    0E92
0E88:  BCF    FD8.0
0E8A:  RLCF   02,F
0E8C:  RLCF   03,F
0E8E:  DECFSZ 00,F
0E90:  BRA    0E88
0E92:  MOVF   02,W
0E94:  IORWF  FEF,F
0E96:  MOVF   03,W
0E98:  IORWF  FEC,W
0E9A:  MOVWF  FEF
0E9C:  BRA    0F1E
0E9E:  CLRF   16
0EA0:  BTFSC  FF2.7
0EA2:  BSF    16.7
0EA4:  BCF    FF2.7
....................   else bit_clear (gdram_vdk.PIXEL[DOC][NGANG].word, b);  
0EA6:  CLRF   x76
0EA8:  MOVFF  39,475
0EAC:  CLRF   x78
0EAE:  MOVLW  20
0EB0:  MOVWF  x77
0EB2:  MOVLB  0
0EB4:  CALL   0384
0EB8:  BTFSC  16.7
0EBA:  BSF    FF2.7
0EBC:  MOVFF  02,03
0EC0:  MOVF   01,W
0EC2:  ADDLW  01
0EC4:  MOVLB  4
0EC6:  MOVWF  x70
0EC8:  MOVLW  00
0ECA:  ADDWFC 02,W
0ECC:  MOVWF  x71
0ECE:  CLRF   03
0ED0:  MOVFF  3A,02
0ED4:  BCF    FD8.0
0ED6:  RLCF   02,F
0ED8:  RLCF   03,F
0EDA:  MOVF   02,W
0EDC:  ADDWF  x70,F
0EDE:  MOVF   03,W
0EE0:  ADDWFC x71,F
0EE2:  MOVLW  3B
0EE4:  ADDWF  x70,W
0EE6:  MOVWF  01
0EE8:  MOVLW  00
0EEA:  ADDWFC x71,W
0EEC:  MOVWF  03
0EEE:  MOVFF  01,FE9
0EF2:  MOVWF  FEA
0EF4:  CLRF   03
0EF6:  MOVLW  01
0EF8:  MOVWF  02
0EFA:  MOVF   x6F,W
0EFC:  MOVWF  00
0EFE:  BZ    0F0A
0F00:  BCF    FD8.0
0F02:  RLCF   02,F
0F04:  RLCF   03,F
0F06:  DECFSZ 00,F
0F08:  BRA    0F00
0F0A:  MOVF   02,W
0F0C:  XORLW  FF
0F0E:  MOVWF  00
0F10:  MOVLW  FF
0F12:  XORWF  03,F
0F14:  MOVF   00,W
0F16:  ANDWF  FEF,F
0F18:  MOVF   03,W
0F1A:  ANDWF  FEC,W
0F1C:  MOVWF  FEF
....................   gdram_vdk.refresh = TRUE;  
0F1E:  BSF    3B.0
0F20:  MOVLB  0
0F22:  RETURN 0
.................... }  
....................  
....................  
.................... void GDRAM_VDK_TO_GDRAM_GLCD_ALL()  
.................... {  
....................   if (gdram_vdk.refresh)  
*
03B0:  BTFSS  3B.0
03B2:  BRA    0492
....................   {  
....................     for (DOC = 0; DOC <GLCD_DOC; DOC++)  
03B4:  CLRF   39
03B6:  MOVF   39,W
03B8:  SUBLW  1F
03BA:  BNC   0490
....................     {  
....................       GLCD_COMMAND( 0x80 | DOC);   // Set Vertical Address.  
03BC:  MOVF   39,W
03BE:  IORLW  80
03C0:  MOVLB  4
03C2:  MOVWF  x75
03C4:  MOVWF  x76
03C6:  MOVLB  0
03C8:  RCALL  037A
....................       GLCD_COMMAND( 0x80 | 0);   // Set Horizontal Address.  
03CA:  MOVLW  80
03CC:  MOVLB  4
03CE:  MOVWF  x76
03D0:  MOVLB  0
03D2:  RCALL  037A
....................  
....................       for (NGANG=0; NGANG <GLCD_NGANG; NGANG++)  
03D4:  CLRF   3A
03D6:  MOVF   3A,W
03D8:  SUBLW  0F
03DA:  BNC   048C
....................       {  
....................         GLCD_DATA( gdram_vdk.PIXEL[DOC][NGANG].nbyte[1]);   // Write High Byte.  
03DC:  MOVLB  4
03DE:  CLRF   x76
03E0:  MOVFF  39,475
03E4:  CLRF   x78
03E6:  MOVLW  20
03E8:  MOVWF  x77
03EA:  MOVLB  0
03EC:  RCALL  0384
03EE:  MOVFF  02,03
03F2:  MOVF   01,W
03F4:  ADDLW  01
03F6:  MOVLB  4
03F8:  MOVWF  x75
03FA:  MOVLW  00
03FC:  ADDWFC 02,W
03FE:  MOVWF  x76
0400:  CLRF   03
0402:  MOVFF  3A,02
0406:  BCF    FD8.0
0408:  RLCF   02,F
040A:  RLCF   03,F
040C:  MOVF   02,W
040E:  ADDWF  x75,F
0410:  MOVF   03,W
0412:  ADDWFC x76,F
0414:  MOVLW  01
0416:  ADDWF  x75,W
0418:  MOVWF  01
041A:  MOVLW  00
041C:  ADDWFC x76,W
041E:  MOVWF  03
0420:  MOVF   01,W
0422:  ADDLW  3B
0424:  MOVWF  FE9
0426:  MOVLW  00
0428:  ADDWFC 03,W
042A:  MOVWF  FEA
042C:  MOVFF  FEF,475
0430:  MOVFF  475,478
0434:  MOVLB  0
0436:  RCALL  03A6
....................         GLCD_DATA( gdram_vdk.PIXEL[DOC][NGANG].nbyte[0]);   // Write Low Byte.  
0438:  MOVLB  4
043A:  CLRF   x76
043C:  MOVFF  39,475
0440:  CLRF   x78
0442:  MOVLW  20
0444:  MOVWF  x77
0446:  MOVLB  0
0448:  RCALL  0384
044A:  MOVFF  02,03
044E:  MOVF   01,W
0450:  ADDLW  01
0452:  MOVLB  4
0454:  MOVWF  x75
0456:  MOVLW  00
0458:  ADDWFC 02,W
045A:  MOVWF  x76
045C:  CLRF   03
045E:  MOVFF  3A,02
0462:  BCF    FD8.0
0464:  RLCF   02,F
0466:  RLCF   03,F
0468:  MOVF   02,W
046A:  ADDWF  x75,F
046C:  MOVF   03,W
046E:  ADDWFC x76,F
0470:  MOVLW  3B
0472:  ADDWF  x75,W
0474:  MOVWF  FE9
0476:  MOVLW  00
0478:  ADDWFC x76,W
047A:  MOVWF  FEA
047C:  MOVFF  FEF,477
0480:  MOVFF  477,478
0484:  MOVLB  0
0486:  RCALL  03A6
0488:  INCF   3A,F
048A:  BRA    03D6
....................       }  
048C:  INCF   39,F
048E:  BRA    03B6
....................     }  
....................     gdram_vdk.refresh = FALSE;  
0490:  BCF    3B.0
....................   }  
0492:  RETURN 0
.................... }  
....................  
.................... void GDRAM_VDK_TO_GDRAM_GLCD_AREA (int8 x,int8 y,int8 rong, int8 cao) 
.................... { 
....................   int8 hesox,hesoy;  
....................   if (gdram_vdk.refresh)  
....................   {  
....................       if((x/16)!=(x + rong)/16) 
....................             rong=((rong+15)/16)+1; 
....................       else rong=((rong+15)/16);  
....................        
....................       x = x/16; 
....................       for (DOC = y; DOC <(y+cao); DOC++)  
....................       {  
....................          if(DOC>31) 
....................             {   
....................                hesox = 8+x; 
....................                hesoy = DOC-32; 
....................                } 
....................          else {hesox = x; hesoy = DOC;} 
....................          GLCD_COMMAND( 0x80 |hesoy);    
....................          GLCD_COMMAND( 0x80 |hesox);   
....................        
....................          for (NGANG=hesox; NGANG <(hesox+rong); NGANG++)  
....................          {  
....................             GLCD_DATA( gdram_vdk.PIXEL[hesoy][NGANG].nbyte[1]);   // Write High Byte.  
....................             GLCD_DATA( gdram_vdk.PIXEL[hesoy][NGANG].nbyte[0]);   // Write Low Byte.  
....................          }  
....................        }  
....................     gdram_vdk.refresh = FALSE;  
....................   }       
.................... } 
....................  
....................  
.................... //!const unsigned char Logo_DHSPKTTP []= { 0X00,0X01,0X2E,0X00,0X39,0X00, 
.................... //!0X00,0X00,0X00,0X00,0X00,0X00,0X00,0X00,0X00,0X00,0X00,0X00,0X00,0X00,0X00,0X00, 
.................... //!0X00,0X00,0X00,0X00,0X00,0X00,0X00,0X00,0X00,0X00,0X00,0X00,0X00,0X00,0X00,0X00, 
.................... //!0X00,0X00,0X00,0X00,0X00,0X00,0X00,0X00,0X00,0X00,0X00,0X00,0X02,0X00,0X00,0X00, 
.................... //!0X00,0X00,0X02,0X00,0X00,0X00,0X00,0X00,0X02,0X04,0X00,0X00,0X00,0X01,0X02,0X0C, 
.................... //!0X00,0X00,0X00,0X01,0X82,0X0C,0X00,0X00,0X00,0X00,0X80,0X08,0X00,0X00,0X00,0X00, 
.................... //!0X80,0X00,0X00,0X00,0X00,0X00,0X0F,0X80,0X00,0X00,0X00,0X00,0X3F,0XC0,0X00,0X00, 
.................... //!0X00,0X70,0X70,0X70,0X70,0X00,0X00,0X38,0XC8,0X18,0XE0,0X00,0X00,0X18,0XD8,0X18, 
.................... //!0XC0,0X00,0X00,0X01,0XB0,0X0C,0X00,0X00,0X00,0X01,0XA0,0X0C,0X00,0X00,0X00,0X01, 
.................... //!0X60,0X0C,0X00,0X00,0X00,0X01,0X00,0X04,0X00,0X00,0X00,0X01,0X00,0X04,0X00,0X00, 
.................... //!0X00,0X31,0X00,0X04,0X00,0X00,0X00,0X79,0X80,0X0C,0XF0,0X00,0X00,0X71,0X80,0X0C, 
.................... //!0X70,0X00,0X00,0X01,0X80,0X0C,0X00,0X00,0X00,0X00,0XC0,0X18,0X00,0X00,0X00,0X00, 
.................... //!0XC0,0X18,0X00,0X00,0X00,0X00,0X60,0X30,0X00,0X00,0X00,0X00,0X60,0X30,0X00,0X00, 
.................... //!0X00,0X00,0X20,0X20,0X00,0X00,0X00,0X00,0X30,0X60,0X00,0X00,0X00,0X00,0X30,0X60, 
.................... //!0X00,0X00,0X00,0X00,0X3F,0XE0,0X00,0X00,0X00,0X00,0X3F,0XE0,0X00,0X00,0X00,0X00, 
.................... //!0X3F,0XE0,0X00,0X00,0X00,0X00,0X3F,0XE0,0X00,0X00,0X00,0X00,0X1F,0X80,0X00,0X00, 
.................... //!0X00,0X00,0X3E,0X60,0X00,0X00,0X00,0X00,0X39,0XE0,0X00,0X00,0X00,0X00,0X07,0XE0, 
.................... //!0X00,0X00,0X00,0X00,0X1F,0X80,0X00,0X00,0X00,0X00,0X3E,0X60,0X00,0X00,0X00,0X00, 
.................... //!0X3D,0XE0,0X00,0X00,0X00,0X00,0X3F,0XE0,0X00,0X00,0X00,0X00,0X1F,0XC0,0X00,0X00, 
.................... //!0X00,0X00,0X0F,0X80,0X00,0X00,0X00,0X00,0X02,0X00,0X00,0X00,0X00,0X00,0X00,0X00, 
.................... //!0X00,0X00,0X00,0X00,0X00,0X00,0X00,0X00,0X00,0X00,0X00,0X00,0X00,0X00,0X00,0X00, 
.................... //!0X00,0X00,0X00,0X00,0X00,0X00,0X00,0X00,0X00,0X00,0X00,0X00,0X00,0X00,0X00,0X00, 
.................... //!0X00,0X00,0X00,0X00,0X00,0X00,}; 
.................... //! 
.................... const unsigned char Logo_DHSPKTTP [] = { 
.................... 0x00, 0x00, 0x00, 0x00, 0x00, 0x00, 0x00, 0x00, 0x00, 0x00, 0x00, 0x00, 0x00, 0x00, 0x00, 0x00, 
.................... 0x00, 0x00, 0x00, 0x00, 0x00, 0x00, 0x00, 0x00, 0x00, 0x00, 0x00, 0x01, 0x80, 0x00, 0x00, 0x00, 
.................... 0x00, 0x00, 0x00, 0x01, 0x80, 0x00, 0x00, 0x00, 0x00, 0x00, 0x00, 0x01, 0x80, 0x00, 0x00, 0x00, 
.................... 0x00, 0x00, 0x00, 0x07, 0xE0, 0x00, 0x00, 0x00, 0x00, 0x00, 0x00, 0x07, 0xA0, 0x00, 0x00, 0x00, 
.................... 0x00, 0x00, 0x00, 0x03, 0x20, 0x00, 0x00, 0x00, 0x00, 0x00, 0x00, 0x03, 0x20, 0x00, 0x00, 0x00, 
.................... 0x00, 0x00, 0x00, 0x02, 0x20, 0x00, 0x00, 0x00, 0x00, 0x00, 0x00, 0x02, 0x30, 0x00, 0x00, 0x00, 
.................... 0x00, 0x00, 0x00, 0x02, 0x30, 0x00, 0x00, 0x00, 0x00, 0x7F, 0x00, 0x00, 0x30, 0x00, 0x7E, 0x00, 
.................... 0x00, 0xFE, 0x00, 0x07, 0xE0, 0x00, 0x3F, 0x00, 0x01, 0xF8, 0x00, 0x03, 0xE0, 0x00, 0x1F, 0x80, 
.................... 0x03, 0xF0, 0x00, 0x01, 0xC0, 0x00, 0x0F, 0xC0, 0x03, 0xE0, 0x00, 0x01, 0xC0, 0x00, 0x07, 0xE0, 
.................... 0x07, 0xC0, 0x00, 0x03, 0xC0, 0x00, 0x03, 0xF0, 0x0F, 0xC0, 0x00, 0x17, 0xF4, 0x00, 0x01, 0xF0, 
.................... 0x0F, 0x80, 0x00, 0x1D, 0x98, 0x00, 0x00, 0xF8, 0x1F, 0x00, 0x00, 0x11, 0x8C, 0x00, 0x00, 0xF8, 
.................... 0x1F, 0x01, 0x00, 0x31, 0x84, 0x00, 0x80, 0x7C, 0x3E, 0x06, 0x00, 0x31, 0x86, 0x00, 0x20, 0x7C, 
.................... 0x3E, 0x18, 0x00, 0x71, 0x86, 0x00, 0x1C, 0x3E, 0x3C, 0x43, 0x00, 0x31, 0x84, 0x00, 0xC3, 0x3E, 
.................... 0x7C, 0x0C, 0x00, 0x11, 0x8C, 0x00, 0x38, 0x1E, 0x7C, 0x31, 0x00, 0x1D, 0x98, 0x00, 0x86, 0x1F, 
.................... 0x78, 0xC6, 0x00, 0x1F, 0xFC, 0x00, 0x63, 0x1F, 0x78, 0x18, 0x00, 0x03, 0xC0, 0x00, 0x0C, 0x1F, 
.................... 0xF8, 0x63, 0x80, 0x01, 0x80, 0x00, 0xC7, 0x0F, 0xF9, 0x8E, 0x00, 0x00, 0x00, 0x00, 0x38, 0x8F, 
.................... 0xF8, 0x38, 0x80, 0x00, 0x00, 0x01, 0x0C, 0x0F, 0xF8, 0xC3, 0x80, 0x00, 0x00, 0x00, 0xE3, 0x8F, 
.................... 0xF9, 0x8E, 0x00, 0x00, 0x00, 0x00, 0x30, 0xCF, 0xF8, 0x38, 0xF8, 0x00, 0x00, 0x1F, 0x9E, 0x0F, 
.................... 0xF8, 0xE3, 0xFE, 0x00, 0x00, 0x7F, 0xE3, 0x8F, 0xF9, 0x9F, 0xFF, 0xC0, 0x03, 0xFF, 0xF9, 0xCF, 
.................... 0x78, 0xFF, 0xFF, 0xE0, 0x07, 0xFF, 0xFF, 0x0F, 0x78, 0x1F, 0xFF, 0xE0, 0x07, 0xFF, 0xFC, 0x1F, 
.................... 0x7C, 0x07, 0xFF, 0xE0, 0x07, 0xFF, 0xE0, 0x1F, 0x7C, 0x00, 0xFF, 0xE0, 0x07, 0xFF, 0x80, 0x1E, 
.................... 0x7C, 0x00, 0x1F, 0xE0, 0x07, 0xFC, 0x00, 0x3E, 0x3E, 0x01, 0xCF, 0xE0, 0x07, 0xF3, 0x80, 0x3E, 
.................... 0x3E, 0x01, 0xFF, 0xE0, 0x03, 0xFF, 0x80, 0x7C, 0x1F, 0x01, 0xFF, 0xE0, 0x03, 0xFF, 0xC0, 0x7C, 
.................... 0x1F, 0x01, 0xFF, 0xC0, 0x03, 0xFF, 0xC0, 0xF8, 0x0F, 0x83, 0xFF, 0xC0, 0x01, 0xFF, 0xC0, 0xF8, 
.................... 0x0F, 0x83, 0xFF, 0xC0, 0x01, 0xFF, 0xC1, 0xF0, 0x07, 0xC3, 0xFF, 0x80, 0x01, 0xFF, 0xE3, 0xF0, 
.................... 0x03, 0xE3, 0xFF, 0x80, 0x01, 0xFF, 0xE7, 0xE0, 0x03, 0xF7, 0xFF, 0x80, 0x00, 0xFF, 0xEF, 0xC0, 
.................... 0x01, 0xFF, 0xFF, 0x80, 0x00, 0xFF, 0xFF, 0x80, 0x00, 0xFF, 0xFF, 0x00, 0x00, 0xFF, 0xFF, 0x80, 
.................... 0x00, 0x7F, 0xFF, 0x00, 0x00, 0xFF, 0xFF, 0x00, 0x00, 0x3F, 0xFF, 0x00, 0x00, 0xFF, 0xFE, 0x00, 
.................... 0x00, 0x1F, 0xFF, 0x00, 0x00, 0x7F, 0xF8, 0x00, 0x00, 0x0F, 0xFE, 0x00, 0x00, 0x7F, 0xF0, 0x00, 
.................... 0x00, 0x03, 0xFF, 0x00, 0x00, 0x7F, 0xE0, 0x00, 0x00, 0x00, 0xFF, 0xFC, 0x1F, 0xFF, 0x80, 0x00, 
.................... 0x00, 0x00, 0x7F, 0xFF, 0xFF, 0xFE, 0x00, 0x00, 0x00, 0x00, 0x0F, 0xFF, 0xFF, 0xF8, 0x00, 0x00, 
.................... 0x00, 0x00, 0x01, 0xFF, 0xFF, 0xC0, 0x00, 0x00, 0x00, 0x00, 0x00, 0x0F, 0xF0, 0x00, 0x00, 0x00 
.................... }; 
....................  
....................  
.................... void GLCD_XUAT_ANH(int width,int height,int x,int y)  
.................... {  
....................    unsigned int i=0, j=0, k=0;  
....................    unsigned int16 count=0;  
....................    for(j=0;j<height;j++)  
....................       {     
....................          for(;i<width;)  
....................          {  
....................             for(k=8;k>0;k--) 
....................             { 
....................                glcd_pixel(i+x,j+y,bit_test(Logo_DHSPKTTP[count],(k-1)));  
....................                i++;  
....................             }  
....................             count++;  
....................          }  
....................       i=0;  
....................       }  
.................... }  
....................  
.................... #INCLUDE <TV_PICKIT2_SHIFT_KEY4X4_138.C> 
.................... CONST UNSIGNED CHAR MAQUETKEY[4]= {0x3F,0x7F,0xBF,0xFF}; 
.................... UNSIGNED INT8  MPT1=0,MPT2=0;   
.................... UNSIGNED INT KEY_NHAN() 
.................... {     SIGNED INT8 MAPHIM,HANG,COT; 
....................       MAPHIM=HANG=0XFF; 
....................       FOR(COT=0;COT<4;COT++) 
....................             {    
....................                OUTPUT_B(MAQUETKEY[COT]); 
....................                IF         (!INPUT(PIN_B2))      {HANG=3;   BREAK;} 
....................                ELSE    IF (!INPUT(PIN_B3))      {HANG=2;   BREAK;} 
....................                ELSE    IF (!INPUT(PIN_B4))      {HANG=1;   BREAK;}                   
....................                ELSE    IF (!INPUT(PIN_B5))      {HANG=0;   BREAK;} 
....................             }           
....................          IF (HANG!=0XFF)   MAPHIM   = COT*4 + HANG; 
....................          RETURN(MAPHIM); 
.................... } 
.................... UNSIGNED INT KEY_4X4_DW() 
.................... {      
....................       MPT1=KEY_NHAN();          
....................       IF (MPT1!=0XFF)    
....................       {  DELAY_MS(1);   
....................          MPT1=KEY_NHAN(); 
....................          DO{MPT2=KEY_NHAN();} 
....................          WHILE (MPT2==MPT1); 
....................       }              
....................       RETURN(MPT1); 
.................... } 
....................  
.................... UNSIGNED INT KEY_4X4_UP() 
.................... {             
....................       MPT1=KEY_NHAN(); 
....................       IF (MPT1!=0XFF)    
....................       {   
....................          IF (MPT1!=MPT2) 
....................             { 
....................                RETURN(MPT1);  //PHIM MOI 
....................                MPT2=MPT1; 
....................             } 
....................          ELSE 
....................          { 
....................             DELAY_MS(1); 
....................             MPT1=KEY_NHAN(); 
....................             DO 
....................             { 
....................                MPT2=KEY_NHAN(); 
....................                } 
....................             WHILE (MPT2!=MPT1); 
....................                RETURN(MPT1);     //THOAT VI TRUNG MA PHIM DA NHAN 
....................                MPT2=MPT1;            
....................          } 
....................       }   
....................       ELSE  
....................       { 
....................          RETURN(MPT1);  //THOAT VI KHONG NHAN 
....................          MPT2=MPT1; 
....................       }       
.................... } 
....................  
....................  
....................  
.................... #include <graphics.c> 
.................... ///////////////////////////////////////////////////////////////////////// 
.................... ////                          graphics.c                             //// 
.................... ////                                                                 //// 
.................... ////   This file contains functions to draw lines, rectangles, bars, //// 
.................... ////   circles and text to a display. A function which draws a       //// 
.................... ////   single pixel must be defined before calling the functions in  //// 
.................... ////   this file. Call it glcd_pixel(x, y, color) where x is the     //// 
.................... ////   horizontal coordinate, y is the vertical coordinate, and      //// 
.................... ////   color is 1 bit to turn the pixel on or off.                   //// 
.................... ////                                                                 //// 
.................... ////   * Note: (0, 0) is treated as the upper left corner            //// 
.................... ////                                                                 //// 
.................... ///////////////////////////////////////////////////////////////////////// 
.................... ////                                                                 //// 
.................... ////  glcd_line(x1, y1, x2, y2, color)                               //// 
.................... ////     * Draws a line from the first point to the second point     //// 
.................... ////       with the given color                                      //// 
.................... ////       - color can be ON or OFF                                  //// 
.................... ////                                                                 //// 
.................... ////  glcd_rect(x1, y1, x2, y2, fill, color)                         //// 
.................... ////     * Draws a rectangle with one corner at point (x1,y1) and    //// 
.................... ////       the other corner at point (x2,y2)                         //// 
.................... ////       - fill can be YES or NO                                   //// 
.................... ////       - color can be ON or OFF                                  //// 
.................... ////                                                                 //// 
.................... ////  glcd_bar(x1, y1, x2, y2, width, color)                         //// 
.................... ////     * Draws a bar (wide line) from the first point to the       //// 
.................... ////       second point                                              //// 
.................... ////       - width is the number of pixels wide                      //// 
.................... ////       - color is ON or OFF                                      //// 
.................... ////                                                                 //// 
.................... ////  glcd_circle(x, y, radius, fill, color)                         //// 
.................... ////     * Draws a circle with center at (x,y)                       //// 
.................... ////       - fill can be YES or NO                                   //// 
.................... ////       - color can be ON or OFF                                  //// 
.................... ////                                                                 //// 
.................... ////  glcd_text57(x, y, textptr, size, color)                        //// 
.................... ////     * Write the null terminated text pointed to by textptr with //// 
.................... ////       the upper left coordinate of the first character at (x,y) //// 
.................... ////       Characters are 5 pixels wide and 7 pixels tall            //// 
.................... ////       - size is an integer that scales the size of the text     //// 
.................... ////       - color is ON or OFF                                      //// 
.................... ////     * Note - This function wraps characters to the next line    //// 
.................... ////              use #define GLCD_WIDTH to specify a display width  //// 
.................... ////                                                                 //// 
.................... ///////////////////////////////////////////////////////////////////////// 
.................... ////        (C) Copyright 1996, 2010 Custom Computer Services        //// 
.................... //// This source code may only be used by licensed users of the CCS  //// 
.................... //// C compiler.  This source code may only be distributed to other  //// 
.................... //// licensed users of the CCS C compiler.  No other use,            //// 
.................... //// reproduction or distribution is permitted without written       //// 
.................... //// permission.  Derivative programs created using this software    //// 
.................... //// in object code form are not restricted in any way.              //// 
.................... ///////////////////////////////////////////////////////////////////////// 
....................  
....................  
.................... ///////////////////////////////////////////////////////////////////////// 
.................... #ifndef GRAPHICS_DRAWING_FUNCTIONS 
.................... #define GRAPHICS_DRAWING_FUNCTIONS 
.................... ///////////////////////////////////////////////////////////////////////// 
....................  
....................  
.................... ///////////////////////////////////////////////////////////////////////// 
.................... #ifndef ON 
.................... #define ON  1 
.................... #endif 
....................  
.................... #ifndef OFF 
.................... #define OFF 0 
.................... #endif 
....................  
.................... #ifndef YES 
.................... #define YES 1 
.................... #endif 
....................  
.................... #ifndef NO 
.................... #define NO  0 
.................... #endif 
.................... ///////////////////////////////////////////////////////////////////////// 
....................  
....................  
.................... ///////////////////////////////////////////////////////////////////////// 
.................... //// Defines a 5x7 font 
.................... ///////////////////////////////////////////////////////////////////////// 
.................... const unsigned int8 FONT[51][5] ={0x00, 0x00, 0x00, 0x00, 0x00, // SPACE 
....................                          0x00, 0x00, 0x5F, 0x00, 0x00, // ! 
....................                          0x00, 0x03, 0x00, 0x03, 0x00, // " 
....................                          0x14, 0x3E, 0x14, 0x3E, 0x14, // # 
....................                          0x24, 0x2A, 0x7F, 0x2A, 0x12, // $ 
....................                          0x43, 0x33, 0x08, 0x66, 0x61, // % 
....................                          0x36, 0x49, 0x55, 0x22, 0x50, // & 
....................                          0x00, 0x05, 0x03, 0x00, 0x00, // ' 
....................                          0x00, 0x1C, 0x22, 0x41, 0x00, // ( 
....................                          0x00, 0x41, 0x22, 0x1C, 0x00, // ) 
....................                          0x14, 0x08, 0x3E, 0x08, 0x14, // * 
....................                          0x08, 0x08, 0x3E, 0x08, 0x08, // + 
....................                          0x00, 0x50, 0x30, 0x00, 0x00, // , 
....................                          0x08, 0x08, 0x08, 0x08, 0x08, // - 
....................                          0x00, 0x60, 0x60, 0x00, 0x00, // . 
....................                          0x20, 0x10, 0x08, 0x04, 0x02, // / 
....................                          0x3E, 0x51, 0x49, 0x45, 0x3E, // 0 
....................                          0x00, 0x04, 0x02, 0x7F, 0x00, // 1 
....................                          0x42, 0x61, 0x51, 0x49, 0x46, // 2 
....................                          0x22, 0x41, 0x49, 0x49, 0x36, // 3 
....................                          0x18, 0x14, 0x12, 0x7F, 0x10, // 4 
....................                          0x27, 0x45, 0x45, 0x45, 0x39, // 5 
....................                          0x3E, 0x49, 0x49, 0x49, 0x32, // 6 
....................                          0x01, 0x01, 0x71, 0x09, 0x07, // 7 
....................                          0x36, 0x49, 0x49, 0x49, 0x36, // 8 
....................                          0x26, 0x49, 0x49, 0x49, 0x3E, // 9 
....................                          0x00, 0x36, 0x36, 0x00, 0x00, // : 
....................                          0x00, 0x56, 0x36, 0x00, 0x00, // ; 
....................                          0x08, 0x14, 0x22, 0x41, 0x00, // < 
....................                          0x14, 0x14, 0x14, 0x14, 0x14, // = 
....................                          0x00, 0x41, 0x22, 0x14, 0x08, // > 
....................                          0x02, 0x01, 0x51, 0x09, 0x06, // ? 
....................                          0x3E, 0x41, 0x59, 0x55, 0x5E, // @ 
....................                          0x7E, 0x09, 0x09, 0x09, 0x7E, // A 
....................                          0x7F, 0x49, 0x49, 0x49, 0x36, // B 
....................                          0x3E, 0x41, 0x41, 0x41, 0x22, // C 
....................                          0x7F, 0x41, 0x41, 0x41, 0x3E, // D 
....................                          0x7F, 0x49, 0x49, 0x49, 0x41, // E 
....................                          0x7F, 0x09, 0x09, 0x09, 0x01, // F 
....................                          0x3E, 0x41, 0x41, 0x49, 0x3A, // G 
....................                          0x7F, 0x08, 0x08, 0x08, 0x7F, // H 
....................                          0x00, 0x41, 0x7F, 0x41, 0x00, // I 
....................                          0x30, 0x40, 0x40, 0x40, 0x3F, // J 
....................                          0x7F, 0x08, 0x14, 0x22, 0x41, // K 
....................                          0x7F, 0x40, 0x40, 0x40, 0x40, // L 
....................                          0x7F, 0x02, 0x0C, 0x02, 0x7F, // M 
....................                          0x7F, 0x02, 0x04, 0x08, 0x7F, // N 
....................                          0x3E, 0x41, 0x41, 0x41, 0x3E, // O 
....................                          0x7F, 0x09, 0x09, 0x09, 0x06, // P 
....................                          0x1E, 0x21, 0x21, 0x21, 0x5E, // Q 
....................                          0x7F, 0x09, 0x09, 0x09, 0x76};// R 
....................  
.................... const unsigned int8 FONT2[44][5]={0x26, 0x49, 0x49, 0x49, 0x32, // S 
....................                          0x01, 0x01, 0x7F, 0x01, 0x01, // T 
....................                          0x3F, 0x40, 0x40, 0x40, 0x3F, // U 
....................                          0x1F, 0x20, 0x40, 0x20, 0x1F, // V 
....................                          0x7F, 0x20, 0x10, 0x20, 0x7F, // W 
....................                          0x41, 0x22, 0x1C, 0x22, 0x41, // X 
....................                          0x07, 0x08, 0x70, 0x08, 0x07, // Y 
....................                          0x61, 0x51, 0x49, 0x45, 0x43, // Z 
....................                          0x00, 0x7F, 0x41, 0x00, 0x00, // [ 
....................                          0x02, 0x04, 0x08, 0x10, 0x20, // \ 
....................                          0x00, 0x00, 0x41, 0x7F, 0x00, // ] 
....................                          0x04, 0x02, 0x01, 0x02, 0x04, // ^ 
....................                          0x40, 0x40, 0x40, 0x40, 0x40, // _ 
....................                          0x00, 0x01, 0x02, 0x04, 0x00, // ` 
....................                          0x20, 0x54, 0x54, 0x54, 0x78, // a 
....................                          0x7F, 0x44, 0x44, 0x44, 0x38, // b 
....................                          0x38, 0x44, 0x44, 0x44, 0x44, // c 
....................                          0x38, 0x44, 0x44, 0x44, 0x7F, // d 
....................                          0x38, 0x54, 0x54, 0x54, 0x18, // e 
....................                          0x04, 0x04, 0x7E, 0x05, 0x05, // f 
....................                          0x08, 0x54, 0x54, 0x54, 0x3C, // g 
....................                          0x7F, 0x08, 0x04, 0x04, 0x78, // h 
....................                          0x00, 0x44, 0x7D, 0x40, 0x00, // i 
....................                          0x20, 0x40, 0x44, 0x3D, 0x00, // j 
....................                          0x7F, 0x10, 0x28, 0x44, 0x00, // k 
....................                          0x00, 0x41, 0x7F, 0x40, 0x00, // l 
....................                          0x7C, 0x04, 0x78, 0x04, 0x78, // m 
....................                          0x7C, 0x08, 0x04, 0x04, 0x78, // n 
....................                          0x38, 0x44, 0x44, 0x44, 0x38, // o 
....................                          0x7C, 0x14, 0x14, 0x14, 0x08, // p 
....................                          0x08, 0x14, 0x14, 0x14, 0x7C, // q 
....................                          0x00, 0x7C, 0x08, 0x04, 0x04, // r 
....................                          0x48, 0x54, 0x54, 0x54, 0x20, // s 
....................                          0x04, 0x04, 0x3F, 0x44, 0x44, // t 
....................                          0x3C, 0x40, 0x40, 0x20, 0x7C, // u 
....................                          0x1C, 0x20, 0x40, 0x20, 0x1C, // v 
....................                          0x3C, 0x40, 0x30, 0x40, 0x3C, // w 
....................                          0x44, 0x28, 0x10, 0x28, 0x44, // x 
....................                          0x0C, 0x50, 0x50, 0x50, 0x3C, // y 
....................                          0x44, 0x64, 0x54, 0x4C, 0x44, // z 
....................                          0x00, 0x08, 0x36, 0x41, 0x41, // { 
....................                          0x00, 0x00, 0x7F, 0x00, 0x00, // | 
....................                          0x41, 0x41, 0x36, 0x08, 0x00, // } 
....................                          0x02, 0x01, 0x02, 0x04, 0x02};// ~ 
.................... ///////////////////////////////////////////////////////////////////////// 
....................  
....................  
.................... ///////////////////////////////////////////////////////////////////////// 
.................... // Purpose:       Draw a line on a graphic LCD using Bresenham's 
.................... //                line drawing algorithm 
.................... // Inputs:        (x1, y1) - the start coordinate 
.................... //                (x2, y2) - the end coordinate 
.................... //                color - ON or OFF 
.................... // Dependencies:  glcd_pixel() 
.................... ///////////////////////////////////////////////////////////////////////// 
.................... #ifdef LARGE_LCD 
.................... void glcd_line(unsigned int16 x1, unsigned int16 y1, unsigned int16 x2, iunsigned nt16 y2, int1 color) 
.................... #else 
.................... void glcd_line(unsigned int8 x1, unsigned int8 y1, unsigned int8 x2, unsigned int8 y2, int1 color) 
.................... #endif 
*
0F24:  MOVLW  01
0F26:  MOVLB  4
0F28:  MOVWF  x65
0F2A:  MOVWF  x66
0F2C:  CLRF   x6B
.................... { 
....................    unsigned int16        dy, dx; 
....................    signed int8  addx=1, addy=1; 
....................    signed int16 P, diff; 
....................  
....................    #ifdef LARGE_LCD 
....................    unsigned int16 i=0; 
....................    dx = abs((signed int16)(x2 - x1)); 
....................    dy = abs((signed int16)(y2 - y1)); 
....................    #else 
....................    unsigned int8 i=0; 
....................    dx = abs((signed int8)(x2 - x1)); 
0F2E:  MOVF   x5C,W
0F30:  SUBWF  x5E,W
0F32:  MOVWF  x6C
0F34:  MOVF   x6C,W
0F36:  BTFSS  x6C.7
0F38:  BRA    0F40
0F3A:  MOVLW  00
0F3C:  BSF    FD8.0
0F3E:  SUBFWB x6C,W
0F40:  CLRF   03
0F42:  MOVWF  x63
0F44:  MOVFF  03,464
....................    dy = abs((signed int8)(y2 - y1)); 
0F48:  MOVF   x5D,W
0F4A:  SUBWF  x5F,W
0F4C:  MOVWF  x6C
0F4E:  MOVF   x6C,W
0F50:  BTFSS  x6C.7
0F52:  BRA    0F5A
0F54:  MOVLW  00
0F56:  BSF    FD8.0
0F58:  SUBFWB x6C,W
0F5A:  CLRF   03
0F5C:  MOVWF  x61
0F5E:  MOVFF  03,462
....................    #endif 
....................  
....................    if(x1 > x2) 
0F62:  MOVF   x5C,W
0F64:  SUBWF  x5E,W
0F66:  BC    0F6A
....................       addx = -1; 
0F68:  SETF   x65
....................    if(y1 > y2) 
0F6A:  MOVF   x5D,W
0F6C:  SUBWF  x5F,W
0F6E:  BC    0F72
....................       addy = -1; 
0F70:  SETF   x66
....................  
....................    if(dx >= dy) 
0F72:  MOVF   x62,W
0F74:  SUBWF  x64,W
0F76:  BNC   0FEC
0F78:  BNZ   0F80
0F7A:  MOVF   x61,W
0F7C:  SUBWF  x63,W
0F7E:  BNC   0FEC
....................    { 
....................       dy *= 2; 
0F80:  BCF    FD8.0
0F82:  RLCF   x61,F
0F84:  RLCF   x62,F
....................       P = dy - dx; 
0F86:  MOVF   x63,W
0F88:  SUBWF  x61,W
0F8A:  MOVWF  00
0F8C:  MOVF   x64,W
0F8E:  SUBWFB x62,W
0F90:  MOVFF  00,467
0F94:  MOVWF  x68
....................       diff = P - dx; 
0F96:  MOVF   x63,W
0F98:  SUBWF  x67,W
0F9A:  MOVWF  x69
0F9C:  MOVF   x64,W
0F9E:  SUBWFB x68,W
0FA0:  MOVWF  x6A
....................  
....................       for(; i<=dx; ++i) 
0FA2:  MOVF   x64,F
0FA4:  BNZ   0FAC
0FA6:  MOVF   x6B,W
0FA8:  SUBWF  x63,W
0FAA:  BNC   0FEA
....................       { 
....................          glcd_pixel(x1, y1, color); 
0FAC:  MOVFF  45C,46C
0FB0:  MOVFF  45D,46D
0FB4:  MOVFF  460,46E
0FB8:  MOVLB  0
0FBA:  RCALL  0DFC
....................  
....................          if(P < 0) 
0FBC:  MOVLB  4
0FBE:  BTFSS  x68.7
0FC0:  BRA    0FD2
....................          { 
....................             P  += dy; 
0FC2:  MOVF   x61,W
0FC4:  ADDWF  x67,F
0FC6:  MOVF   x62,W
0FC8:  ADDWFC x68,F
....................             x1 += addx; 
0FCA:  MOVF   x65,W
0FCC:  ADDWF  x5C,W
0FCE:  MOVWF  x5C
....................          } 
0FD0:  BRA    0FE6
....................          else 
....................          { 
....................             P  += diff; 
0FD2:  MOVF   x69,W
0FD4:  ADDWF  x67,F
0FD6:  MOVF   x6A,W
0FD8:  ADDWFC x68,F
....................             x1 += addx; 
0FDA:  MOVF   x65,W
0FDC:  ADDWF  x5C,W
0FDE:  MOVWF  x5C
....................             y1 += addy; 
0FE0:  MOVF   x66,W
0FE2:  ADDWF  x5D,W
0FE4:  MOVWF  x5D
....................          } 
0FE6:  INCF   x6B,F
0FE8:  BRA    0FA2
....................       } 
....................    } 
0FEA:  BRA    1056
....................    else 
....................    { 
....................       dx *= 2; 
0FEC:  BCF    FD8.0
0FEE:  RLCF   x63,F
0FF0:  RLCF   x64,F
....................       P = dx - dy; 
0FF2:  MOVF   x61,W
0FF4:  SUBWF  x63,W
0FF6:  MOVWF  00
0FF8:  MOVF   x62,W
0FFA:  SUBWFB x64,W
0FFC:  MOVFF  00,467
1000:  MOVWF  x68
....................       diff = P - dy; 
1002:  MOVF   x61,W
1004:  SUBWF  x67,W
1006:  MOVWF  x69
1008:  MOVF   x62,W
100A:  SUBWFB x68,W
100C:  MOVWF  x6A
....................  
....................       for(; i<=dy; ++i) 
100E:  MOVF   x62,F
1010:  BNZ   1018
1012:  MOVF   x6B,W
1014:  SUBWF  x61,W
1016:  BNC   1056
....................       { 
....................          glcd_pixel(x1, y1, color); 
1018:  MOVFF  45C,46C
101C:  MOVFF  45D,46D
1020:  MOVFF  460,46E
1024:  MOVLB  0
1026:  RCALL  0DFC
....................  
....................          if(P < 0) 
1028:  MOVLB  4
102A:  BTFSS  x68.7
102C:  BRA    103E
....................          { 
....................             P  += dx; 
102E:  MOVF   x63,W
1030:  ADDWF  x67,F
1032:  MOVF   x64,W
1034:  ADDWFC x68,F
....................             y1 += addy; 
1036:  MOVF   x66,W
1038:  ADDWF  x5D,W
103A:  MOVWF  x5D
....................          } 
103C:  BRA    1052
....................          else 
....................          { 
....................             P  += diff; 
103E:  MOVF   x69,W
1040:  ADDWF  x67,F
1042:  MOVF   x6A,W
1044:  ADDWFC x68,F
....................             x1 += addx; 
1046:  MOVF   x65,W
1048:  ADDWF  x5C,W
104A:  MOVWF  x5C
....................             y1 += addy; 
104C:  MOVF   x66,W
104E:  ADDWF  x5D,W
1050:  MOVWF  x5D
....................          } 
1052:  INCF   x6B,F
1054:  BRA    100E
....................       } 
....................    } 
1056:  MOVLB  0
1058:  RETURN 0
.................... } 
....................  
....................  
.................... ///////////////////////////////////////////////////////////////////////// 
.................... // Purpose:       Draw a rectangle on a graphic LCD 
.................... // Inputs:        (x1, y1) - the start coordinate 
.................... //                (x2, y2) - the end coordinate 
.................... //                fill  - YES or NO 
.................... //                color - ON or OFF 
.................... // Dependencies:  glcd_pixel(), glcd_line() 
.................... ///////////////////////////////////////////////////////////////////////// 
.................... #ifdef LARGE_LCD 
.................... void glcd_rect(unsigned int16 x1, unsigned int16 y1, unsigned int16 x2, unsigned int16 y2, int1 fill, int1 color) 
.................... #else 
.................... void glcd_rect(unsigned int8 x1, unsigned int8 y1, unsigned int8 x2, unsigned int8 y2, int1 fill, int1 color) 
.................... #endif 
.................... { 
....................    if(fill) 
*
126E:  MOVLB  4
1270:  MOVF   x54,F
1272:  BZ    12D0
....................    { 
....................       #ifdef LARGE_LCD 
....................       unsigned int16 i, xmin, xmax, ymin, ymax; 
....................       #else 
....................       unsigned int8  i, xmin, xmax, ymin, ymax; 
....................       #endif 
....................  
....................       if(x1 < x2)                            //  Find x min and max 
1274:  MOVF   x52,W
1276:  SUBWF  x50,W
1278:  BC    1284
....................       { 
....................          xmin = x1; 
127A:  MOVFF  450,457
....................          xmax = x2; 
127E:  MOVFF  452,458
....................       } 
1282:  BRA    128C
....................       else 
....................       { 
....................          xmin = x2; 
1284:  MOVFF  452,457
....................          xmax = x1; 
1288:  MOVFF  450,458
....................       } 
....................  
....................       if(y1 < y2)                            // Find the y min and max 
128C:  MOVF   x53,W
128E:  SUBWF  x51,W
1290:  BC    129C
....................       { 
....................          ymin = y1; 
1292:  MOVFF  451,459
....................          ymax = y2; 
1296:  MOVFF  453,45A
....................       } 
129A:  BRA    12A4
....................       else 
....................       { 
....................          ymin = y2; 
129C:  MOVFF  453,459
....................          ymax = y1; 
12A0:  MOVFF  451,45A
....................       } 
....................  
....................       for(; xmin <= xmax; ++xmin) 
12A4:  MOVF   x57,W
12A6:  SUBWF  x58,W
12A8:  BNC   12CE
....................       { 
....................          for(i=ymin; i<=ymax; ++i) 
12AA:  MOVFF  459,456
12AE:  MOVF   x56,W
12B0:  SUBWF  x5A,W
12B2:  BNC   12CA
....................          { 
....................             glcd_pixel(xmin, i, color); 
12B4:  MOVFF  457,46C
12B8:  MOVFF  456,46D
12BC:  MOVFF  455,46E
12C0:  MOVLB  0
12C2:  RCALL  0DFC
12C4:  MOVLB  4
12C6:  INCF   x56,F
12C8:  BRA    12AE
....................          } 
12CA:  INCF   x57,F
12CC:  BRA    12A4
....................       } 
....................    } 
12CE:  BRA    132C
....................    else 
....................    { 
....................       glcd_line(x1, y1, x2, y1, color);      // Draw the 4 sides 
12D0:  MOVFF  450,45C
12D4:  MOVFF  451,45D
12D8:  MOVFF  452,45E
12DC:  MOVFF  451,45F
12E0:  MOVFF  455,460
12E4:  MOVLB  0
12E6:  RCALL  0F24
....................       glcd_line(x1, y2, x2, y2, color); 
12E8:  MOVFF  450,45C
12EC:  MOVFF  453,45D
12F0:  MOVFF  452,45E
12F4:  MOVFF  453,45F
12F8:  MOVFF  455,460
12FC:  RCALL  0F24
....................       glcd_line(x1, y1, x1, y2, color); 
12FE:  MOVFF  450,45C
1302:  MOVFF  451,45D
1306:  MOVFF  450,45E
130A:  MOVFF  453,45F
130E:  MOVFF  455,460
1312:  RCALL  0F24
....................       glcd_line(x2, y1, x2, y2, color); 
1314:  MOVFF  452,45C
1318:  MOVFF  451,45D
131C:  MOVFF  452,45E
1320:  MOVFF  453,45F
1324:  MOVFF  455,460
1328:  RCALL  0F24
132A:  MOVLB  4
....................    } 
132C:  MOVLB  0
132E:  RETURN 0
.................... } 
....................  
.................... ///////////////////////////////////////////////////////////////////////// 
.................... // Purpose:       Draw a bar (wide line) on a graphic LCD 
.................... // Inputs:        (x1, y1) - the start coordinate 
.................... //                (x2, y2) - the end coordinate 
.................... //                width  - The number of pixels wide 
.................... //                color - ON or OFF 
.................... ///////////////////////////////////////////////////////////////////////// 
.................... #ifdef LARGE_LCD 
.................... void glcd_bar(unsigned int16 x1, unsigned int16 y1, unsigned int16 x2, unsigned int16 y2, unsigned int8 width, int1 color) 
.................... #else 
.................... void glcd_bar(unsigned int8 x1, unsigned int8 y1, unsigned int8 x2, unsigned int8 y2, unsigned int8 width, int1 color) 
.................... #endif 
.................... { 
....................    unsigned int8         half_width; 
....................    signed int16 dy, dx; 
....................    signed int8  addx=1, addy=1, j; 
....................    signed int16 P, diff, c1, c2; 
....................  
....................    #ifdef LARGE_LCD 
....................    unsigned int16 i=0; 
....................    dx = abs((signed int16)(x2 - x1)); 
....................    dy = abs((signed int16)(y2 - y1)); 
....................    #else 
....................    unsigned int8 i=0; 
....................    dx = abs((signed int8)(x2 - x1)); 
....................    dy = abs((signed int8)(y2 - y1)); 
....................    #endif 
....................  
....................    half_width = width/2; 
....................    c1 = -(dx*x1 + dy*y1); 
....................    c2 = -(dx*x2 + dy*y2); 
....................  
....................    if(x1 > x2) 
....................    { 
....................       signed int16 temp; 
....................       temp = c1; 
....................       c1 = c2; 
....................       c2 = temp; 
....................       addx = -1; 
....................    } 
....................    if(y1 > y2) 
....................    { 
....................       signed int16 temp; 
....................       temp = c1; 
....................       c1 = c2; 
....................       c2 = temp; 
....................       addy = -1; 
....................    } 
....................  
....................    if(dx >= dy) 
....................    { 
....................       P = 2*dy - dx; 
....................       diff = P - dx; 
....................  
....................       for(i=0; i<=dx; ++i) 
....................       { 
....................          for(j=-half_width; j<half_width+width%2; ++j) 
....................          { 
....................                glcd_pixel(x1, y1+j, color); 
....................          } 
....................          if(P < 0) 
....................          { 
....................             P  += 2*dy; 
....................             x1 += addx; 
....................          } 
....................          else 
....................          { 
....................             P  += diff; 
....................             x1 += addx; 
....................             y1 += addy; 
....................          } 
....................       } 
....................    } 
....................    else 
....................    { 
....................       P = 2*dx - dy; 
....................       diff = P - dy; 
....................  
....................       for(i=0; i<=dy; ++i) 
....................       { 
....................          if(P < 0) 
....................          { 
....................             P  += 2*dx; 
....................             y1 += addy; 
....................          } 
....................          else 
....................          { 
....................             P  += diff; 
....................             x1 += addx; 
....................             y1 += addy; 
....................          } 
....................          for(j=-half_width; j<half_width+width%2; ++j) 
....................          { 
....................                glcd_pixel(x1+j, y1, color); 
....................          } 
....................       } 
....................    } 
.................... } 
....................  
....................  
.................... ///////////////////////////////////////////////////////////////////////// 
.................... // Purpose:       Draw a circle on a graphic LCD 
.................... // Inputs:        (x,y) - the center of the circle 
.................... //                radius - the radius of the circle 
.................... //                fill - YES or NO 
.................... //                color - ON or OFF 
.................... ///////////////////////////////////////////////////////////////////////// 
.................... #ifdef LARGE_LCD 
.................... void glcd_circle(unsigned int16 x, unsigned int16 y, unsigned int16 radius, int1 fill, int1 color) 
.................... #else 
.................... void glcd_circle(unsigned int8 x, unsigned int8 y, unsigned int8 radius, int1 fill, int1 color) 
.................... #endif 
.................... { 
....................    #ifdef LARGE_LCD 
....................    signed int16 a, b, P; 
....................    #else 
....................    signed int8  a, b, P; 
....................    #endif 
....................  
....................    a = 0; 
*
105A:  MOVLB  4
105C:  CLRF   x55
....................    b = radius; 
105E:  MOVFF  452,456
....................    P = 1 - radius; 
1062:  MOVLW  01
1064:  BSF    FD8.0
1066:  SUBFWB x52,W
1068:  MOVWF  x57
....................  
....................    do 
....................    { 
....................       if(fill) 
106A:  MOVF   x53,F
106C:  BZ    1130
....................       { 
....................          glcd_line(x-a, y+b, x+a, y+b, color); 
106E:  MOVF   x55,W
1070:  SUBWF  x50,W
1072:  MOVWF  x58
1074:  MOVF   x56,W
1076:  ADDWF  x51,W
1078:  MOVWF  x59
107A:  MOVF   x55,W
107C:  ADDWF  x50,W
107E:  MOVWF  x5A
1080:  MOVF   x56,W
1082:  ADDWF  x51,W
1084:  MOVWF  x5B
1086:  MOVFF  458,45C
108A:  MOVFF  459,45D
108E:  MOVFF  45A,45E
1092:  MOVWF  x5F
1094:  MOVFF  454,460
1098:  MOVLB  0
109A:  RCALL  0F24
....................          glcd_line(x-a, y-b, x+a, y-b, color); 
109C:  MOVLB  4
109E:  MOVF   x55,W
10A0:  SUBWF  x50,W
10A2:  MOVWF  x58
10A4:  MOVF   x56,W
10A6:  SUBWF  x51,W
10A8:  MOVWF  x59
10AA:  MOVF   x55,W
10AC:  ADDWF  x50,W
10AE:  MOVWF  x5A
10B0:  MOVF   x56,W
10B2:  SUBWF  x51,W
10B4:  MOVWF  x5B
10B6:  MOVFF  458,45C
10BA:  MOVFF  459,45D
10BE:  MOVFF  45A,45E
10C2:  MOVWF  x5F
10C4:  MOVFF  454,460
10C8:  MOVLB  0
10CA:  RCALL  0F24
....................          glcd_line(x-b, y+a, x+b, y+a, color); 
10CC:  MOVLB  4
10CE:  MOVF   x56,W
10D0:  SUBWF  x50,W
10D2:  MOVWF  x58
10D4:  MOVF   x55,W
10D6:  ADDWF  x51,W
10D8:  MOVWF  x59
10DA:  MOVF   x56,W
10DC:  ADDWF  x50,W
10DE:  MOVWF  x5A
10E0:  MOVF   x55,W
10E2:  ADDWF  x51,W
10E4:  MOVWF  x5B
10E6:  MOVFF  458,45C
10EA:  MOVFF  459,45D
10EE:  MOVFF  45A,45E
10F2:  MOVWF  x5F
10F4:  MOVFF  454,460
10F8:  MOVLB  0
10FA:  RCALL  0F24
....................          glcd_line(x-b, y-a, x+b, y-a, color); 
10FC:  MOVLB  4
10FE:  MOVF   x56,W
1100:  SUBWF  x50,W
1102:  MOVWF  x58
1104:  MOVF   x55,W
1106:  SUBWF  x51,W
1108:  MOVWF  x59
110A:  MOVF   x56,W
110C:  ADDWF  x50,W
110E:  MOVWF  x5A
1110:  MOVF   x55,W
1112:  SUBWF  x51,W
1114:  MOVWF  x5B
1116:  MOVFF  458,45C
111A:  MOVFF  459,45D
111E:  MOVFF  45A,45E
1122:  MOVWF  x5F
1124:  MOVFF  454,460
1128:  MOVLB  0
112A:  RCALL  0F24
....................       } 
112C:  BRA    120E
112E:  MOVLB  4
....................       else 
....................       { 
....................          glcd_pixel(a+x, b+y, color); 
1130:  MOVF   x50,W
1132:  ADDWF  x55,W
1134:  MOVWF  x58
1136:  MOVF   x51,W
1138:  ADDWF  x56,W
113A:  MOVWF  x59
113C:  MOVFF  458,46C
1140:  MOVWF  x6D
1142:  MOVFF  454,46E
1146:  MOVLB  0
1148:  RCALL  0DFC
....................          glcd_pixel(b+x, a+y, color); 
114A:  MOVLB  4
114C:  MOVF   x50,W
114E:  ADDWF  x56,W
1150:  MOVWF  x58
1152:  MOVF   x51,W
1154:  ADDWF  x55,W
1156:  MOVWF  x59
1158:  MOVFF  458,46C
115C:  MOVWF  x6D
115E:  MOVFF  454,46E
1162:  MOVLB  0
1164:  RCALL  0DFC
....................          glcd_pixel(x-a, b+y, color); 
1166:  MOVLB  4
1168:  MOVF   x55,W
116A:  SUBWF  x50,W
116C:  MOVWF  x58
116E:  MOVF   x51,W
1170:  ADDWF  x56,W
1172:  MOVWF  x59
1174:  MOVFF  458,46C
1178:  MOVWF  x6D
117A:  MOVFF  454,46E
117E:  MOVLB  0
1180:  RCALL  0DFC
....................          glcd_pixel(x-b, a+y, color); 
1182:  MOVLB  4
1184:  MOVF   x56,W
1186:  SUBWF  x50,W
1188:  MOVWF  x58
118A:  MOVF   x51,W
118C:  ADDWF  x55,W
118E:  MOVWF  x59
1190:  MOVFF  458,46C
1194:  MOVWF  x6D
1196:  MOVFF  454,46E
119A:  MOVLB  0
119C:  RCALL  0DFC
....................          glcd_pixel(b+x, y-a, color); 
119E:  MOVLB  4
11A0:  MOVF   x50,W
11A2:  ADDWF  x56,W
11A4:  MOVWF  x58
11A6:  MOVF   x55,W
11A8:  SUBWF  x51,W
11AA:  MOVWF  x59
11AC:  MOVFF  458,46C
11B0:  MOVWF  x6D
11B2:  MOVFF  454,46E
11B6:  MOVLB  0
11B8:  RCALL  0DFC
....................          glcd_pixel(a+x, y-b, color); 
11BA:  MOVLB  4
11BC:  MOVF   x50,W
11BE:  ADDWF  x55,W
11C0:  MOVWF  x58
11C2:  MOVF   x56,W
11C4:  SUBWF  x51,W
11C6:  MOVWF  x59
11C8:  MOVFF  458,46C
11CC:  MOVWF  x6D
11CE:  MOVFF  454,46E
11D2:  MOVLB  0
11D4:  RCALL  0DFC
....................          glcd_pixel(x-a, y-b, color); 
11D6:  MOVLB  4
11D8:  MOVF   x55,W
11DA:  SUBWF  x50,W
11DC:  MOVWF  x58
11DE:  MOVF   x56,W
11E0:  SUBWF  x51,W
11E2:  MOVWF  x59
11E4:  MOVFF  458,46C
11E8:  MOVWF  x6D
11EA:  MOVFF  454,46E
11EE:  MOVLB  0
11F0:  RCALL  0DFC
....................          glcd_pixel(x-b, y-a, color); 
11F2:  MOVLB  4
11F4:  MOVF   x56,W
11F6:  SUBWF  x50,W
11F8:  MOVWF  x58
11FA:  MOVF   x55,W
11FC:  SUBWF  x51,W
11FE:  MOVWF  x59
1200:  MOVFF  458,46C
1204:  MOVWF  x6D
1206:  MOVFF  454,46E
120A:  MOVLB  0
120C:  RCALL  0DFC
....................       } 
....................  
....................       if(P < 0) 
120E:  MOVLB  4
1210:  BTFSS  x57.7
1212:  BRA    1232
....................          P += 3 + 2 * a++; 
1214:  MOVF   x55,W
1216:  INCF   x55,F
1218:  MOVWF  x58
121A:  MOVLW  02
121C:  MOVWF  x59
121E:  MOVFF  458,45A
1222:  MOVLB  0
1224:  CALL   08AE
1228:  MOVF   01,W
122A:  ADDLW  03
122C:  MOVLB  4
122E:  ADDWF  x57,F
1230:  BRA    1256
....................       else 
....................          P += 5 + 2 * (a++ - b--); 
1232:  MOVF   x55,W
1234:  INCF   x55,F
1236:  MOVWF  x58
1238:  MOVF   x56,W
123A:  DECF   x56,F
123C:  SUBWF  x58,W
123E:  MOVWF  x58
1240:  MOVLW  02
1242:  MOVWF  x59
1244:  MOVFF  458,45A
1248:  MOVLB  0
124A:  CALL   08AE
124E:  MOVF   01,W
1250:  ADDLW  05
1252:  MOVLB  4
1254:  ADDWF  x57,F
....................     } while(a <= b); 
1256:  MOVF   x55,W
1258:  XORLW  80
125A:  MOVWF  00
125C:  MOVF   x56,W
125E:  XORLW  80
1260:  SUBWF  00,W
1262:  BTFSC  FD8.2
1264:  BRA    106A
1266:  BTFSS  FD8.0
1268:  BRA    106A
126A:  MOVLB  0
126C:  RETURN 0
.................... } 
....................  
....................  
.................... ///////////////////////////////////////////////////////////////////////// 
.................... // Purpose:       Write text on a graphic LCD 
.................... // Inputs:        (x,y) - The upper left coordinate of the first letter 
.................... //                textptr - A pointer to an array of text to display 
.................... //                size - The size of the text: 1 = 5x7, 2 = 10x14, ... 
.................... //                color - ON or OFF 
.................... ///////////////////////////////////////////////////////////////////////// 
.................... #ifdef LARGE_LCD 
.................... void glcd_text57(unsigned int16 x, unsigned int16 y, char* textptr, unsigned int8 size, int1 color) 
.................... #else 
.................... void glcd_text57(unsigned int8 x, unsigned int8 y, char* textptr, unsigned int8 size, int1 color) 
.................... #endif 
.................... { 
....................    unsigned int8 j, k, l, m;                       // Loop counters 
....................    unsigned int8 pixelData[5];                     // Stores character data 
....................  
....................    for(; *textptr != '\0'; ++textptr, ++x)// Loop through the passed string 
....................    { 
....................       if(*textptr < 'S') // Checks if the letter is in the first font array 
....................          memcpy(pixelData, FONT[*textptr - ' '], 5); 
....................       else if(*textptr <= '~') // Check if the letter is in the second font array 
....................          memcpy(pixelData, FONT2[*textptr - 'S'], 5); 
....................       else 
....................          memcpy(pixelData, FONT[0], 5);   // Default to space 
....................  
....................       // Handles newline and carriage returns 
....................       switch(*textptr) 
....................       { 
....................          case '\n': 
....................             y += 7*size + 1; 
....................             continue; 
....................          case '\r': 
....................             x = 0; 
....................             continue; 
....................       } 
....................  
....................       if(x+5*size >= GLCD_WIDTH)          // Performs character wrapping 
....................       { 
....................          x = 0;                           // Set x at far left position 
....................          y += 7*size + 1;                 // Set y at next position down 
....................       } 
....................       for(j=0; j<5; ++j, x+=size)         // Loop through character byte data 
....................       { 
....................          for(k=0; k < 7; ++k)             // Loop through the vertical pixels 
....................          { 
....................             if(bit_test(pixelData[j], k)) // Check if the pixel should be set 
....................             { 
....................                for(l=0; l < size; ++l)    // These two loops change the 
....................                {                          // character's size 
....................                   for(m=0; m < size; ++m) 
....................                   { 
....................                      glcd_pixel(x+m, y+k*size+l, color); // Draws the pixel 
....................                   } 
....................                } 
....................             } 
....................          } 
....................       } 
....................    } 
.................... } 
....................  
.................... #endif 
....................  
....................  
....................  
.................... signed INT8 i; 
.................... unsigned INT8 dv_giay,ch_giay,ch_phut,dv_phut,dv_gio,ch_gio; 
.................... unsigned INT8 dv_ngay,ch_ngay,ch_thang,dv_thang,dv_nam,ch_nam; 
.................... char thu1,thu2; 
.................... char thu; 
.................... int1 tt; 
.................... int1 TT_HT; 
.................... unsigned int8 MP; 
....................  
.................... //QUet led dung ngat 
.................... VOID HIEN_THI_8LED_7DOAN_QUET_ALL1() 
.................... {      
....................       FOR(TT8LED=0;TT8LED<8;TT8LED++)          
*
0494:  CLRF   2C
0496:  MOVF   2C,W
0498:  SUBLW  07
049A:  BNC   04D6
....................          {            
....................             XUAT_8LED_7DOAN_QUET_2(TT8LED, LED_7DQ[TT8LED]); 
049C:  CLRF   03
049E:  MOVF   2C,W
04A0:  ADDLW  24
04A2:  MOVWF  FE9
04A4:  MOVLW  00
04A6:  ADDWFC 03,W
04A8:  MOVWF  FEA
04AA:  MOVFF  FEF,475
04AE:  MOVFF  2C,476
04B2:  MOVFF  475,477
04B6:  RCALL  0250
....................             DELAY_US(900); 
04B8:  MOVLW  04
04BA:  MOVLB  4
04BC:  MOVWF  x75
04BE:  MOVLW  E0
04C0:  MOVWF  x76
04C2:  MOVLB  0
04C4:  RCALL  0296
04C6:  MOVLB  4
04C8:  DECFSZ x75,F
04CA:  BRA    04BE
....................             XUAT_8LED_7DOAN_QUET_TAT_LED();   
04CC:  MOVLB  0
04CE:  RCALL  02E8
....................             GDRAM_VDK_TO_GDRAM_GLCD_ALL (); 
04D0:  RCALL  03B0
04D2:  INCF   2C,F
04D4:  BRA    0496
....................          } 
04D6:  RETURN 0
.................... } 
....................  
.................... #INT_timer3 
....................  
.................... void NGAT_TIMER3 () 
.................... { 
....................    hien_thi_8led_7doan_quet_all1 (); 
04D8:  RCALL  0494
....................    set_timer3 (-6000); 
04DA:  MOVLW  E8
04DC:  MOVWF  FB3
04DE:  MOVLW  90
04E0:  MOVWF  FB2
04E2:  BCF    FA1.1
04E4:  GOTO   0054
.................... } 
.................... //End quet led dung ngat 
.................... //******************************************************************* 
.................... //LED QUET SECTION 
.................... void giai_ma_gan_cho_8led_quet() 
.................... { 
....................    led_7dq[0] = ma7doan [GIAY_DS13%16]; 
*
0B54:  MOVF   34,W
0B56:  ANDLW  0F
0B58:  CLRF   03
0B5A:  MOVFF  FF2,450
0B5E:  BCF    FF2.7
0B60:  CALL   0096
0B64:  MOVLB  4
0B66:  BTFSC  x50.7
0B68:  BSF    FF2.7
0B6A:  MOVWF  24
....................    led_7dq[1] = ma7doan [GIAY_DS13/16]; 
0B6C:  SWAPF  34,W
0B6E:  MOVWF  00
0B70:  MOVLW  0F
0B72:  ANDWF  00,F
0B74:  MOVF   00,W
0B76:  CLRF   03
0B78:  MOVFF  FF2,450
0B7C:  BCF    FF2.7
0B7E:  MOVLB  0
0B80:  CALL   0096
0B84:  MOVLB  4
0B86:  BTFSC  x50.7
0B88:  BSF    FF2.7
0B8A:  MOVWF  25
....................    led_7dq[2] = 0XBF; 
0B8C:  MOVLW  BF
0B8E:  MOVWF  26
....................    led_7dq[3] = ma7doan [PHUT_DS13%16 ]; 
0B90:  MOVF   33,W
0B92:  ANDLW  0F
0B94:  CLRF   03
0B96:  MOVFF  FF2,450
0B9A:  BCF    FF2.7
0B9C:  MOVLB  0
0B9E:  CALL   0096
0BA2:  MOVLB  4
0BA4:  BTFSC  x50.7
0BA6:  BSF    FF2.7
0BA8:  MOVWF  27
....................    led_7dq[4] = ma7doan [PHUT_DS13/16 ]; 
0BAA:  SWAPF  33,W
0BAC:  MOVWF  00
0BAE:  MOVLW  0F
0BB0:  ANDWF  00,F
0BB2:  MOVF   00,W
0BB4:  CLRF   03
0BB6:  MOVFF  FF2,450
0BBA:  BCF    FF2.7
0BBC:  MOVLB  0
0BBE:  CALL   0096
0BC2:  MOVLB  4
0BC4:  BTFSC  x50.7
0BC6:  BSF    FF2.7
0BC8:  MOVWF  28
....................    led_7dq[5] = 0XBF; 
0BCA:  MOVLW  BF
0BCC:  MOVWF  29
....................    led_7dq[6] = ma7doan [GIO_DS13%16]; 
0BCE:  MOVF   32,W
0BD0:  ANDLW  0F
0BD2:  CLRF   03
0BD4:  MOVFF  FF2,450
0BD8:  BCF    FF2.7
0BDA:  MOVLB  0
0BDC:  CALL   0096
0BE0:  MOVLB  4
0BE2:  BTFSC  x50.7
0BE4:  BSF    FF2.7
0BE6:  MOVWF  2A
....................    led_7dq[7] = ma7doan [GIO_DS13/16 ]; 
0BE8:  SWAPF  32,W
0BEA:  MOVWF  00
0BEC:  MOVLW  0F
0BEE:  ANDWF  00,F
0BF0:  MOVF   00,W
0BF2:  CLRF   03
0BF4:  MOVFF  FF2,450
0BF8:  BCF    FF2.7
0BFA:  MOVLB  0
0BFC:  CALL   0096
0C00:  MOVLB  4
0C02:  BTFSC  x50.7
0C04:  BSF    FF2.7
0C06:  MOVWF  2B
0C08:  MOVLB  0
0C0A:  GOTO   154C (RETURN)
.................... } 
.................... //END LED QUET 
.................... //*********************************************************************** 
....................  
.................... //LCD SECTION 
.................... //TO 
.................... void lcd_hienthi_so_z_toado_xy(SIGNED int8 lcd_so, x1, y1) 
.................... { 
....................    lcd_GOTO_xy(x1,y1); 
*
08FC:  MOVFF  451,454
0900:  MOVFF  452,455
0904:  RCALL  088C
....................    FOR (i=0;i<6;i++) 
0906:  MOVLB  4
0908:  CLRF   x3E
090A:  BTFSC  x3E.7
090C:  BRA    0914
090E:  MOVF   x3E,W
0910:  SUBLW  05
0912:  BNC   096E
....................    { 
....................       IF (i==3) lcd_goto_xy(x1+1,y1); 
0914:  MOVF   x3E,W
0916:  SUBLW  03
0918:  BNZ   092C
091A:  MOVLW  01
091C:  ADDWF  x51,W
091E:  MOVWF  x53
0920:  MOVWF  x54
0922:  MOVFF  452,455
0926:  MOVLB  0
0928:  RCALL  088C
092A:  MOVLB  4
....................       lcd_data(lcd_so_x[lcd_so][i]); 
092C:  MOVFF  450,459
0930:  MOVLW  06
0932:  MOVWF  x5A
0934:  MOVLB  0
0936:  RCALL  08AE
0938:  MOVF   01,W
093A:  MOVLB  4
093C:  CLRF   x54
093E:  MOVWF  x53
0940:  CLRF   03
0942:  MOVF   x3E,W
0944:  ADDWF  x53,W
0946:  MOVWF  01
0948:  MOVF   x54,W
094A:  ADDWFC 03,F
094C:  MOVF   01,W
094E:  MOVFF  FF2,453
0952:  BCF    FF2.7
0954:  MOVLB  0
0956:  CALL   00EA
095A:  MOVLB  4
095C:  BTFSC  x53.7
095E:  BSF    FF2.7
0960:  MOVWF  x53
0962:  MOVWF  x54
0964:  MOVLB  0
0966:  RCALL  076E
0968:  MOVLB  4
096A:  INCF   x3E,F
096C:  BRA    090A
....................    } 
096E:  MOVLB  0
0970:  RETURN 0
.................... } 
....................  
.................... void giaima_hienthi_to() 
.................... { 
.................... ch_giay=GIAY_DS13/16;  
*
083C:  SWAPF  34,W
083E:  MOVLB  4
0840:  MOVWF  x40
0842:  MOVLW  0F
0844:  ANDWF  x40,F
.................... dv_giay=GIAY_DS13%16;  
0846:  MOVF   34,W
0848:  ANDLW  0F
084A:  MOVWF  x3F
....................  
.................... ch_phut=PHUT_DS13/16 ; 
084C:  SWAPF  33,W
084E:  MOVWF  x41
0850:  MOVLW  0F
0852:  ANDWF  x41,F
.................... dv_phut=PHUT_DS13%16 ; 
0854:  MOVF   33,W
0856:  ANDLW  0F
0858:  MOVWF  x42
....................  
.................... ch_gio=GIO_DS13/16  ; 
085A:  SWAPF  32,W
085C:  MOVWF  x44
085E:  MOVLW  0F
0860:  ANDWF  x44,F
.................... dv_gio=GIO_DS13%16 ; 
0862:  MOVF   32,W
0864:  ANDLW  0F
0866:  MOVWF  x43
0868:  MOVLB  0
086A:  RETURN 0
....................  
.................... } 
.................... void HT_DS1307_to( ) 
.................... {      
....................       lcd_command(0x82); 
*
0972:  MOVLW  82
0974:  MOVLB  4
0976:  MOVWF  x57
0978:  MOVLB  0
097A:  RCALL  0554
....................       lcd_data("GIO"); 
097C:  MOVLW  E8
097E:  MOVWF  FF6
0980:  MOVLW  04
0982:  MOVWF  FF7
0984:  RCALL  086C
....................       lcd_command(0x88); 
0986:  MOVLW  88
0988:  MOVLB  4
098A:  MOVWF  x57
098C:  MOVLB  0
098E:  RCALL  0554
....................       lcd_data("PHUT"); 
0990:  MOVLW  EC
0992:  MOVWF  FF6
0994:  MOVLW  04
0996:  MOVWF  FF7
0998:  RCALL  086C
....................       lcd_command(0x8F); 
099A:  MOVLW  8F
099C:  MOVLB  4
099E:  MOVWF  x57
09A0:  MOVLB  0
09A2:  RCALL  0554
....................       lcd_data("GIAY"); 
09A4:  MOVLW  F2
09A6:  MOVWF  FF6
09A8:  MOVLW  04
09AA:  MOVWF  FF7
09AC:  RCALL  086C
....................       lcd_hienthi_so_z_toado_xy(ch_gio,2,0);lcd_hienthi_so_z_toado_xy(dv_gio,2,3); 
09AE:  MOVFF  444,450
09B2:  MOVLW  02
09B4:  MOVLB  4
09B6:  MOVWF  x51
09B8:  CLRF   x52
09BA:  MOVLB  0
09BC:  RCALL  08FC
09BE:  MOVFF  443,450
09C2:  MOVLW  02
09C4:  MOVLB  4
09C6:  MOVWF  x51
09C8:  MOVLW  03
09CA:  MOVWF  x52
09CC:  MOVLB  0
09CE:  RCALL  08FC
....................        
....................      // lcd_hienthi_so_z_toado_xy(19,2,6); 
....................        
....................       lcd_hienthi_so_z_toado_xy(ch_phut,2,7);lcd_hienthi_so_z_toado_xy(dv_phut,2,10); 
09D0:  MOVFF  441,450
09D4:  MOVLW  02
09D6:  MOVLB  4
09D8:  MOVWF  x51
09DA:  MOVLW  07
09DC:  MOVWF  x52
09DE:  MOVLB  0
09E0:  RCALL  08FC
09E2:  MOVFF  442,450
09E6:  MOVLW  02
09E8:  MOVLB  4
09EA:  MOVWF  x51
09EC:  MOVLW  0A
09EE:  MOVWF  x52
09F0:  MOVLB  0
09F2:  RCALL  08FC
....................        
....................      //  lcd_hienthi_so_z_toado_xy(19,2,12); 
....................         
....................       lcd_hienthi_so_z_toado_xy(ch_giay,2,14);lcd_hienthi_so_z_toado_xy(dv_giay,2,17); 
09F4:  MOVFF  440,450
09F8:  MOVLW  02
09FA:  MOVLB  4
09FC:  MOVWF  x51
09FE:  MOVLW  0E
0A00:  MOVWF  x52
0A02:  MOVLB  0
0A04:  RCALL  08FC
0A06:  MOVFF  43F,450
0A0A:  MOVLW  02
0A0C:  MOVLB  4
0A0E:  MOVWF  x51
0A10:  MOVLW  11
0A12:  MOVWF  x52
0A14:  MOVLB  0
0A16:  RCALL  08FC
0A18:  RETURN 0
....................     
.................... } 
....................  
.................... // NHO 
.................... void giaima_hienthi_nho() 
.................... { 
.................... ch_giay=GIAY_DS13/16 +0X30; 
*
0C0E:  SWAPF  34,W
0C10:  MOVWF  00
0C12:  MOVLW  0F
0C14:  ANDWF  00,F
0C16:  MOVF   00,W
0C18:  ADDLW  30
0C1A:  MOVLB  4
0C1C:  MOVWF  x40
.................... dv_giay=GIAY_DS13%16 +0X30; 
0C1E:  MOVF   34,W
0C20:  ANDLW  0F
0C22:  ADDLW  30
0C24:  MOVWF  x3F
....................  
.................... ch_phut=PHUT_DS13/16 +0X30; 
0C26:  SWAPF  33,W
0C28:  MOVWF  00
0C2A:  MOVLW  0F
0C2C:  ANDWF  00,F
0C2E:  MOVF   00,W
0C30:  ADDLW  30
0C32:  MOVWF  x41
.................... dv_phut=PHUT_DS13%16 +0X30; 
0C34:  MOVF   33,W
0C36:  ANDLW  0F
0C38:  ADDLW  30
0C3A:  MOVWF  x42
....................  
.................... ch_gio=GIO_DS13/16  +0X30; 
0C3C:  SWAPF  32,W
0C3E:  MOVWF  00
0C40:  MOVLW  0F
0C42:  ANDWF  00,F
0C44:  MOVF   00,W
0C46:  ADDLW  30
0C48:  MOVWF  x44
.................... dv_gio=GIO_DS13%16  +0X30; 
0C4A:  MOVF   32,W
0C4C:  ANDLW  0F
0C4E:  ADDLW  30
0C50:  MOVWF  x43
....................  
.................... ch_ngay=NGAY_DS13/16 +0X30; 
0C52:  SWAPF  30,W
0C54:  MOVWF  00
0C56:  MOVLW  0F
0C58:  ANDWF  00,F
0C5A:  MOVF   00,W
0C5C:  ADDLW  30
0C5E:  MOVWF  x46
.................... dv_ngay=NGAY_DS13%16 +0X30; 
0C60:  MOVF   30,W
0C62:  ANDLW  0F
0C64:  ADDLW  30
0C66:  MOVWF  x45
....................  
.................... ch_thang=THANG_DS13/16 +0X30; 
0C68:  SWAPF  2F,W
0C6A:  MOVWF  00
0C6C:  MOVLW  0F
0C6E:  ANDWF  00,F
0C70:  MOVF   00,W
0C72:  ADDLW  30
0C74:  MOVWF  x47
.................... dv_thang=THANG_DS13%16 +0X30; 
0C76:  MOVF   2F,W
0C78:  ANDLW  0F
0C7A:  ADDLW  30
0C7C:  MOVWF  x48
....................  
.................... ch_nam=NAM_DS13/16 +0X30; 
0C7E:  SWAPF  2E,W
0C80:  MOVWF  00
0C82:  MOVLW  0F
0C84:  ANDWF  00,F
0C86:  MOVF   00,W
0C88:  ADDLW  30
0C8A:  MOVWF  x4A
.................... dv_nam=NAM_DS13%16 +0X30; 
0C8C:  MOVF   2E,W
0C8E:  ANDLW  0F
0C90:  ADDLW  30
0C92:  MOVWF  x49
....................  
.................... if (THU_DS13!=1)  
0C94:  DECFSZ 31,W
0C96:  BRA    0C9A
0C98:  BRA    0CA6
....................    { 
....................       thu1=THU_DS13 +0X30; 
0C9A:  MOVLW  30
0C9C:  ADDWF  31,W
0C9E:  MOVWF  x4B
....................       thu2=0x20; 
0CA0:  MOVLW  20
0CA2:  MOVWF  x4C
....................    } 
0CA4:  BRA    0CAE
....................       ELSE  
....................        
....................       { 
....................       thu1='C'; 
0CA6:  MOVLW  43
0CA8:  MOVWF  x4B
....................       thu2='N'; 
0CAA:  MOVLW  4E
0CAC:  MOVWF  x4C
....................       } 
0CAE:  MOVLB  0
0CB0:  GOTO   1558 (RETURN)
....................        
.................... } 
....................  
.................... void HT_DS1307_nho ( ) 
.................... {      
....................       LCD_COMMAND (0x8C);    
0CB4:  MOVLW  8C
0CB6:  MOVLB  4
0CB8:  MOVWF  x57
0CBA:  MOVLB  0
0CBC:  RCALL  0554
....................       LCD_DATA(GIO_DS13/16  +0X30);    LCD_DATA(GIO_DS13%16  +0X30); 
0CBE:  SWAPF  32,W
0CC0:  MOVWF  00
0CC2:  MOVLW  0F
0CC4:  ANDWF  00,F
0CC6:  MOVF   00,W
0CC8:  ADDLW  30
0CCA:  MOVLB  4
0CCC:  MOVWF  x50
0CCE:  MOVWF  x54
0CD0:  MOVLB  0
0CD2:  RCALL  076E
0CD4:  MOVF   32,W
0CD6:  ANDLW  0F
0CD8:  ADDLW  30
0CDA:  MOVLB  4
0CDC:  MOVWF  x50
0CDE:  MOVWF  x54
0CE0:  MOVLB  0
0CE2:  RCALL  076E
....................       LCD_DATA(' '); 
0CE4:  MOVLW  20
0CE6:  MOVLB  4
0CE8:  MOVWF  x54
0CEA:  MOVLB  0
0CEC:  RCALL  076E
....................       LCD_DATA(PHUT_DS13/16 +0X30);    LCD_DATA(PHUT_DS13%16 +0X30); 
0CEE:  SWAPF  33,W
0CF0:  MOVWF  00
0CF2:  MOVLW  0F
0CF4:  ANDWF  00,F
0CF6:  MOVF   00,W
0CF8:  ADDLW  30
0CFA:  MOVLB  4
0CFC:  MOVWF  x50
0CFE:  MOVWF  x54
0D00:  MOVLB  0
0D02:  RCALL  076E
0D04:  MOVF   33,W
0D06:  ANDLW  0F
0D08:  ADDLW  30
0D0A:  MOVLB  4
0D0C:  MOVWF  x50
0D0E:  MOVWF  x54
0D10:  MOVLB  0
0D12:  RCALL  076E
....................       LCD_DATA(' '); 
0D14:  MOVLW  20
0D16:  MOVLB  4
0D18:  MOVWF  x54
0D1A:  MOVLB  0
0D1C:  RCALL  076E
....................       LCD_DATA(GIAY_DS13/16 +0X30);    LCD_DATA(GIAY_DS13%16 +0X30); 
0D1E:  SWAPF  34,W
0D20:  MOVWF  00
0D22:  MOVLW  0F
0D24:  ANDWF  00,F
0D26:  MOVF   00,W
0D28:  ADDLW  30
0D2A:  MOVLB  4
0D2C:  MOVWF  x50
0D2E:  MOVWF  x54
0D30:  MOVLB  0
0D32:  RCALL  076E
0D34:  MOVF   34,W
0D36:  ANDLW  0F
0D38:  ADDLW  30
0D3A:  MOVLB  4
0D3C:  MOVWF  x50
0D3E:  MOVWF  x54
0D40:  MOVLB  0
0D42:  RCALL  076E
....................       LCD_COMMAND (0xC6); 
0D44:  MOVLW  C6
0D46:  MOVLB  4
0D48:  MOVWF  x57
0D4A:  MOVLB  0
0D4C:  RCALL  0554
....................       LCD_DATA("THU"); 
0D4E:  MOVLW  F8
0D50:  MOVWF  FF6
0D52:  MOVLW  04
0D54:  MOVWF  FF7
0D56:  RCALL  086C
....................       LCD_DATA(THU_DS13 +0X30);  
0D58:  MOVLW  30
0D5A:  ADDWF  31,W
0D5C:  MOVLB  4
0D5E:  MOVWF  x50
0D60:  MOVWF  x54
0D62:  MOVLB  0
0D64:  RCALL  076E
....................       LCD_COMMAND (0xCC);   
0D66:  MOVLW  CC
0D68:  MOVLB  4
0D6A:  MOVWF  x57
0D6C:  MOVLB  0
0D6E:  CALL   0554
....................       LCD_DATA(NGAY_DS13/16 +0X30);    LCD_DATA(NGAY_DS13%16 +0X30); 
0D72:  SWAPF  30,W
0D74:  MOVWF  00
0D76:  MOVLW  0F
0D78:  ANDWF  00,F
0D7A:  MOVF   00,W
0D7C:  ADDLW  30
0D7E:  MOVLB  4
0D80:  MOVWF  x50
0D82:  MOVWF  x54
0D84:  MOVLB  0
0D86:  RCALL  076E
0D88:  MOVF   30,W
0D8A:  ANDLW  0F
0D8C:  ADDLW  30
0D8E:  MOVLB  4
0D90:  MOVWF  x50
0D92:  MOVWF  x54
0D94:  MOVLB  0
0D96:  RCALL  076E
....................       LCD_DATA(' '); 
0D98:  MOVLW  20
0D9A:  MOVLB  4
0D9C:  MOVWF  x54
0D9E:  MOVLB  0
0DA0:  RCALL  076E
....................       LCD_DATA(THANG_DS13/16 +0X30);   LCD_DATA(THANG_DS13%16 +0X30); 
0DA2:  SWAPF  2F,W
0DA4:  MOVWF  00
0DA6:  MOVLW  0F
0DA8:  ANDWF  00,F
0DAA:  MOVF   00,W
0DAC:  ADDLW  30
0DAE:  MOVLB  4
0DB0:  MOVWF  x50
0DB2:  MOVWF  x54
0DB4:  MOVLB  0
0DB6:  RCALL  076E
0DB8:  MOVF   2F,W
0DBA:  ANDLW  0F
0DBC:  ADDLW  30
0DBE:  MOVLB  4
0DC0:  MOVWF  x50
0DC2:  MOVWF  x54
0DC4:  MOVLB  0
0DC6:  RCALL  076E
....................       LCD_DATA(' '); 
0DC8:  MOVLW  20
0DCA:  MOVLB  4
0DCC:  MOVWF  x54
0DCE:  MOVLB  0
0DD0:  RCALL  076E
....................       LCD_DATA(NAM_DS13/16 +0X30);     LCD_DATA(NAM_DS13%16 +0X30);  
0DD2:  SWAPF  2E,W
0DD4:  MOVWF  00
0DD6:  MOVLW  0F
0DD8:  ANDWF  00,F
0DDA:  MOVF   00,W
0DDC:  ADDLW  30
0DDE:  MOVLB  4
0DE0:  MOVWF  x50
0DE2:  MOVWF  x54
0DE4:  MOVLB  0
0DE6:  RCALL  076E
0DE8:  MOVF   2E,W
0DEA:  ANDLW  0F
0DEC:  ADDLW  30
0DEE:  MOVLB  4
0DF0:  MOVWF  x50
0DF2:  MOVWF  x54
0DF4:  MOVLB  0
0DF6:  RCALL  076E
0DF8:  GOTO   155C (RETURN)
.................... } 
....................  
.................... // PHiM NHAN CHUYEN HIEN THI 
.................... void phim_nhan() 
.................... { 
....................  
....................    IF (!input (BT2)) 
*
0B28:  BSF    F93.3
0B2A:  BTFSC  F81.3
0B2C:  BRA    0B50
....................    { 
....................       delay_ms (20) ; 
0B2E:  MOVLW  14
0B30:  MOVLB  4
0B32:  MOVWF  x51
0B34:  MOVLB  0
0B36:  RCALL  056A
....................       { 
....................          IF (!input (BT2)) 
0B38:  BSF    F93.3
0B3A:  BTFSC  F81.3
0B3C:  BRA    0B50
....................          { 
....................            tt=!tt; 
0B3E:  MOVLB  4
0B40:  BTG    x4E.0
....................            lcd_command(lcd_clear_display); 
0B42:  MOVLW  01
0B44:  MOVWF  x57
0B46:  MOVLB  0
0B48:  RCALL  0554
....................             WHILE ( ! input (BT2)) ; 
0B4A:  BSF    F93.3
0B4C:  BTFSS  F81.3
0B4E:  BRA    0B4A
....................          } 
....................       } 
....................    } 
0B50:  GOTO   153E (RETURN)
.................... } 
....................  
....................  
....................  
.................... VOID HIEN_THI_IMAGE_GLCD() 
.................... { 
....................  
....................    IF (TT_HT == 0) 
....................    { 
....................    SETUP_GLCD(GLCD_GRAPHIC_MODE); 
....................    glcd_circle(21, 32, 20, 0, 1); 
....................    glcd_rect(32+20-5,20-5,106-20-5,63,0,1); 
....................    glcd_circle(106, 32, 20, 0, 1); 
....................    gdram_vdk_to_gdram_glcd_all(); 
....................    } 
....................  
....................    ELSE 
....................    { 
....................    SETUP_GLCD(GLCD_GRAPHIC_MODE); 
....................    glcd_rect(21, 20-5,55,63, 0, 1); 
.................... //!   glcd_rect(32+20-5,20-5,106-20-5,63,0,1); 
....................    glcd_circle(64, 32, 20, 0, 1); 
....................    glcd_rect(93, 20-5, 127,63, 0, 1); 
....................    gdram_vdk_to_gdram_glcd_all(); 
....................    } 
....................     
....................     
....................     
.................... //!   hien_thi_8led_7doan_quet_all1 (); 
.................... } 
....................  
.................... // CHUYEN DOI HINH TRON HINH VUONG 
.................... //!VOID PHIM_NHAN_2() 
.................... //!{ 
.................... //!   IF(!INPUT(BT0)) 
.................... //!   { 
.................... //!      DELAY_MS(20); 
.................... //!      IF(INPUT(BT0)==0) 
.................... //!      { 
.................... //!         TT_HT =~ TT_HT; 
.................... //!         HIEN_THI_IMAGE_GLCD(); 
.................... //!         WHILE(INPUT(BT0)==0); 
.................... //!      } 
.................... //!   } 
.................... //!} 
....................  
.................... // CHUYEN DOI HINH TRON HINH VUONG 
.................... VOID PHIM_NHAN_3() 
.................... { 
....................    IF(!INPUT(BT0)) 
*
1330:  BSF    F93.5
1332:  BTFSC  F81.5
1334:  BRA    1456
....................    { 
....................       DELAY_MS(20); 
1336:  MOVLW  14
1338:  MOVLB  4
133A:  MOVWF  x51
133C:  MOVLB  0
133E:  CALL   056A
....................       IF(INPUT(BT0)==0) 
1342:  BSF    F93.5
1344:  BTFSC  F81.5
1346:  BRA    1456
....................       { 
....................          TT_HT =~ TT_HT; 
1348:  MOVLB  4
134A:  BTG    x4E.1
....................          IF(TT_HT==0) 
134C:  BTFSC  x4E.1
134E:  BRA    13D0
1350:  CLRF   16
1352:  BTFSC  FF2.7
1354:  BSF    16.7
1356:  BCF    FF2.7
....................          { 
....................             GLCD_command(GLCD_GRAPHIC_MODE); 
1358:  MOVLW  36
135A:  MOVWF  x76
135C:  MOVLB  0
135E:  CALL   037A
1362:  BTFSC  16.7
1364:  BSF    FF2.7
....................             GLCD_MAU_NEN (0); 
1366:  MOVLB  4
1368:  CLRF   x50
136A:  MOVLB  0
136C:  CALL   0AA2
....................             glcd_circle(21, 32, 20, 0, 1); 
1370:  MOVLW  15
1372:  MOVLB  4
1374:  MOVWF  x50
1376:  MOVLW  20
1378:  MOVWF  x51
137A:  MOVLW  14
137C:  MOVWF  x52
137E:  CLRF   x53
1380:  MOVLW  01
1382:  MOVWF  x54
1384:  MOVLB  0
1386:  RCALL  105A
....................             glcd_rect(32+20-5,20-5,106-20-5,63,0,1); 
1388:  MOVLW  2F
138A:  MOVLB  4
138C:  MOVWF  x50
138E:  MOVLW  0F
1390:  MOVWF  x51
1392:  MOVLW  51
1394:  MOVWF  x52
1396:  MOVLW  3F
1398:  MOVWF  x53
139A:  CLRF   x54
139C:  MOVLW  01
139E:  MOVWF  x55
13A0:  MOVLB  0
13A2:  RCALL  126E
....................             glcd_circle(106, 32, 20, 0, 1); 
13A4:  MOVLW  6A
13A6:  MOVLB  4
13A8:  MOVWF  x50
13AA:  MOVLW  20
13AC:  MOVWF  x51
13AE:  MOVLW  14
13B0:  MOVWF  x52
13B2:  CLRF   x53
13B4:  MOVLW  01
13B6:  MOVWF  x54
13B8:  MOVLB  0
13BA:  RCALL  105A
13BC:  CLRF   16
13BE:  BTFSC  FF2.7
13C0:  BSF    16.7
13C2:  BCF    FF2.7
....................             gdram_vdk_to_gdram_glcd_all(); 
13C4:  CALL   03B0
13C8:  BTFSC  16.7
13CA:  BSF    FF2.7
....................          } 
13CC:  BRA    1450
13CE:  MOVLB  4
13D0:  CLRF   16
13D2:  BTFSC  FF2.7
13D4:  BSF    16.7
13D6:  BCF    FF2.7
....................          ELSE 
....................          { 
....................             GLCD_command(GLCD_GRAPHIC_MODE); 
13D8:  MOVLW  36
13DA:  MOVWF  x76
13DC:  MOVLB  0
13DE:  CALL   037A
13E2:  BTFSC  16.7
13E4:  BSF    FF2.7
....................             GLCD_MAU_NEN (0); 
13E6:  MOVLB  4
13E8:  CLRF   x50
13EA:  MOVLB  0
13EC:  CALL   0AA2
....................             glcd_rect(21, 20-5,55,63, 0, 1); 
13F0:  MOVLW  15
13F2:  MOVLB  4
13F4:  MOVWF  x50
13F6:  MOVLW  0F
13F8:  MOVWF  x51
13FA:  MOVLW  37
13FC:  MOVWF  x52
13FE:  MOVLW  3F
1400:  MOVWF  x53
1402:  CLRF   x54
1404:  MOVLW  01
1406:  MOVWF  x55
1408:  MOVLB  0
140A:  RCALL  126E
....................          //!   glcd_rect(32+20-5,20-5,106-20-5,63,0,1); 
....................             glcd_circle(64, 32, 20, 0, 1); 
140C:  MOVLW  40
140E:  MOVLB  4
1410:  MOVWF  x50
1412:  MOVLW  20
1414:  MOVWF  x51
1416:  MOVLW  14
1418:  MOVWF  x52
141A:  CLRF   x53
141C:  MOVLW  01
141E:  MOVWF  x54
1420:  MOVLB  0
1422:  RCALL  105A
....................             glcd_rect(93, 20-5, 127,63, 0, 1); 
1424:  MOVLW  5D
1426:  MOVLB  4
1428:  MOVWF  x50
142A:  MOVLW  0F
142C:  MOVWF  x51
142E:  MOVLW  7F
1430:  MOVWF  x52
1432:  MOVLW  3F
1434:  MOVWF  x53
1436:  CLRF   x54
1438:  MOVLW  01
143A:  MOVWF  x55
143C:  MOVLB  0
143E:  RCALL  126E
1440:  CLRF   16
1442:  BTFSC  FF2.7
1444:  BSF    16.7
1446:  BCF    FF2.7
....................             gdram_vdk_to_gdram_glcd_all(); 
1448:  CALL   03B0
144C:  BTFSC  16.7
144E:  BSF    FF2.7
....................          } 
.................... //!         GLCD_COMMAND(GLCD_TEXT_MODE); 
....................          WHILE(INPUT(BT0)==0); 
1450:  BSF    F93.5
1452:  BTFSS  F81.5
1454:  BRA    1450
....................       } 
....................    } 
1456:  GOTO   159E (RETURN)
.................... } 
....................  
.................... void main() 
145A:  CLRF   FF8
145C:  BCF    FD0.7
145E:  BSF    07.7
1460:  CLRF   19
1462:  CLRF   20
1464:  CLRF   21
1466:  CLRF   22
1468:  CLRF   23
146A:  CLRF   2C
146C:  MOVLB  4
146E:  CLRF   x3C
1470:  CLRF   x3D
1472:  MOVF   FC1,W
1474:  ANDLW  C0
1476:  IORLW  0F
1478:  MOVWF  FC1
147A:  MOVLW  07
147C:  MOVWF  FB4
147E:  SETF   24
1480:  SETF   25
1482:  SETF   26
1484:  SETF   27
1486:  SETF   28
1488:  SETF   29
148A:  SETF   2A
148C:  SETF   2B
.................... { 
....................    set_up_port_ic_chot(); 
148E:  MOVLB  0
1490:  GOTO   04FC
....................    setup_lcd () ; 
1494:  GOTO   0592
....................    TT_HT==0; 
....................     
....................    //setup ngat led quet 
....................    setup_timer_3 (T3_internal|T3_div_by_8); 
1498:  MOVLW  B5
149A:  MOVWF  FB1
....................    set_timer3 (-6000); 
149C:  MOVLW  E8
149E:  MOVWF  FB3
14A0:  MOVLW  90
14A2:  MOVWF  FB2
....................    enable_interrupts (global); 
14A4:  MOVLW  C0
14A6:  IORWF  FF2,F
....................    enable_interrupts (INT_timer3);    
14A8:  BSF    FA0.1
....................    //end ngat led quet 
....................     
....................    doc_thoi_gian_tu_realtime () ; 
14AA:  CALL   068C
....................     
....................    lcd_command(0x40); 
14AE:  MOVLW  40
14B0:  MOVLB  4
14B2:  MOVWF  x57
14B4:  MOVLB  0
14B6:  CALL   0554
....................    FOR (i=0;i<64;i++) { lcd_data(lcd_ma_8doan[i]); } 
14BA:  MOVLB  4
14BC:  CLRF   x3E
14BE:  BTFSC  x3E.7
14C0:  BRA    14C8
14C2:  MOVF   x3E,W
14C4:  SUBLW  3F
14C6:  BNC   14EE
14C8:  CLRF   03
14CA:  MOVF   x3E,W
14CC:  MOVFF  FF2,450
14D0:  BCF    FF2.7
14D2:  MOVLB  0
14D4:  CALL   017C
14D8:  MOVLB  4
14DA:  BTFSC  x50.7
14DC:  BSF    FF2.7
14DE:  MOVWF  x50
14E0:  MOVWF  x54
14E2:  MOVLB  0
14E4:  CALL   076E
14E8:  MOVLB  4
14EA:  INCF   x3E,F
14EC:  BRA    14BE
....................     
....................    IF (ma_ds13 != ma_ds) 
14EE:  MOVF   35,W
14F0:  SUBLW  91
14F2:  BZ    1500
....................    { 
....................       thiet_lap_thoi_gian_hien_tai () ; 
14F4:  MOVLB  0
14F6:  GOTO   0784
....................       NAP_THOI_GIAN_HTAI_VAO_DS13B07 () ; 
14FA:  GOTO   07AC
14FE:  MOVLB  4
....................    } 
....................     
....................    tt=1; 
1500:  BSF    x4E.0
....................    giaima_hienthi_to(); 
1502:  MOVLB  0
1504:  CALL   083C
....................    HT_DS1307_to ( ); 
1508:  CALL   0972
....................  
....................    doc_thoi_gian_tu_realtime(); 
150C:  CALL   068C
....................    giaytam = giay_ds13; 
1510:  MOVFF  34,37
....................  
.................... //!   //GLCD 
.................... //!   SETUP_GLCD (GLCD_CLEAR_DISPLAY); 
....................     
....................    setup_glcd(glcd_text_mode); 
1514:  MOVLW  30
1516:  MOVLB  4
1518:  MOVWF  x50
151A:  MOVLB  0
151C:  CALL   0A1A
....................    setup_glcd(glcd_graphic_mode); 
1520:  MOVLW  36
1522:  MOVLB  4
1524:  MOVWF  x50
1526:  MOVLB  0
1528:  CALL   0A1A
....................    glcd_mau_nen(0); 
152C:  MOVLB  4
152E:  CLRF   x50
1530:  MOVLB  0
1532:  CALL   0AA2
....................  
....................    WHILE (true) 
....................    { 
....................       doc_thoi_gian_tu_realtime () ; 
1536:  CALL   068C
....................       phim_nhan(); 
153A:  GOTO   0B28
....................  
....................       IF (giaytam != giay_ds13) 
153E:  MOVF   34,W
1540:  SUBWF  37,W
1542:  BZ    156A
....................       { 
....................          giaytam = giay_ds13; 
1544:  MOVFF  34,37
.................... //!         HT_DS1307(); 
....................           giai_ma_gan_cho_8led_quet(); 
1548:  GOTO   0B54
....................            
....................           if (tt==0) 
154C:  MOVLB  4
154E:  BTFSC  x4E.0
1550:  BRA    1560
....................          { 
....................             giaima_hienthi_nho(); 
1552:  MOVLB  0
1554:  GOTO   0C0E
....................             HT_DS1307_nho ( ); 
1558:  GOTO   0CB4
....................          } 
155C:  BRA    156A
155E:  MOVLB  4
....................          else  
....................          { 
....................             giaima_hienthi_to(); 
1560:  MOVLB  0
1562:  CALL   083C
....................             HT_DS1307_to ( ); 
1566:  CALL   0972
156A:  CLRF   16
156C:  BTFSC  FF2.7
156E:  BSF    16.7
1570:  BCF    FF2.7
....................          } 
....................          
....................       } 
.................... //!       for(int i=0;i<200;i++) 
.................... //!       { 
.................... //!       hien_thi_8led_7doan_quet(); 
.................... //!       } 
....................        hien_thi_8led_7doan_quet_all1 (); 
1572:  CALL   0494
1576:  BTFSC  16.7
1578:  BSF    FF2.7
157A:  CLRF   16
157C:  BTFSC  FF2.7
157E:  BSF    16.7
1580:  BCF    FF2.7
....................         
.................... //!       giaima_hienthi_to(); 
.................... //!       HT_DS1307_to( ); 
....................      
....................     
.................... //!   setup_glcd(glcd_text_mode); 
.................... //!   setup_glcd(glcd_graphic_mode); 
.................... //!   glcd_mau_nen(0); 
.................... //!   HIEN_THI_IMAGE_GLCD(); 
.................... //!   GDRAM_VDK_TO_GDRAM_GLCD_ALL (); 
.................... //!    
.................... //!   MP = KEY_4X4_DW (); 
.................... //!      IF (MP != 0XFF) 
.................... //!      { 
.................... //!         IF (MP == 10) TT_HT = ~TT_HT; 
.................... //!      } 
....................  
....................       // NHAN PHIM 
....................        
....................      
....................     // HIEN THI HINH GLCD 
....................     GLCD_command (GLCD_GRAPHIC_MODE); 
1582:  MOVLW  36
1584:  MOVLB  4
1586:  MOVWF  x76
1588:  MOVLB  0
158A:  CALL   037A
158E:  BTFSC  16.7
1590:  BSF    FF2.7
....................     GLCD_MAU_NEN (0); 
1592:  MOVLB  4
1594:  CLRF   x50
1596:  MOVLB  0
1598:  CALL   0AA2
....................     PHIM_NHAN_3(); 
159C:  BRA    1330
159E:  CLRF   16
15A0:  BTFSC  FF2.7
15A2:  BSF    16.7
15A4:  BCF    FF2.7
.................... //!    HIEN_THI_IMAGE_GLCD(); 
....................     GDRAM_VDK_TO_GDRAM_GLCD_ALL (); 
15A6:  CALL   03B0
15AA:  BTFSC  16.7
15AC:  BSF    FF2.7
15AE:  CLRF   16
15B0:  BTFSC  FF2.7
15B2:  BSF    16.7
15B4:  BCF    FF2.7
....................      
....................     // HIEN THI CHU 
....................     glcd_command(glcd_text_mode); 
15B6:  MOVLW  30
15B8:  MOVLB  4
15BA:  MOVWF  x76
15BC:  MOVLB  0
15BE:  CALL   037A
15C2:  BTFSC  16.7
15C4:  BSF    FF2.7
15C6:  CLRF   16
15C8:  BTFSC  FF2.7
15CA:  BSF    16.7
15CC:  BCF    FF2.7
....................    glcd_command (glcd_addr_line3+1); 
15CE:  MOVLW  89
15D0:  MOVLB  4
15D2:  MOVWF  x76
15D4:  MOVLB  0
15D6:  CALL   037A
15DA:  BTFSC  16.7
15DC:  BSF    FF2.7
....................    glcd_data (GIO_DS13/16  +0X30); 
15DE:  SWAPF  32,W
15E0:  MOVWF  00
15E2:  MOVLW  0F
15E4:  ANDWF  00,F
15E6:  MOVF   00,W
15E8:  ADDLW  30
15EA:  MOVLB  4
15EC:  MOVWF  x50
15EE:  CLRF   16
15F0:  BTFSC  FF2.7
15F2:  BSF    16.7
15F4:  BCF    FF2.7
15F6:  MOVWF  x78
15F8:  MOVLB  0
15FA:  CALL   03A6
15FE:  BTFSC  16.7
1600:  BSF    FF2.7
....................    glcd_data (GIO_DS13%16  +0X30); 
1602:  MOVF   32,W
1604:  ANDLW  0F
1606:  ADDLW  30
1608:  MOVLB  4
160A:  MOVWF  x50
160C:  CLRF   16
160E:  BTFSC  FF2.7
1610:  BSF    16.7
1612:  BCF    FF2.7
1614:  MOVWF  x78
1616:  MOVLB  0
1618:  CALL   03A6
161C:  BTFSC  16.7
161E:  BSF    FF2.7
1620:  CLRF   16
1622:  BTFSC  FF2.7
1624:  BSF    16.7
1626:  BCF    FF2.7
....................     
....................    glcd_command(glcd_text_mode); 
1628:  MOVLW  30
162A:  MOVLB  4
162C:  MOVWF  x76
162E:  MOVLB  0
1630:  CALL   037A
1634:  BTFSC  16.7
1636:  BSF    FF2.7
1638:  CLRF   16
163A:  BTFSC  FF2.7
163C:  BSF    16.7
163E:  BCF    FF2.7
....................    glcd_command (glcd_addr_line3 + 3); 
1640:  MOVLW  8B
1642:  MOVLB  4
1644:  MOVWF  x76
1646:  MOVLB  0
1648:  CALL   037A
164C:  BTFSC  16.7
164E:  BSF    FF2.7
....................    glcd_data (PHUT_DS13/16 +0X30); 
1650:  SWAPF  33,W
1652:  MOVWF  00
1654:  MOVLW  0F
1656:  ANDWF  00,F
1658:  MOVF   00,W
165A:  ADDLW  30
165C:  MOVLB  4
165E:  MOVWF  x50
1660:  CLRF   16
1662:  BTFSC  FF2.7
1664:  BSF    16.7
1666:  BCF    FF2.7
1668:  MOVWF  x78
166A:  MOVLB  0
166C:  CALL   03A6
1670:  BTFSC  16.7
1672:  BSF    FF2.7
....................    glcd_data (PHUT_DS13%16 +0X30); 
1674:  MOVF   33,W
1676:  ANDLW  0F
1678:  ADDLW  30
167A:  MOVLB  4
167C:  MOVWF  x50
167E:  CLRF   16
1680:  BTFSC  FF2.7
1682:  BSF    16.7
1684:  BCF    FF2.7
1686:  MOVWF  x78
1688:  MOVLB  0
168A:  CALL   03A6
168E:  BTFSC  16.7
1690:  BSF    FF2.7
1692:  CLRF   16
1694:  BTFSC  FF2.7
1696:  BSF    16.7
1698:  BCF    FF2.7
....................      
....................    glcd_command(glcd_text_mode); 
169A:  MOVLW  30
169C:  MOVLB  4
169E:  MOVWF  x76
16A0:  MOVLB  0
16A2:  CALL   037A
16A6:  BTFSC  16.7
16A8:  BSF    FF2.7
16AA:  CLRF   16
16AC:  BTFSC  FF2.7
16AE:  BSF    16.7
16B0:  BCF    FF2.7
....................    glcd_command (glcd_addr_line3 + 6); 
16B2:  MOVLW  8E
16B4:  MOVLB  4
16B6:  MOVWF  x76
16B8:  MOVLB  0
16BA:  CALL   037A
16BE:  BTFSC  16.7
16C0:  BSF    FF2.7
....................    glcd_data (GIAY_DS13/16 +0X30); 
16C2:  SWAPF  34,W
16C4:  MOVWF  00
16C6:  MOVLW  0F
16C8:  ANDWF  00,F
16CA:  MOVF   00,W
16CC:  ADDLW  30
16CE:  MOVLB  4
16D0:  MOVWF  x50
16D2:  CLRF   16
16D4:  BTFSC  FF2.7
16D6:  BSF    16.7
16D8:  BCF    FF2.7
16DA:  MOVWF  x78
16DC:  MOVLB  0
16DE:  CALL   03A6
16E2:  BTFSC  16.7
16E4:  BSF    FF2.7
....................    glcd_data (GIAY_DS13%16 +0X30); 
16E6:  MOVF   34,W
16E8:  ANDLW  0F
16EA:  ADDLW  30
16EC:  MOVLB  4
16EE:  MOVWF  x50
16F0:  CLRF   16
16F2:  BTFSC  FF2.7
16F4:  BSF    16.7
16F6:  BCF    FF2.7
16F8:  MOVWF  x78
16FA:  MOVLB  0
16FC:  CALL   03A6
1700:  BTFSC  16.7
1702:  BSF    FF2.7
1704:  BRA    1536
....................      
....................      
....................      
....................    } 
.................... } 
....................  
1706:  SLEEP 

Configuration Fuses:
   Word  1: CC27   PLL12 CPUDIV1 USBDIV HS FCMEN IESO
   Word  2: 1E3E   PUT BROWNOUT BORV21 VREGEN NOWDT WDT32768
   Word  3: 8700   CCP2C1 PBADEN LPT1OSC MCLR
   Word  4: 00A1   STVREN NOLVP ICSP2 NOXINST NODEBUG
   Word  5: C00F   NOPROTECT NOCPB NOCPD
   Word  6: E00F   NOWRT NOWRTC NOWRTB NOWRTD
   Word  7: 400F   NOEBTR NOEBTRB
