CCS PCH C Compiler, Version 5.015, 5967               15-Aug-20 14:37

               Filename:   C:\Users\tsqua\OneDrive - student.mtsac.edu\Desktop\BAI_TAP_VXL_NEW_3\TONG _HOP_NHIET_DO.lst

               ROM used:   7018 bytes (21%)
                           Largest free fragment is 25750
               RAM used:   1098 (54%) at main() level
                           1137 (56%) worst case
               Stack used: 7 locations
               Stack size: 31

*
0000:  GOTO   1A06
....................  
.................... // CHU Y NHIET DO DOI THAP PHAN 
.................... #include <tv_pickit2_shift_1.c> 
.................... #INCLUDE    <18F4550.H> 
.................... //////////// Standard Header file for the PIC18F4550 device //////////////// 
.................... /////////////////////////////////////////////////////////////////////////// 
.................... ////        (C) Copyright 1996, 2013 Custom Computer Services          //// 
.................... //// This source code may only be used by licensed users of the CCS C  //// 
.................... //// compiler.  This source code may only be distributed to other      //// 
.................... //// licensed users of the CCS C compiler.  No other use, reproduction //// 
.................... //// or distribution is permitted without written permission.          //// 
.................... //// Derivative programs created using this software in object code    //// 
.................... //// form are not restricted in any way.                               //// 
.................... /////////////////////////////////////////////////////////////////////////// 
.................... #device PIC18F4550 
0004:  CLRF   FF7
0006:  ADDLW  14
0008:  MOVWF  FF6
000A:  MOVLW  00
000C:  ADDWFC FF7,F
000E:  TBLRD*+
0010:  MOVF   FF5,W
0012:  RETURN 0
0014:  DATA C0,F9
0016:  DATA A4,B0
0018:  DATA 99,92
001A:  DATA 82,F8
001C:  DATA 80,90
001E:  DATA 88,83
0020:  DATA C6,A1
0022:  DATA 86,8E
0024:  CLRF   FF7
0026:  ADDLW  34
0028:  MOVWF  FF6
002A:  MOVLW  00
002C:  ADDWFC FF7,F
002E:  TBLRD*+
0030:  MOVF   FF5,W
0032:  RETURN 0
0034:  DATA 7F,BF
0036:  DATA DF,EF
0038:  DATA F7,FB
003A:  DATA FD,FE
003C:  CLRF   FF7
003E:  ADDLW  4C
0040:  MOVWF  FF6
0042:  MOVLW  00
0044:  ADDWFC FF7,F
0046:  TBLRD*+
0048:  MOVF   FF5,W
004A:  RETURN 0
004C:  DATA 80,C0
004E:  DATA 94,D4
0050:  DATA 4C,4D
0052:  DATA 33,35
0054:  DATA 3A,20
0056:  DATA 00,00
0058:  DATA 44,53
005A:  DATA 31,38
005C:  DATA 42,32
005E:  DATA 30,3A
0060:  DATA 20,00
*
0604:  MOVLB  4
0606:  MOVF   x6C,W
0608:  MULWF  x6E
060A:  MOVFF  FF3,01
060E:  MOVFF  FF4,00
0612:  MULWF  x6F
0614:  MOVF   FF3,W
0616:  ADDWF  00,F
0618:  MOVF   x6D,W
061A:  MULWF  x6E
061C:  MOVF   FF3,W
061E:  ADDWFC 00,W
0620:  MOVWF  02
0622:  MOVLB  0
0624:  RETURN 0
*
08E4:  CLRF   00
08E6:  CLRF   01
08E8:  MOVLB  4
08EA:  MOVF   x55,W
08EC:  BCF    FD8.0
08EE:  BTFSC  x56.0
08F0:  ADDWF  00,F
08F2:  RRCF   00,F
08F4:  RRCF   01,F
08F6:  BTFSC  x56.1
08F8:  ADDWF  00,F
08FA:  RRCF   00,F
08FC:  RRCF   01,F
08FE:  BTFSC  x56.2
0900:  ADDWF  00,F
0902:  RRCF   00,F
0904:  RRCF   01,F
0906:  BTFSC  x56.3
0908:  ADDWF  00,F
090A:  RRCF   00,F
090C:  RRCF   01,F
090E:  BTFSC  x56.4
0910:  ADDWF  00,F
0912:  RRCF   00,F
0914:  RRCF   01,F
0916:  BTFSC  x56.5
0918:  ADDWF  00,F
091A:  RRCF   00,F
091C:  RRCF   01,F
091E:  BTFSC  x56.6
0920:  ADDWF  00,F
0922:  RRCF   00,F
0924:  RRCF   01,F
0926:  BTFSC  x56.7
0928:  ADDWF  00,F
092A:  RRCF   00,F
092C:  RRCF   01,F
092E:  MOVLB  0
0930:  RETURN 0
*
0CF4:  MOVLW  8E
0CF6:  MOVWF  00
0CF8:  MOVFF  44D,01
0CFC:  MOVFF  44C,02
0D00:  CLRF   03
0D02:  MOVF   01,F
0D04:  BNZ   0D18
0D06:  MOVFF  02,01
0D0A:  CLRF   02
0D0C:  MOVLW  08
0D0E:  SUBWF  00,F
0D10:  MOVF   01,F
0D12:  BNZ   0D18
0D14:  CLRF   00
0D16:  BRA    0D28
0D18:  BCF    FD8.0
0D1A:  BTFSC  01.7
0D1C:  BRA    0D26
0D1E:  RLCF   02,F
0D20:  RLCF   01,F
0D22:  DECF   00,F
0D24:  BRA    0D18
0D26:  BCF    01.7
0D28:  RETURN 0
0D2A:  MOVLW  80
0D2C:  BTFSS  FD8.1
0D2E:  BRA    0D34
0D30:  MOVLB  4
0D32:  XORWF  x51,F
0D34:  MOVLB  4
0D36:  CLRF   x56
0D38:  CLRF   x57
0D3A:  MOVFF  44D,455
0D3E:  MOVF   x51,W
0D40:  XORWF  x55,F
0D42:  MOVF   x4C,W
0D44:  BTFSC  FD8.2
0D46:  BRA    0F06
0D48:  MOVWF  x54
0D4A:  MOVWF  00
0D4C:  MOVF   x50,W
0D4E:  BTFSC  FD8.2
0D50:  BRA    0F18
0D52:  SUBWF  x54,F
0D54:  BTFSC  FD8.2
0D56:  BRA    0E5E
0D58:  BNC   0DD6
0D5A:  MOVFF  451,45A
0D5E:  BSF    x5A.7
0D60:  MOVFF  452,459
0D64:  MOVFF  453,458
0D68:  CLRF   x57
0D6A:  BCF    FD8.0
0D6C:  RRCF   x5A,F
0D6E:  RRCF   x59,F
0D70:  RRCF   x58,F
0D72:  RRCF   x57,F
0D74:  DECFSZ x54,F
0D76:  BRA    0D68
0D78:  BTFSS  x55.7
0D7A:  BRA    0D82
0D7C:  BSF    x56.0
0D7E:  BRA    0F40
0D80:  BCF    x56.0
0D82:  BCF    x54.0
0D84:  BSF    x56.4
0D86:  MOVLW  04
0D88:  MOVWF  FEA
0D8A:  MOVLW  4F
0D8C:  MOVWF  FE9
0D8E:  BRA    0F66
0D90:  BCF    x56.4
0D92:  BTFSC  x55.7
0D94:  BRA    0DAA
0D96:  BTFSS  x54.0
0D98:  BRA    0DC0
0D9A:  RRCF   x5A,F
0D9C:  RRCF   x59,F
0D9E:  RRCF   x58,F
0DA0:  RRCF   x57,F
0DA2:  INCF   00,F
0DA4:  BTFSC  FD8.2
0DA6:  BRA    0F36
0DA8:  BRA    0DC0
0DAA:  BTFSC  x5A.7
0DAC:  BRA    0DC6
0DAE:  BCF    FD8.0
0DB0:  RLCF   x57,F
0DB2:  RLCF   x58,F
0DB4:  RLCF   x59,F
0DB6:  RLCF   x5A,F
0DB8:  DECF   00,F
0DBA:  BTFSC  FD8.2
0DBC:  BRA    0F36
0DBE:  BRA    0DAA
0DC0:  BSF    x56.6
0DC2:  BRA    0E9E
0DC4:  BCF    x56.6
0DC6:  MOVFF  44D,455
0DCA:  BTFSS  x4D.7
0DCC:  BRA    0DD2
0DCE:  BSF    x5A.7
0DD0:  BRA    0F28
0DD2:  BCF    x5A.7
0DD4:  BRA    0F28
0DD6:  MOVFF  450,454
0DDA:  MOVFF  450,00
0DDE:  MOVF   x4C,W
0DE0:  SUBWF  x54,F
0DE2:  MOVFF  44D,45A
0DE6:  BSF    x5A.7
0DE8:  MOVFF  44E,459
0DEC:  MOVFF  44F,458
0DF0:  CLRF   x57
0DF2:  BCF    FD8.0
0DF4:  RRCF   x5A,F
0DF6:  RRCF   x59,F
0DF8:  RRCF   x58,F
0DFA:  RRCF   x57,F
0DFC:  DECFSZ x54,F
0DFE:  BRA    0DF0
0E00:  BTFSS  x55.7
0E02:  BRA    0E0A
0E04:  BSF    x56.1
0E06:  BRA    0F40
0E08:  BCF    x56.1
0E0A:  BCF    x54.0
0E0C:  BSF    x56.5
0E0E:  MOVLW  04
0E10:  MOVWF  FEA
0E12:  MOVLW  53
0E14:  MOVWF  FE9
0E16:  BRA    0F66
0E18:  BCF    x56.5
0E1A:  BTFSC  x55.7
0E1C:  BRA    0E32
0E1E:  BTFSS  x54.0
0E20:  BRA    0E48
0E22:  RRCF   x5A,F
0E24:  RRCF   x59,F
0E26:  RRCF   x58,F
0E28:  RRCF   x57,F
0E2A:  INCF   00,F
0E2C:  BTFSC  FD8.2
0E2E:  BRA    0F36
0E30:  BRA    0E48
0E32:  BTFSC  x5A.7
0E34:  BRA    0E4E
0E36:  BCF    FD8.0
0E38:  RLCF   x57,F
0E3A:  RLCF   x58,F
0E3C:  RLCF   x59,F
0E3E:  RLCF   x5A,F
0E40:  DECF   00,F
0E42:  BTFSC  FD8.2
0E44:  BRA    0F36
0E46:  BRA    0E32
0E48:  BSF    x56.7
0E4A:  BRA    0E9E
0E4C:  BCF    x56.7
0E4E:  MOVFF  451,455
0E52:  BTFSS  x51.7
0E54:  BRA    0E5A
0E56:  BSF    x5A.7
0E58:  BRA    0F28
0E5A:  BCF    x5A.7
0E5C:  BRA    0F28
0E5E:  MOVFF  451,45A
0E62:  BSF    x5A.7
0E64:  MOVFF  452,459
0E68:  MOVFF  453,458
0E6C:  BTFSS  x55.7
0E6E:  BRA    0E78
0E70:  BCF    x5A.7
0E72:  BSF    x56.2
0E74:  BRA    0F40
0E76:  BCF    x56.2
0E78:  CLRF   x57
0E7A:  BCF    x54.0
0E7C:  MOVLW  04
0E7E:  MOVWF  FEA
0E80:  MOVLW  4F
0E82:  MOVWF  FE9
0E84:  BRA    0F66
0E86:  BTFSC  x55.7
0E88:  BRA    0EC2
0E8A:  MOVFF  44D,455
0E8E:  BTFSS  x54.0
0E90:  BRA    0E9E
0E92:  RRCF   x5A,F
0E94:  RRCF   x59,F
0E96:  RRCF   x58,F
0E98:  RRCF   x57,F
0E9A:  INCF   00,F
0E9C:  BZ    0F36
0E9E:  BTFSS  x57.7
0EA0:  BRA    0EB8
0EA2:  INCF   x58,F
0EA4:  BNZ   0EB8
0EA6:  INCF   x59,F
0EA8:  BNZ   0EB8
0EAA:  INCF   x5A,F
0EAC:  BNZ   0EB8
0EAE:  RRCF   x5A,F
0EB0:  RRCF   x59,F
0EB2:  RRCF   x58,F
0EB4:  INCF   00,F
0EB6:  BZ    0F36
0EB8:  BTFSC  x56.6
0EBA:  BRA    0DC4
0EBC:  BTFSC  x56.7
0EBE:  BRA    0E4C
0EC0:  BRA    0EFA
0EC2:  MOVLW  80
0EC4:  XORWF  x5A,F
0EC6:  BTFSS  x5A.7
0EC8:  BRA    0ED2
0ECA:  BRA    0F40
0ECC:  MOVFF  451,455
0ED0:  BRA    0EE6
0ED2:  MOVFF  44D,455
0ED6:  MOVF   x5A,F
0ED8:  BNZ   0EE6
0EDA:  MOVF   x59,F
0EDC:  BNZ   0EE6
0EDE:  MOVF   x58,F
0EE0:  BNZ   0EE6
0EE2:  CLRF   00
0EE4:  BRA    0F28
0EE6:  BTFSC  x5A.7
0EE8:  BRA    0EFA
0EEA:  BCF    FD8.0
0EEC:  RLCF   x57,F
0EEE:  RLCF   x58,F
0EF0:  RLCF   x59,F
0EF2:  RLCF   x5A,F
0EF4:  DECFSZ 00,F
0EF6:  BRA    0EE6
0EF8:  BRA    0F36
0EFA:  BTFSS  x55.7
0EFC:  BRA    0F02
0EFE:  BSF    x5A.7
0F00:  BRA    0F28
0F02:  BCF    x5A.7
0F04:  BRA    0F28
0F06:  MOVFF  450,00
0F0A:  MOVFF  451,45A
0F0E:  MOVFF  452,459
0F12:  MOVFF  453,458
0F16:  BRA    0F28
0F18:  MOVFF  44C,00
0F1C:  MOVFF  44D,45A
0F20:  MOVFF  44E,459
0F24:  MOVFF  44F,458
0F28:  MOVFF  45A,01
0F2C:  MOVFF  459,02
0F30:  MOVFF  458,03
0F34:  BRA    0F9E
0F36:  CLRF   00
0F38:  CLRF   01
0F3A:  CLRF   02
0F3C:  CLRF   03
0F3E:  BRA    0F9E
0F40:  CLRF   x57
0F42:  COMF   x58,F
0F44:  COMF   x59,F
0F46:  COMF   x5A,F
0F48:  COMF   x57,F
0F4A:  INCF   x57,F
0F4C:  BNZ   0F58
0F4E:  INCF   x58,F
0F50:  BNZ   0F58
0F52:  INCF   x59,F
0F54:  BNZ   0F58
0F56:  INCF   x5A,F
0F58:  BTFSC  x56.0
0F5A:  BRA    0D80
0F5C:  BTFSC  x56.1
0F5E:  BRA    0E08
0F60:  BTFSC  x56.2
0F62:  BRA    0E76
0F64:  BRA    0ECC
0F66:  MOVF   FEF,W
0F68:  ADDWF  x58,F
0F6A:  BNC   0F76
0F6C:  INCF   x59,F
0F6E:  BNZ   0F76
0F70:  INCF   x5A,F
0F72:  BTFSC  FD8.2
0F74:  BSF    x54.0
0F76:  MOVF   FED,F
0F78:  MOVF   FEF,W
0F7A:  ADDWF  x59,F
0F7C:  BNC   0F84
0F7E:  INCF   x5A,F
0F80:  BTFSC  FD8.2
0F82:  BSF    x54.0
0F84:  MOVF   FED,F
0F86:  MOVF   FEF,W
0F88:  BTFSC  FEF.7
0F8A:  BRA    0F8E
0F8C:  XORLW  80
0F8E:  ADDWF  x5A,F
0F90:  BTFSC  FD8.0
0F92:  BSF    x54.0
0F94:  BTFSC  x56.4
0F96:  BRA    0D90
0F98:  BTFSC  x56.5
0F9A:  BRA    0E18
0F9C:  BRA    0E86
0F9E:  MOVLB  0
0FA0:  GOTO   1290 (RETURN)
0FA4:  MOVLB  4
0FA6:  MOVF   x4C,W
0FA8:  BTFSC  FD8.2
0FAA:  BRA    10F6
0FAC:  MOVWF  x58
0FAE:  MOVF   x50,W
0FB0:  BTFSC  FD8.2
0FB2:  BRA    10F6
0FB4:  SUBWF  x58,F
0FB6:  BNC   0FC2
0FB8:  MOVLW  7F
0FBA:  ADDWF  x58,F
0FBC:  BTFSC  FD8.0
0FBE:  BRA    10F6
0FC0:  BRA    0FCE
0FC2:  MOVLW  81
0FC4:  SUBWF  x58,F
0FC6:  BTFSS  FD8.0
0FC8:  BRA    10F6
0FCA:  BTFSC  FD8.2
0FCC:  BRA    10F6
0FCE:  MOVFF  458,00
0FD2:  CLRF   01
0FD4:  CLRF   02
0FD6:  CLRF   03
0FD8:  CLRF   x57
0FDA:  MOVFF  44D,456
0FDE:  BSF    x56.7
0FE0:  MOVFF  44E,455
0FE4:  MOVFF  44F,454
0FE8:  MOVLW  19
0FEA:  MOVWF  x58
0FEC:  MOVF   x53,W
0FEE:  SUBWF  x54,F
0FF0:  BC    100C
0FF2:  MOVLW  01
0FF4:  SUBWF  x55,F
0FF6:  BC    100C
0FF8:  SUBWF  x56,F
0FFA:  BC    100C
0FFC:  SUBWF  x57,F
0FFE:  BC    100C
1000:  INCF   x57,F
1002:  INCF   x56,F
1004:  INCF   x55,F
1006:  MOVF   x53,W
1008:  ADDWF  x54,F
100A:  BRA    105C
100C:  MOVF   x52,W
100E:  SUBWF  x55,F
1010:  BC    1036
1012:  MOVLW  01
1014:  SUBWF  x56,F
1016:  BC    1036
1018:  SUBWF  x57,F
101A:  BC    1036
101C:  INCF   x57,F
101E:  INCF   x56,F
1020:  MOVF   x52,W
1022:  ADDWF  x55,F
1024:  MOVF   x53,W
1026:  ADDWF  x54,F
1028:  BNC   105C
102A:  INCF   x55,F
102C:  BNZ   105C
102E:  INCF   x56,F
1030:  BNZ   105C
1032:  INCF   x57,F
1034:  BRA    105C
1036:  MOVF   x51,W
1038:  IORLW  80
103A:  SUBWF  x56,F
103C:  BC    105A
103E:  MOVLW  01
1040:  SUBWF  x57,F
1042:  BC    105A
1044:  INCF   x57,F
1046:  MOVF   x51,W
1048:  IORLW  80
104A:  ADDWF  x56,F
104C:  MOVF   x52,W
104E:  ADDWF  x55,F
1050:  BNC   1024
1052:  INCF   x56,F
1054:  BNZ   1024
1056:  INCF   x57,F
1058:  BRA    1024
105A:  BSF    03.0
105C:  DECFSZ x58,F
105E:  BRA    1062
1060:  BRA    1078
1062:  BCF    FD8.0
1064:  RLCF   x54,F
1066:  RLCF   x55,F
1068:  RLCF   x56,F
106A:  RLCF   x57,F
106C:  BCF    FD8.0
106E:  RLCF   03,F
1070:  RLCF   02,F
1072:  RLCF   01,F
1074:  RLCF   x59,F
1076:  BRA    0FEC
1078:  BTFSS  x59.0
107A:  BRA    1088
107C:  BCF    FD8.0
107E:  RRCF   01,F
1080:  RRCF   02,F
1082:  RRCF   03,F
1084:  RRCF   x59,F
1086:  BRA    108C
1088:  DECF   00,F
108A:  BZ    10F6
108C:  BTFSC  x59.7
108E:  BRA    10CC
1090:  BCF    FD8.0
1092:  RLCF   x54,F
1094:  RLCF   x55,F
1096:  RLCF   x56,F
1098:  RLCF   x57,F
109A:  MOVF   x53,W
109C:  SUBWF  x54,F
109E:  BC    10AE
10A0:  MOVLW  01
10A2:  SUBWF  x55,F
10A4:  BC    10AE
10A6:  SUBWF  x56,F
10A8:  BC    10AE
10AA:  SUBWF  x57,F
10AC:  BNC   10E2
10AE:  MOVF   x52,W
10B0:  SUBWF  x55,F
10B2:  BC    10BE
10B4:  MOVLW  01
10B6:  SUBWF  x56,F
10B8:  BC    10BE
10BA:  SUBWF  x57,F
10BC:  BNC   10E2
10BE:  MOVF   x51,W
10C0:  IORLW  80
10C2:  SUBWF  x56,F
10C4:  BC    10CC
10C6:  MOVLW  01
10C8:  SUBWF  x57,F
10CA:  BNC   10E2
10CC:  INCF   03,F
10CE:  BNZ   10E2
10D0:  INCF   02,F
10D2:  BNZ   10E2
10D4:  INCF   01,F
10D6:  BNZ   10E2
10D8:  INCF   00,F
10DA:  BZ    10F6
10DC:  RRCF   01,F
10DE:  RRCF   02,F
10E0:  RRCF   03,F
10E2:  MOVFF  44D,458
10E6:  MOVF   x51,W
10E8:  XORWF  x58,F
10EA:  BTFSS  x58.7
10EC:  BRA    10F2
10EE:  BSF    01.7
10F0:  BRA    10FE
10F2:  BCF    01.7
10F4:  BRA    10FE
10F6:  CLRF   00
10F8:  CLRF   01
10FA:  CLRF   02
10FC:  CLRF   03
10FE:  MOVLB  0
1100:  RETURN 0
1102:  MOVLB  4
1104:  MOVF   x4C,W
1106:  BTFSC  FD8.2
1108:  BRA    11EC
110A:  MOVWF  00
110C:  MOVF   x50,W
110E:  BTFSC  FD8.2
1110:  BRA    11EC
1112:  ADDWF  00,F
1114:  BNC   111E
1116:  MOVLW  81
1118:  ADDWF  00,F
111A:  BC    11EC
111C:  BRA    1126
111E:  MOVLW  7F
1120:  SUBWF  00,F
1122:  BNC   11EC
1124:  BZ    11EC
1126:  MOVFF  44D,454
112A:  MOVF   x51,W
112C:  XORWF  x54,F
112E:  BSF    x4D.7
1130:  BSF    x51.7
1132:  MOVF   x4F,W
1134:  MULWF  x53
1136:  MOVFF  FF4,456
113A:  MOVF   x4E,W
113C:  MULWF  x52
113E:  MOVFF  FF4,03
1142:  MOVFF  FF3,455
1146:  MULWF  x53
1148:  MOVF   FF3,W
114A:  ADDWF  x56,F
114C:  MOVF   FF4,W
114E:  ADDWFC x55,F
1150:  MOVLW  00
1152:  ADDWFC 03,F
1154:  MOVF   x4F,W
1156:  MULWF  x52
1158:  MOVF   FF3,W
115A:  ADDWF  x56,F
115C:  MOVF   FF4,W
115E:  ADDWFC x55,F
1160:  MOVLW  00
1162:  CLRF   02
1164:  ADDWFC 03,F
1166:  ADDWFC 02,F
1168:  MOVF   x4D,W
116A:  MULWF  x53
116C:  MOVF   FF3,W
116E:  ADDWF  x55,F
1170:  MOVF   FF4,W
1172:  ADDWFC 03,F
1174:  MOVLW  00
1176:  ADDWFC 02,F
1178:  MOVF   x4D,W
117A:  MULWF  x52
117C:  MOVF   FF3,W
117E:  ADDWF  03,F
1180:  MOVF   FF4,W
1182:  ADDWFC 02,F
1184:  MOVLW  00
1186:  CLRF   01
1188:  ADDWFC 01,F
118A:  MOVF   x4F,W
118C:  MULWF  x51
118E:  MOVF   FF3,W
1190:  ADDWF  x55,F
1192:  MOVF   FF4,W
1194:  ADDWFC 03,F
1196:  MOVLW  00
1198:  ADDWFC 02,F
119A:  ADDWFC 01,F
119C:  MOVF   x4E,W
119E:  MULWF  x51
11A0:  MOVF   FF3,W
11A2:  ADDWF  03,F
11A4:  MOVF   FF4,W
11A6:  ADDWFC 02,F
11A8:  MOVLW  00
11AA:  ADDWFC 01,F
11AC:  MOVF   x4D,W
11AE:  MULWF  x51
11B0:  MOVF   FF3,W
11B2:  ADDWF  02,F
11B4:  MOVF   FF4,W
11B6:  ADDWFC 01,F
11B8:  INCF   00,F
11BA:  BTFSC  01.7
11BC:  BRA    11C8
11BE:  RLCF   x55,F
11C0:  RLCF   03,F
11C2:  RLCF   02,F
11C4:  RLCF   01,F
11C6:  DECF   00,F
11C8:  MOVLW  00
11CA:  BTFSS  x55.7
11CC:  BRA    11E2
11CE:  INCF   03,F
11D0:  ADDWFC 02,F
11D2:  ADDWFC 01,F
11D4:  MOVF   01,W
11D6:  BNZ   11E2
11D8:  MOVF   02,W
11DA:  BNZ   11E2
11DC:  MOVF   03,W
11DE:  BNZ   11E2
11E0:  INCF   00,F
11E2:  BTFSC  x54.7
11E4:  BSF    01.7
11E6:  BTFSS  x54.7
11E8:  BCF    01.7
11EA:  BRA    11F4
11EC:  CLRF   00
11EE:  CLRF   01
11F0:  CLRF   02
11F2:  CLRF   03
11F4:  MOVLB  0
11F6:  GOTO   1344 (RETURN)
11FA:  MOVLW  8E
11FC:  MOVWF  00
11FE:  MOVLB  4
1200:  MOVF   x4C,W
1202:  SUBWF  00,F
1204:  MOVFF  44D,02
1208:  MOVFF  44E,01
120C:  BSF    02.7
120E:  MOVF   00,F
1210:  BZ    1224
1212:  BCF    FD8.0
1214:  MOVF   02,F
1216:  BNZ   121C
1218:  MOVF   01,F
121A:  BZ    1224
121C:  RRCF   02,F
121E:  RRCF   01,F
1220:  DECFSZ 00,F
1222:  BRA    1212
1224:  BTFSS  x4D.7
1226:  BRA    1232
1228:  COMF   01,F
122A:  COMF   02,F
122C:  INCF   01,F
122E:  BTFSC  FD8.2
1230:  INCF   02,F
1232:  MOVLB  0
1234:  GOTO   1356 (RETURN)
*
1362:  MOVLB  4
1364:  MOVF   x4E,W
1366:  CLRF   01
1368:  SUBWF  x4D,W
136A:  BC    1372
136C:  MOVFF  44D,00
1370:  BRA    138A
1372:  CLRF   00
1374:  MOVLW  08
1376:  MOVWF  x4F
1378:  RLCF   x4D,F
137A:  RLCF   00,F
137C:  MOVF   x4E,W
137E:  SUBWF  00,W
1380:  BTFSC  FD8.0
1382:  MOVWF  00
1384:  RLCF   01,F
1386:  DECFSZ x4F,F
1388:  BRA    1378
138A:  MOVLB  0
138C:  RETURN 0
138E:  CLRF   01
1390:  CLRF   02
1392:  CLRF   00
1394:  CLRF   03
1396:  MOVLB  4
1398:  MOVF   x51,W
139A:  BNZ   13A0
139C:  MOVF   x50,W
139E:  BZ    13D0
13A0:  MOVLW  10
13A2:  MOVWF  x52
13A4:  BCF    FD8.0
13A6:  RLCF   x4E,F
13A8:  RLCF   x4F,F
13AA:  RLCF   00,F
13AC:  RLCF   03,F
13AE:  MOVF   x51,W
13B0:  SUBWF  03,W
13B2:  BNZ   13B8
13B4:  MOVF   x50,W
13B6:  SUBWF  00,W
13B8:  BNC   13C8
13BA:  MOVF   x50,W
13BC:  SUBWF  00,F
13BE:  BTFSS  FD8.0
13C0:  DECF   03,F
13C2:  MOVF   x51,W
13C4:  SUBWF  03,F
13C6:  BSF    FD8.0
13C8:  RLCF   01,F
13CA:  RLCF   02,F
13CC:  DECFSZ x52,F
13CE:  BRA    13A4
13D0:  MOVLB  0
13D2:  RETURN 0
*
1834:  TBLRD*+
1836:  MOVF   FF5,F
1838:  BZ    1852
183A:  MOVFF  FF6,44C
183E:  MOVFF  FF7,44D
1842:  MOVFF  FF5,44E
1846:  RCALL  181C
1848:  MOVFF  44C,FF6
184C:  MOVFF  44D,FF7
1850:  BRA    1834
1852:  RETURN 0
....................  
.................... #list 
....................  
.................... #DEVICE     ADC=10 
.................... #FUSES      NOWDT,PUT,HS,NOPROTECT,NOLVP,CPUDIV1 
.................... #USE        I2C(MASTER,SLOW,SDA=PIN_B0,SCL=PIN_B1) 
*
033E:  MOVLW  08
0340:  MOVWF  01
0342:  NOP   
0344:  BCF    F8A.1
0346:  BCF    F93.1
0348:  NOP   
034A:  MOVLB  4
034C:  RLCF   x4C,F
034E:  BCF    F8A.0
0350:  BTFSC  FD8.0
0352:  BSF    F93.0
0354:  BTFSS  FD8.0
0356:  BCF    F93.0
0358:  BSF    F93.1
035A:  BTFSS  F81.1
035C:  BRA    035A
035E:  DECFSZ 01,F
0360:  BRA    0364
0362:  BRA    0368
0364:  MOVLB  0
0366:  BRA    0342
0368:  NOP   
036A:  BCF    F8A.1
036C:  BCF    F93.1
036E:  NOP   
0370:  BSF    F93.0
0372:  NOP   
0374:  NOP   
0376:  BSF    F93.1
0378:  BTFSS  F81.1
037A:  BRA    0378
037C:  CLRF   01
037E:  NOP   
0380:  BTFSC  F81.0
0382:  BSF    01.0
0384:  BCF    F8A.1
0386:  BCF    F93.1
0388:  BCF    F8A.0
038A:  BCF    F93.0
038C:  MOVLB  0
038E:  RETURN 0
0390:  MOVLW  08
0392:  MOVLB  4
0394:  MOVWF  x4D
0396:  MOVFF  00,44E
039A:  BSF    F93.0
039C:  NOP   
039E:  BSF    F93.1
03A0:  BTFSS  F81.1
03A2:  BRA    03A0
03A4:  BTFSC  F81.0
03A6:  BSF    FD8.0
03A8:  BTFSS  F81.0
03AA:  BCF    FD8.0
03AC:  RLCF   01,F
03AE:  NOP   
03B0:  BCF    F93.1
03B2:  BCF    F8A.1
03B4:  DECFSZ x4D,F
03B6:  BRA    039A
03B8:  BSF    F93.0
03BA:  NOP   
03BC:  BCF    F8A.0
03BE:  MOVF   x4E,W
03C0:  BTFSS  FD8.2
03C2:  BCF    F93.0
03C4:  NOP   
03C6:  BSF    F93.1
03C8:  BTFSS  F81.1
03CA:  BRA    03C8
03CC:  NOP   
03CE:  BCF    F8A.1
03D0:  BCF    F93.1
03D2:  NOP   
03D4:  BCF    F8A.0
03D6:  BCF    F93.0
03D8:  MOVLB  0
03DA:  RETURN 0
.................... #USE        DELAY(CLOCK=20000000) 
*
014C:  MOVLW  04
014E:  MOVWF  FEA
0150:  MOVLW  4D
0152:  MOVWF  FE9
0154:  MOVF   FEF,W
0156:  BZ    0172
0158:  MOVLW  06
015A:  MOVWF  01
015C:  CLRF   00
015E:  DECFSZ 00,F
0160:  BRA    015E
0162:  DECFSZ 01,F
0164:  BRA    015C
0166:  MOVLW  7B
0168:  MOVWF  00
016A:  DECFSZ 00,F
016C:  BRA    016A
016E:  DECFSZ FEF,F
0170:  BRA    0158
0172:  RETURN 0
*
01D0:  MOVLW  03
01D2:  MOVLB  4
01D4:  SUBWF  x4E,F
01D6:  BNC   01EC
01D8:  MOVLW  04
01DA:  MOVWF  FEA
01DC:  MOVLW  4E
01DE:  MOVWF  FE9
01E0:  MOVF   FEF,W
01E2:  BZ    01EC
01E4:  BRA    01E8
01E6:  BRA    01E8
01E8:  DECFSZ FEF,F
01EA:  BRA    01E6
01EC:  MOVLB  0
01EE:  RETURN 0
.................... //#USE        rs232(baud=9600, xmit=PIN_C6,rcv=PIN_C7) 
.................... //NUT NHAN: 
.................... #DEFINE  BT0     PIN_B5 
.................... #DEFINE  BT1     PIN_B4 
.................... #DEFINE  BT2     PIN_B3 
.................... #DEFINE  BT3     PIN_B2 
....................  
.................... #DEFINE  ON      BT0       //DK LED DON, MOTOR 
.................... #DEFINE  OFF     BT1 
.................... #DEFINE  INV     BT2 
....................  
.................... #DEFINE  UP      BT0    //DK LED DON 
.................... #DEFINE  DW      BT1 
.................... #DEFINE  CLR     BT2 
.................... #DEFINE  MOD     BT3 
....................  
.................... #DEFINE  STOP    BT3 
....................  
.................... #DEFINE  ON1     BT0      
.................... #DEFINE  OFF1    BT1 
.................... #DEFINE  ON2     BT2        
.................... #DEFINE  OFF2    BT3 
....................  
....................  
.................... #DEFINE     TRIGGER      PIN_E2 
.................... #DEFINE     ECHO         PIN_E1 
.................... //   IC74138_A    PIN_B6   //OUTPUT GIAI MA 2 SANG 4 TICH CUC MUC 0 
.................... //   IC74138_B    PIN_B7   //OUTPUT GIAI MA 2 SANG 4 TICH CUC MUC 0 
....................  
.................... //          ENCODER  PIN_C0   //RC0/T13CKI 
....................  
.................... //          CB_KC    PIN_A2   //RA2/AN2 
.................... //          PIR      PIN_A3   //RA3/AN3 
.................... //          CBXUNG   PIN_A4   //RA4/T0CKI 
.................... //          LEDTHU   PIN_A4   //RA4/T0CKI//SW802 
....................  
.................... //          CB_KCSA_TRIGGER  PIN_E2   //RE2/SDO  DUNG CHUNG 
.................... //          CB_KCSA_RCHO     PIN_E1   //RE1 
....................  
.................... //          CB_TCS3200_OUT    PIN_E1   //RE1 //CAM BIEN MAU TCS3200 
.................... //          CB_TCS3200_S0     B12      //LAY TU MBI5026 
.................... //          CB_TCS3200_S1     B13      //LAY TU MBI5026 
.................... //          CB_TCS3200_S2     B14      //LAY TU MBI5026 
.................... //          CB_TCS3200_S3     B15      //LAY TU MBI5026 
....................  
.................... //          CB_POWER  SW803 
.................... //          CB_GAS      AIN3_PCF8591T   //RE1 
.................... //          CB_QUANG    AIN2_PCF8591T    
.................... //          CB_LM35B    AIN1_PCF8591T   //RA1/AN1 
.................... //          CB_LM35A    AIN0_PCF8591T   //RE1/AN0 
....................  
.................... //XXXXXXXXXXXXXXXXXXXXXXXXXXXXXXXXXXXXXXXXXXXXXXXXX 
.................... #DEFINE      ENABLE_573A      PIN_D1         //CS0 CUA A 
.................... #DEFINE      ENABLE_573B      PIN_D0         //CS1 CUA B 
.................... //XXXXXXXXXXXXXXXXXXXXXXXXXXXXXXXXXXXXXXXXXXXXXXXXX 
.................... #DEFINE      SSDO             PIN_E2         //CHUNG TAT CA 
.................... #DEFINE      SSCK             PIN_E0         //CHUNG TAT CA 
.................... //XXXXXXXXXXXXXXXXXXXXXXXXXXXXXXXXXXXXXXXXXXXXXXXXX 
.................... #DEFINE      RCK_4LED7DOAN    PIN_D7         //A - 4 BYTE 
.................... #DEFINE      G_4LED7DOAN      PIN_D6         //A - 4 BYTE 
.................... //XXXXXXXXXXXXXXXXXXXXXXXXXXXXXXXXXXXXXXXXXXXX     
.................... #DEFINE      RCK_MATRANLED    PIN_D7         //B - 3 BYTE DAO 
.................... #DEFINE      G_MATRANLED      PIN_D6         //B - 3 BYTE DAO 
.................... //XXXXXXXXXXXXXXXXXXXXXXXXXXXXXXXXXXXXXXXXXXXXXXXXX 
.................... #DEFINE      RCK_32LED        PIN_D5         //A - 4 BYTE 
.................... #DEFINE      G_32LED          PIN_D4         //A - 4 BYTE 
.................... //XXXXXXXXXXXXXXXXXXXXXXXXXXXXXXXXXXXXXXXXXXXX  
.................... #DEFINE      RCK_8LEDQUET     PIN_D5         //B - 2 BYTE DAO 
.................... #DEFINE      G_8LEDQUET       PIN_D4         //B - 2 BYTE DAO 
.................... //XXXXXXXXXXXXXXXXXXXXXXXXXXXXXXXXXXXXXXXXXXXXXXXXX 
.................... #DEFINE      RCK_LCD20X4      PIN_D3         //A - 2 BYTE DAO 
.................... #DEFINE      G_LCD20X4         PIN_D2         //A - 2 BYTE DAO 
.................... //XXXXXXXXXXXXXXXXXXXXXXXXXXXXXXXXXXXXXXXXXXXX  
.................... #DEFINE      RCK_BUZERELAY    PIN_D3     //B - 1 BYTE  
.................... #DEFINE      G_BUZERELAY      PIN_D2         //B - 1 BYTE  
....................  
.................... VOID XUAT_LCD20X4(UNSIGNED INT8 LCD_SIGNAL,LCD_INS_HTHI); 
....................  
.................... VOID XUAT_BUZZER_RELAY(); 
.................... //XXXXXXXXXXXXXXXXXXXXXXXXXXXXXXXXXXXXXXXXXXXX    
.................... #DEFINE     CHOT_2_IC_74573_A_B  OUTPUT_D(0XFC) 
....................  
.................... UNSIGNED INT8 TIN_HIEU_DK_74573_A; 
.................... #BIT G_4A         = TIN_HIEU_DK_74573_A.6 
.................... #BIT G_32A        = TIN_HIEU_DK_74573_A.4 
.................... #BIT G_LCDA       = TIN_HIEU_DK_74573_A.2 
.................... //XXXXXXXXXXXXXXXXXXXXXXXXXXXXXXXXXXXXXXXXXXXX          
.................... #DEFINE     MO_32_LED_DON        G_32A=0; //OUTPUT_LOW(G_32LED)  
.................... #DEFINE     TAT_32_LED_DON       G_32A=1; //OUTPUT_HIGH(G_32LED)  
.................... //XXXXXXXXXXXXXXXXXXXXXXXXXXXXXXXXXXXXXXXXXXXX          
.................... #DEFINE     MO_4_LED_7DOAN       G_4A=0;  //OUTPUT_LOW(G_4LED7DOAN) 
.................... #DEFINE     TAT_4_LED_7DOAN      G_4A=1;  //OUTPUT_HIGH(G_4LED7DOAN) 
.................... //XXXXXXXXXXXXXXXXXXXXXXXXXXXXXXXXXXXXXXXXXXXX  
.................... #DEFINE     MO_GLCD_LCD           G_LCDA=0;   //OUTPUT_LOW(G_LCD20X4) 
.................... #DEFINE     TAT_GLCD_LCD          G_LCDA=1;   // OUTPUT_LOW(G_LCD20X4) 
....................  
.................... UNSIGNED INT8 TIN_HIEU_DK_74573_B;   
.................... #BIT G_MTB        = TIN_HIEU_DK_74573_B.6 
.................... #BIT G_8B         = TIN_HIEU_DK_74573_B.4 
.................... #BIT G_RBDCB      = TIN_HIEU_DK_74573_B.2 
.................... //XXXXXXXXXXXXXXXXXXXXXXXXXXXXXXXXXXXXXXXXXXXX  
.................... #DEFINE     MO_LED_MATRAN        G_MTB=0; //OUTPUT_LOW(G_MATRANLED) 
.................... #DEFINE     TAT_LED_MATRAN       G_MTB=1; //OUTPUT_LOW(G_MATRANLED) 
.................... //XXXXXXXXXXXXXXXXXXXXXXXXXXXXXXXXXXXXXXXXXXXX        
.................... #DEFINE     MO_8_LED_QUET        G_8B=0;  //OUTPUT_LOW(G_8LEDQUET) 
.................... #DEFINE     TAT_8_LED_QUET       G_8B=1;  //OUTPUT_LOW(G_8LEDQUET) 
.................... //XXXXXXXXXXXXXXXXXXXXXXXXXXXXXXXXXXXXXXXXXXXX          
.................... #DEFINE     MO_RELAY_BUZZER_DC   G_RBDCB=0;  //OUTPUT_LOW(G_BUZERELAY) 
.................... #DEFINE     TAT_RELAY_BUZZER_DC  G_RBDCB=1;  //OUTPUT_LOW(G_BUZERELAY) 
....................  
.................... //XXXXXXXXXXXXXXXXXXXXXXXXXXXXXXXXXXXXXXXXXXXX 
.................... //CHUONG TRINH KIEM TRA PHIM BT1 
.................... //XXXXXXXXXXXXXXXXXXXXXXXXXXXXXXXXXXXXXXXXXXXX 
.................... UNSIGNED INT8 DL_BTN=0; 
.................... INT1 PHIM_BT0(UNSIGNED INT16 DL) 
.................... {   
....................     IF (!INPUT(BT0)) 
....................     {   
....................       DL_BTN++; 
....................        
....................       IF (DL_BTN>= DL) 
....................          { 
....................             DL_BTN =0; 
....................             RETURN(1); 
....................          } 
....................       ELSE RETURN(0); 
....................     } 
....................     ELSE    RETURN(0); 
.................... }  
.................... //XXXXXXXXXXXXXXXXXXXXXXXXXXXXXXXXXXXXXXXXXXXX 
.................... //CHUONG TRINH KIEM TRA PHIM BT1 
.................... //XXXXXXXXXXXXXXXXXXXXXXXXXXXXXXXXXXXXXXXXXXXX 
.................... INT1 PHIM_BT1(UNSIGNED INT16 DL ) 
.................... {   
....................     IF (!INPUT(BT1)) 
....................     {   
....................       DL_BTN++; 
....................        
....................       IF (DL_BTN>= DL) 
....................          { 
....................             DL_BTN =0; 
....................             RETURN(1); 
....................          } 
....................       ELSE RETURN(0); 
....................     } 
....................     ELSE    RETURN(0); 
.................... }  
.................... //XXXXXXXXXXXXXXXXXXXXXXXXXXXXXXXXXXXXXXXXXXXX 
.................... //CHUONG TRINH KIEM TRA PHIM BT2       
.................... //XXXXXXXXXXXXXXXXXXXXXXXXXXXXXXXXXXXXXXXXXXXX                                     
.................... INT1 PHIM_BT2(UNSIGNED INT16 DL ) 
.................... {                                         
....................     IF (!INPUT(BT2)) 
....................     {   
....................       DL_BTN++; 
....................        
....................       IF (DL_BTN>= DL) 
....................          { 
....................             DL_BTN =0; 
....................             RETURN(1); 
....................          } 
....................       ELSE RETURN(0); 
....................     } 
....................     ELSE    RETURN(0); 
....................                                           
.................... }       
....................  
.................... //XXXXXXXXXXXXXXXXXXXXXXXXXXXXXXXXXXXXXXXXXXXX 
.................... //CHUONG TRINH KIEM TRA PHIM BT3 
.................... //XXXXXXXXXXXXXXXXXXXXXXXXXXXXXXXXXXXXXXXXXXXX 
.................... INT1 PHIM_BT3(UNSIGNED INT16 DL,  UNSIGNED INT8 SOLAN  ) 
.................... {   
....................     IF (!INPUT(BT3)) 
....................     {   
....................       DL_BTN++; 
....................       IF(DL_BTN==1) RETURN(1); 
....................       ELSE 
....................       { 
....................          IF (DL_BTN>= DL) 
....................          DL_BTN =SOLAN; 
....................       } 
....................     } 
....................     ELSE    
....................     { 
....................       //DL_BTN =0; 
....................       RETURN(0); 
....................     } 
.................... }  
.................... //XXXXXXXXXXXXXXXXXXXXXXXXXXXXXXXXXXXXXXXXXXXX 
.................... //KHAI BAO DU LIEU 16 BIT CHO MODULE RELAY, TRIAC, BUZZER, DONG CO 
.................... //XXXXXXXXXXXXXXXXXXXXXXXXXXXXXXXXXXXXXXXXXXXX 
.................... UNSIGNED INT16 RBDC; 
.................... #BIT STEP_MOTOR_ENABLE  = RBDC.0    //1=ENA,0=DIS 
.................... #BIT STEP_MOTOR_IN1     = RBDC.1     
.................... #BIT STEP_MOTOR_IN2     = RBDC.2 
.................... #BIT STEP_MOTOR_IN3     = RBDC.3 
.................... #BIT STEP_MOTOR_IN4     = RBDC.4 
.................... #BIT DC_ENABLE          = RBDC.5    //1=ENA,0=DIS 
.................... #BIT PWRKEY             = RBDC.6    //KHOI TAO SIM900 
....................  
.................... #BIT BUZZER             = RBDC.8    //1=ON,0=OFF 
.................... #BIT TRIAC_1            = RBDC.9    //1=ON,0=OFF 
.................... #BIT TRIAC_2            = RBDC.10   //1=ON,0=OFF 
.................... #BIT RELAY_1            = RBDC.11   //0=ON,1=OFF 
.................... #BIT RELAY_2            = RBDC.12   //0=ON,1=OFF 
....................  
.................... //HAM 103 
.................... //XXXXXXXXXXXXXXXXXXXXXXXXXXXXXXXXXXXXXXXXXXXX 
.................... //CHUONG TRINH CON KHOI TAO IC CHOT 
.................... //XXXXXXXXXXXXXXXXXXXXXXXXXXXXXXXXXXXXXXXXXXXX          
.................... #DEFINE     CHO_IC_74573_A_GOI_DU_LIEU     OUTPUT_HIGH(ENABLE_573A) 
.................... #DEFINE     CHOT_IC_74573_A_GOI_DU_LIEU    OUTPUT_LOW(ENABLE_573A) 
....................  
.................... #DEFINE     CHO_IC_74573_B_GOI_DU_LIEU     OUTPUT_HIGH(ENABLE_573B) 
.................... #DEFINE     CHOT_IC_74573_B_GOI_DU_LIEU    OUTPUT_LOW(ENABLE_573B) 
.................... VOID MO_IC_74573_A_THONG_DL(); 
....................  
.................... //XXXXXXXXXXXXXXXXXXXXXXXXXXXXXXXXXXXXXXXXXXXX    
.................... CONST UNSIGNED CHAR MA7DOAN[16]= {0XC0,0XF9,0xA4,0XB0,0X99,0X92,0X82,0XF8, 
.................... 0X80,0X90,0x88, 0x83, 0xC6, 0xA1, 0x86, 0x8E}; 
.................... #DEFINE     MASO0    0XC0 
.................... #DEFINE     MASO1    0XF9 
.................... #DEFINE     MASO2    0XA4 
.................... #DEFINE     MASO3    0XB0 
.................... #DEFINE     MASO4    0X99 
.................... #DEFINE     MASO5    0X92 
.................... #DEFINE     MASO6    0X82 
.................... #DEFINE     MASO7    0XF8 
....................  
.................... //XXXXXXXXXXXXXXXXXXXXXXXXXXXXXXXXXXXXXXXXXXXX  
.................... //HAM 102 
.................... //XXXXXXXXXXXXXXXXXXXXXXXXXXXXXXXXXXXXXXXXXXXX     
.................... //XUAT 1 BYTE RA THANH GHI DICH 
.................... //XXXXXXXXXXXXXXXXXXXXXXXXXXXXXXXXXXXXXXXXXXXX     
.................... VOID XUAT_1BYTE(UNSIGNED INT8 BYTEXUAT) 
.................... { 
....................    UNSIGNED INT8   SB,X;    
....................    #BIT BSERI  = X.7 
....................    X = BYTEXUAT; 
*
0080:  MOVFF  453,455
....................    FOR (SB=0;SB<8;SB++) 
0084:  MOVLB  4
0086:  CLRF   x54
0088:  MOVF   x54,W
008A:  SUBLW  07
008C:  BNC   00AA
....................       {                                                  
....................          OUTPUT_BIT(SSDO,BSERI);     
008E:  BTFSC  x55.7
0090:  BRA    0096
0092:  BCF    F8D.2
0094:  BRA    0098
0096:  BSF    F8D.2
0098:  BCF    F96.2
....................          OUTPUT_LOW(SSCK); OUTPUT_HIGH(SSCK); 
009A:  BCF    F96.0
009C:  BCF    F8D.0
009E:  BCF    F96.0
00A0:  BSF    F8D.0
....................          X= X<<1;          
00A2:  BCF    FD8.0
00A4:  RLCF   x55,F
00A6:  INCF   x54,F
00A8:  BRA    0088
....................      } 
00AA:  MOVLB  0
00AC:  RETURN 0
.................... } 
.................... //XXXXXXXXXXXXXXXXXXXXXXXXXXXXXXXXXXXXXXXXXXXX  
.................... //HAM 301 
.................... //XXXXXXXXXXXXXXXXXXXXXXXXXXXXXXXXXXXXXXXXXXXX 
.................... //CHUONG TRINH CON XUAT 4 BYTE RA 32 LED DON 
.................... //XXXXXXXXXXXXXXXXXXXXXXXXXXXXXXXXXXXXXXXXXXXX 
.................... VOID XUAT_32LED_DON_4BYTE(UNSIGNED INT8 BLD3,BLD2,BLD1,BLD0) 
.................... {      
....................       XUAT_1BYTE(BLD3);           
....................       XUAT_1BYTE(BLD2); 
....................       XUAT_1BYTE(BLD1);           
....................       XUAT_1BYTE(BLD0);             
....................       MO_32_LED_DON;       
....................       MO_IC_74573_A_THONG_DL();             
....................       OUTPUT_HIGH(RCK_32LED);    OUTPUT_LOW(RCK_32LED); 
....................       CHOT_IC_74573_A_GOI_DU_LIEU;       
.................... } 
.................... //HAM 302 
.................... //XXXXXXXXXXXXXXXXXXXXXXXXXXXXXXXXXXXXXXXXXXXX 
.................... //CHUONG TRINH CON XUAT 2 WORD 16 BITRA 32 LED DON 
.................... //XXXXXXXXXXXXXXXXXXXXXXXXXXXXXXXXXXXXXXXXXXXX 
.................... VOID XUAT_32LED_DON_2WORD(UNSIGNED INT16 WLD1, UNSIGNED INT16 WLD0) 
.................... {      
....................      UNSIGNED INT8  B3,B2,B1,B0; 
....................      B3 = WLD1>>8;  B2 = WLD1;  
....................      B1 = WLD0>>8;  B0 = WLD0; 
....................      XUAT_32LED_DON_4BYTE(B3,B2,B1,B0); 
.................... } 
.................... //HAM 303 
.................... //XXXXXXXXXXXXXXXXXXXXXXXXXXXXXXXXXXXXXXXXXXXX 
.................... //CHUONG TRINH CON XUAT 1 DOUBLE WORD RA 32 LED DON 
.................... //XXXXXXXXXXXXXXXXXXXXXXXXXXXXXXXXXXXXXXXXXXXX 
.................... VOID XUAT_32LED_DON_1DW(UNSIGNED LONG LONG DWLD) 
.................... {      
....................      UNSIGNED INT16  WD1,WD0; 
....................      WD1 = DWLD>>16;  WD0 = DWLD; 
....................      XUAT_32LED_DON_2WORD(WD1,WD0); 
.................... } 
....................  
.................... //HAM 304 
.................... //XXXXXXXXXXXXXXXXXXXXXXXXXXXXXXXXXXXXXXXXXXXX 
.................... //CHUONG TRINH CON MO 32 LED DON SANG 
.................... //XXXXXXXXXXXXXXXXXXXXXXXXXXXXXXXXXXXXXXXXXXXX 
.................... VOID MO_32LED_DON() 
.................... {         
....................      XUAT_32LED_DON_1DW(0XFFFFFFFF); 
.................... } 
.................... //HAM 305 
.................... //XXXXXXXXXXXXXXXXXXXXXXXXXXXXXXXXXXXXXXXXXXXX 
.................... //CHUONG TRINH CON TAT 32 LED DON  
.................... //XXXXXXXXXXXXXXXXXXXXXXXXXXXXXXXXXXXXXXXXXXXX 
.................... VOID TAT_32LED_DON() 
.................... {         
....................      XUAT_32LED_DON_1DW(0); 
.................... } 
.................... //XXXXXXXXXXXXXXXXXXXXXXXXXXXXXXXXXXXXXXXXXXXX     
.................... //XUAT 1 BIT ROI TRA LAI KET QUA SAU KHI DICH DI 1 BIT 
.................... //XXXXXXXXXXXXXXXXXXXXXXXXXXXXXXXXXXXXXXXXXXXX     
.................... UNSIGNED  INT8 XUAT_1BIT(UNSIGNED INT8 BYTEXUAT) 
.................... { 
....................       UNSIGNED INT8   XBITX;    
....................       #BIT BSERIX  = XBITX.0 
....................       XBITX = BYTEXUAT; 
....................                                              
....................       OUTPUT_BIT(SSDO,BSERIX);     
....................       OUTPUT_LOW(SSCK); OUTPUT_HIGH(SSCK); 
....................       XBITX= XBITX>>1;    
....................       RETURN(XBITX);   
.................... } 
.................... //XXXXXXXXXXXXXXXXXXXXXXXXXXXXXXXXXXXXXXXXXXXX  
.................... //HAM 101 
.................... //XXXXXXXXXXXXXXXXXXXXXXXXXXXXXXXXXXXXXXXXXXXX     
.................... //HAM KHOI TAO CAC PORT VA IC CHOT 
.................... //XXXXXXXXXXXXXXXXXXXXXXXXXXXXXXXXXXXXXXXXXXXX     
.................... VOID SET_UP_PORT_IC_CHOT() 
.................... {      
....................       SET_TRIS_D(0x00);     
*
0062:  MOVLW  00
0064:  MOVWF  F95
....................       SET_TRIS_E(0X00); 
0066:  MOVWF  F96
....................       OUTPUT_D(0XFF); 
0068:  CLRF   F95
006A:  SETF   F8C
....................       TIN_HIEU_DK_74573_A=0XFF;   
006C:  SETF   04
....................       TIN_HIEU_DK_74573_B=0XFF;       
006E:  SETF   05
....................       CHOT_IC_74573_A_GOI_DU_LIEU; 
0070:  BCF    F95.1
0072:  BCF    F8C.1
....................       CHOT_IC_74573_B_GOI_DU_LIEU;   
0074:  BCF    F95.0
0076:  BCF    F8C.0
....................       RBDC=0; 
0078:  CLRF   08
007A:  CLRF   07
007C:  GOTO   1A3E (RETURN)
.................... } 
.................... //HAM 104 
.................... //XXXXXXXXXXXXXXXXXXXXXXXXXXXXXXXXXXXXXXXXXXXX     
.................... //XUAT CÁC THIEU DIEU KHIEN  
.................... //GIU NGUYEN CAC TRANG THAI CUA 2 MODULE KHAC 
.................... //XXXXXXXXXXXXXXXXXXXXXXXXXXXXXXXXXXXXXXXXXXXX     
.................... VOID MO_IC_74573_A_THONG_DL() 
.................... {      
....................       OUTPUT_D(0X00); 
*
00AE:  CLRF   F95
00B0:  CLRF   F8C
....................       OUTPUT_BIT(G_32LED,G_32A); 
00B2:  BTFSC  04.4
00B4:  BRA    00BA
00B6:  BCF    F8C.4
00B8:  BRA    00BC
00BA:  BSF    F8C.4
00BC:  BCF    F95.4
....................       OUTPUT_BIT(G_4LED7DOAN,G_4A); 
00BE:  BTFSC  04.6
00C0:  BRA    00C6
00C2:  BCF    F8C.6
00C4:  BRA    00C8
00C6:  BSF    F8C.6
00C8:  BCF    F95.6
....................       OUTPUT_BIT(G_LCD20X4,G_LCDA);   
00CA:  BTFSC  04.2
00CC:  BRA    00D2
00CE:  BCF    F8C.2
00D0:  BRA    00D4
00D2:  BSF    F8C.2
00D4:  BCF    F95.2
....................       CHO_IC_74573_A_GOI_DU_LIEU; 
00D6:  BCF    F95.1
00D8:  BSF    F8C.1
00DA:  GOTO   00FA (RETURN)
.................... } 
.................... VOID MO_IC_74573_B_THONG_DL() 
.................... {      
....................       OUTPUT_D(0X00); 
*
1626:  CLRF   F95
1628:  CLRF   F8C
....................       OUTPUT_BIT(G_MATRANLED,G_MTB); 
162A:  BTFSC  05.6
162C:  BRA    1632
162E:  BCF    F8C.6
1630:  BRA    1634
1632:  BSF    F8C.6
1634:  BCF    F95.6
....................       OUTPUT_BIT(G_8LEDQUET,G_8B); 
1636:  BTFSC  05.4
1638:  BRA    163E
163A:  BCF    F8C.4
163C:  BRA    1640
163E:  BSF    F8C.4
1640:  BCF    F95.4
....................       OUTPUT_BIT(G_BUZERELAY,G_RBDCB);  
1642:  BTFSC  05.2
1644:  BRA    164A
1646:  BCF    F8C.2
1648:  BRA    164C
164A:  BSF    F8C.2
164C:  BCF    F95.2
....................       CHO_IC_74573_B_GOI_DU_LIEU; 
164E:  BCF    F95.0
1650:  BSF    F8C.0
1652:  RETURN 0
.................... } 
.................... //ham 401 
.................... //XXXXXXXXXXXXXXXXXXXXXXXXXXXXXXXXXXXXXXXXXXXX 
.................... //CHUONG TRINH CON XUAT 4 BYTE RA 4 LED 7 DOAN 
.................... //XXXXXXXXXXXXXXXXXXXXXXXXXXXXXXXXXXXXXXXXXXXX 
.................... VOID XUAT_4LED_7DOAN_4SO(UNSIGNED INT BL743,BL742,BL741,BL740) 
.................... {      
....................       XUAT_1BYTE(BL740);   XUAT_1BYTE(BL741); 
....................       XUAT_1BYTE(BL742);   XUAT_1BYTE(BL743); 
....................        
....................       MO_4_LED_7DOAN; 
....................       MO_IC_74573_A_THONG_DL(); 
....................         
....................       OUTPUT_LOW(RCK_4LED7DOAN);   OUTPUT_HIGH(RCK_4LED7DOAN);  
....................       CHOT_IC_74573_A_GOI_DU_LIEU; 
.................... } 
.................... //ham 404 
.................... VOID XUAT_4LED_7DOAN_3SO(UNSIGNED INT BL742,BL741,BL740) 
.................... {      
....................      XUAT_4LED_7DOAN_4SO(0XFF,BL742,BL741,BL740); 
.................... } 
.................... //ham 403 
.................... VOID XUAT_4LED_7DOAN_2SO(UNSIGNED INT BL741,BL740) 
.................... {      
....................      XUAT_4LED_7DOAN_4SO(0XFF,0XFF,BL741,BL740); 
.................... } 
.................... //ham 402 
.................... VOID XUAT_4LED_7DOAN_1SO(UNSIGNED INT BL740) 
.................... {      
....................      XUAT_4LED_7DOAN_4SO(0XFF,0XFF,0XFF,BL740); 
.................... } 
....................  
.................... //ham 405 
.................... //XXXXXXXXXXXXXXXXXXXXXXXXXXXXXXXXXXXXXXXXXXXXXXXXXXXXXXXXXXXXX 
.................... //CHUONG TRINH CON HIEN THI DU LIEU 16 BIT TREN 4 LED 7 DOAN 
.................... //XXXXXXXXXXXXXXXXXXXXXXXXXXXXXXXXXXXXXXXXXXXXXXXXXXXXXXXXXXXXX 
.................... UNSIGNED CHAR DONVI4,CHUC4,TRAM4,NGAN4; 
.................... VOID  XUAT_4LED_7DOAN_GIAIMA_XOA_SO0 (UNSIGNED INT16 TAM) 
.................... {          
....................       DONVI4 = MA7DOAN[TAM %10];          
....................       CHUC4  = MA7DOAN[TAM/10%10]; 
....................       TRAM4  = MA7DOAN[TAM/100%10];  
....................       NGAN4  = MA7DOAN[TAM/1000%10];        
....................       IF (NGAN4==0XC0) 
....................       { 
....................          NGAN4=0XFF; 
....................          IF (TRAM4==0XC0) 
....................          { 
....................             TRAM4=0XFF; 
....................             IF (CHUC4==0XC0)   CHUC4=0XFF; 
....................          } 
....................       } 
....................       XUAT_4LED_7DOAN_4SO(NGAN4,TRAM4,CHUC4,DONVI4);    
.................... } 
.................... UNSIGNED INT8 LCDDATA=0;  
.................... UNSIGNED INT8 LCDCONTROL=0; 
.................... UNSIGNED INT8 GLCDDATA=0; 
.................... UNSIGNED INT8 GLCDCONTROL=0;  
.................... //HAM 701 
.................... //XXXXXXXXXXXXXXXXXXXXXXXXXXXXXXXXXXXXXXXXXXXXXXXXXXXXXXXXXXXXX 
.................... //CHUONG TRINH CON XUAT DU LIEU 4 BYTE RA GLCD VA LCD 
.................... //XXXXXXXXXXXXXXXXXXXXXXXXXXXXXXXXXXXXXXXXXXXXXXXXXXXXXXXXXXXXX 
.................... VOID XUAT_GLCD_LCD() 
.................... {       
....................     XUAT_1BYTE(GLCDCONTROL);              
*
00DE:  MOVFF  10,453
00E2:  RCALL  0080
....................     XUAT_1BYTE(GLCDDATA); 
00E4:  MOVFF  0F,453
00E8:  RCALL  0080
....................     XUAT_1BYTE(LCDCONTROL);        
00EA:  MOVFF  0E,453
00EE:  RCALL  0080
....................     XUAT_1BYTE(LCDDATA);       
00F0:  MOVFF  0D,453
00F4:  RCALL  0080
....................        
....................     MO_GLCD_LCD; 
00F6:  BCF    04.2
....................     MO_IC_74573_A_THONG_DL();             
00F8:  BRA    00AE
....................     OUTPUT_HIGH(RCK_LCD20X4);      
00FA:  BCF    F95.3
00FC:  BSF    F8C.3
....................     OUTPUT_LOW(RCK_LCD20X4); 
00FE:  BCF    F95.3
0100:  BCF    F8C.3
....................     CHOT_IC_74573_A_GOI_DU_LIEU; 
0102:  BCF    F95.1
0104:  BCF    F8C.1
0106:  RETURN 0
.................... } 
.................... //HAM 702 
.................... VOID XUAT_LCD20X4(UNSIGNED INT8 LCD_SIGNAL,LCD_INS_HTHI) 
.................... {      
....................     LCDCONTROL = ~LCD_SIGNAL; 
0108:  MOVLB  4
010A:  MOVFF  451,0E
010E:  COMF   0E,F
....................     LCDDATA    = ~LCD_INS_HTHI;       
0110:  MOVFF  452,0D
0114:  COMF   0D,F
....................     XUAT_GLCD_LCD(); 
0116:  MOVLB  0
0118:  RCALL  00DE
011A:  RETURN 0
.................... } 
.................... //HAM 703 
.................... VOID XUAT_GLCD128X64(UNSIGNED INT8 GLCD_SIGNAL,GLCD_INS_HTHI) 
.................... {      
....................     GLCDCONTROL = ~GLCD_SIGNAL; 
*
0574:  MOVLB  4
0576:  MOVFF  451,10
057A:  COMF   10,F
....................     GLCDDATA    = ~GLCD_INS_HTHI;      
057C:  MOVFF  452,0F
0580:  COMF   0F,F
....................     XUAT_GLCD_LCD(); 
0582:  MOVLB  0
0584:  RCALL  00DE
0586:  RETURN 0
.................... } 
.................... //HAM 501 
.................... //XXXXXXXXXXXXXXXXXXXXXXXXXXXXXXXXXXXXXXXXXXXX 
.................... //CHUONG TRINH CON XUAT 2 BYTE RA DK 1 LED QUET SANG 
.................... //XXXXXXXXXXXXXXXXXXXXXXXXXXXXXXXXXXXXXXXXXXXX 
.................... VOID XUAT_8LED_7DOAN_QUET_1(UNSIGNED INT MA,SO_HTHI) 
.................... {      
....................       XUAT_1BYTE(~MA);   XUAT_1BYTE(~SO_HTHI); 
*
16A2:  MOVLB  4
16A4:  MOVFF  44C,44E
16A8:  COMF   x4E,F
16AA:  MOVFF  44E,453
16AE:  MOVLB  0
16B0:  CALL   0080
16B4:  MOVLB  4
16B6:  MOVFF  44D,44E
16BA:  COMF   x4E,F
16BC:  MOVFF  44E,453
16C0:  MOVLB  0
16C2:  CALL   0080
....................        
....................       MO_8_LED_QUET; 
16C6:  BCF    05.4
....................       MO_IC_74573_B_THONG_DL(); 
16C8:  RCALL  1626
....................        
....................       OUTPUT_HIGH(RCK_8LEDQUET); OUTPUT_LOW(RCK_8LEDQUET); 
16CA:  BCF    F95.5
16CC:  BSF    F8C.5
16CE:  BCF    F95.5
16D0:  BCF    F8C.5
....................       CHOT_IC_74573_B_GOI_DU_LIEU; 
16D2:  BCF    F95.0
16D4:  BCF    F8C.0
16D6:  GOTO   16E4 (RETURN)
.................... } 
.................... //HAM 502 
.................... //XXXXXXXXXXXXXXXXXXXXXXXXXXXXXXXXXXXXXXXXXXXX 
.................... //CHUONG TRINH CON XUAT 2 BYTE RA TAT 8 LED QUET 
.................... //XXXXXXXXXXXXXXXXXXXXXXXXXXXXXXXXXXXXXXXXXXXX 
.................... VOID XUAT_8LED_7DOAN_QUET_TAT_LED() 
.................... { 
....................    XUAT_8LED_7DOAN_QUET_1(0XFF,0XFF); 
16DA:  MOVLB  4
16DC:  SETF   x4C
16DE:  SETF   x4D
16E0:  MOVLB  0
16E2:  BRA    16A2
16E4:  GOTO   172C (RETURN)
.................... } 
.................... //HAM 503 
.................... //XXXXXXXXXXXXXXXXXXXXXXXXXXXXXXXXXXXXXXXXXXXX 
.................... //CHUONG TRINH CON HIEN THI LED THEO THU TU 
.................... //XXXXXXXXXXXXXXXXXXXXXXXXXXXXXXXXXXXXXXXXXXXX 
.................... CONST UNSIGNED CHAR TTLEDQUET[8]= {0x7F,0xBF,0xDF,0xEF,0xF7,0xFB,0xFD,0xFE}; 
.................... VOID XUAT_8LED_7DOAN_QUET_2(UNSIGNED INT THUTULED,SO_HTHI) 
.................... {          
....................       XUAT_1BYTE(~ (TTLEDQUET[THUTULED]));   XUAT_1BYTE(~SO_HTHI);      
*
1654:  CLRF   03
1656:  MOVLB  4
1658:  MOVF   x4D,W
165A:  MOVFF  FF2,44F
165E:  BCF    FF2.7
1660:  MOVLB  0
1662:  CALL   0024
1666:  MOVLB  4
1668:  BTFSC  x4F.7
166A:  BSF    FF2.7
166C:  MOVWF  01
166E:  MOVWF  x4F
1670:  COMF   x4F,F
1672:  MOVFF  44F,453
1676:  MOVLB  0
1678:  CALL   0080
167C:  MOVLB  4
167E:  MOVFF  44E,44F
1682:  COMF   x4F,F
1684:  MOVFF  44F,453
1688:  MOVLB  0
168A:  CALL   0080
....................       MO_8_LED_QUET; 
168E:  BCF    05.4
....................       MO_IC_74573_B_THONG_DL(); 
1690:  RCALL  1626
....................       OUTPUT_HIGH(RCK_8LEDQUET); OUTPUT_LOW(RCK_8LEDQUET); 
1692:  BCF    F95.5
1694:  BSF    F8C.5
1696:  BCF    F95.5
1698:  BCF    F8C.5
....................       CHOT_IC_74573_B_GOI_DU_LIEU; 
169A:  BCF    F95.0
169C:  BCF    F8C.0
169E:  GOTO   1720 (RETURN)
.................... } 
.................... //HAM 504 
.................... //XXXXXXXXXXXXXXXXXXXXXXXXXXXXXXXXXXXXXXXXXXXX 
.................... //CHUONG TRINH CON HIEN THI 8 SO TREN 8 LED QUET - CO KIEM TRA 
.................... //XXXXXXXXXXXXXXXXXXXXXXXXXXXXXXXXXXXXXXXXXXXX 
.................... UNSIGNED INT8 LED_7DQ[8]={0XFF,0XFF,0XFF,0XFF,0XFF,0XFF,0XFF,0XFF}; 
.................... UNSIGNED INT8 TT8LED=0; 
.................... VOID HIEN_THI_8LED_7DOAN_QUET() 
.................... {      
....................       FOR(TT8LED=0;TT8LED<8;TT8LED++) 
*
16E8:  CLRF   19
16EA:  MOVF   19,W
16EC:  SUBLW  07
16EE:  BNC   1730
....................          IF (LED_7DQ[TT8LED]!=0XFF) 
16F0:  CLRF   03
16F2:  MOVF   19,W
16F4:  ADDLW  11
16F6:  MOVWF  FE9
16F8:  MOVLW  00
16FA:  ADDWFC 03,W
16FC:  MOVWF  FEA
16FE:  INCFSZ FEF,W
1700:  BRA    1704
1702:  BRA    172C
....................          {            
....................             XUAT_8LED_7DOAN_QUET_2(TT8LED, LED_7DQ[TT8LED]); 
1704:  CLRF   03
1706:  MOVF   19,W
1708:  ADDLW  11
170A:  MOVWF  FE9
170C:  MOVLW  00
170E:  ADDWFC 03,W
1710:  MOVWF  FEA
1712:  MOVFF  FEF,44C
1716:  MOVFF  19,44D
171A:  MOVFF  44C,44E
171E:  BRA    1654
....................             DELAY_US(100); 
1720:  MOVLW  A6
1722:  MOVWF  00
1724:  DECFSZ 00,F
1726:  BRA    1724
1728:  NOP   
....................             XUAT_8LED_7DOAN_QUET_TAT_LED();            
172A:  BRA    16DA
172C:  INCF   19,F
172E:  BRA    16EA
....................             } 
1730:  GOTO   1B54 (RETURN)
.................... } 
.................... //HAM 505 
.................... //XXXXXXXXXXXXXXXXXXXXXXXXXXXXXXXXXXXXXXXXXXXX 
.................... //CHUONG TRINH CON HIEN THI 8 SO TREN 8 LED QUET - KHONG KIEM TRA 
.................... //XXXXXXXXXXXXXXXXXXXXXXXXXXXXXXXXXXXXXXXXXXXX 
.................... VOID HIEN_THI_8LED_7DOAN_QUET_ALL() 
.................... {      
....................       FOR(TT8LED=0;TT8LED<8;TT8LED++)          
....................          {            
....................             XUAT_8LED_7DOAN_QUET_2(TT8LED, LED_7DQ[TT8LED]); 
....................             DELAY_US(100); 
....................             XUAT_8LED_7DOAN_QUET_TAT_LED();            
....................             } 
.................... } 
....................  
.................... VOID DELAY_QUET_8LED(UNSIGNED INT16 DL) 
.................... {  
....................       UNSIGNED INT8 I; 
....................       FOR (I=0; I<DL;I++) 
....................       HIEN_THI_8LED_7DOAN_QUET_ALL(); 
.................... }  
....................  
.................... VOID GIAI_MA_GAN_CHO_8LED_QUET_16_XOA(UNSIGNED INT16 X) 
.................... {      
....................       LED_7DQ[0]= MA7DOAN [X %10];     
....................       LED_7DQ[1]= MA7DOAN [X/10%10]; 
....................       LED_7DQ[2]= MA7DOAN [X/100%10];     
....................       LED_7DQ[3]= MA7DOAN [X/1000%10]; 
....................       LED_7DQ[4]= MA7DOAN [X/10000%10]; 
....................       IF (LED_7DQ[4]==MASO0)  
....................       { 
....................             LED_7DQ[4]=0XFF; 
....................             IF (LED_7DQ[3]==MASO0)  
....................             { 
....................                LED_7DQ[3]=0XFF; 
....................                IF (LED_7DQ[2]==MASO0)  
....................                { 
....................                   LED_7DQ[2]=0XFF; 
....................                   IF (LED_7DQ[1]==MASO0)  
....................                   { 
....................                      LED_7DQ[1]=0XFF; 
....................                   } 
....................                } 
....................             } 
....................       } 
....................              
.................... } 
.................... //XXXXXXXXXXXXXXXXXXXXXXXXXXXXXXXXXXXXXXXXXXXX          
.................... VOID XUAT_2BYTE(UNSIGNED INT16 BYTE2XUAT) 
.................... { 
....................    INT8 SBB; 
....................    UNSIGNED INT16   XX;   //SHORT  BSERI; 
....................    #BIT BSERIX  = XX.15 
....................    XX = BYTE2XUAT; 
....................    FOR (SBB=0;SBB<16;SBB++) 
....................       {                                                  
....................          OUTPUT_BIT(SSDO,BSERIX);     
....................          OUTPUT_LOW(SSCK);          
....................          OUTPUT_HIGH(SSCK); 
....................          XX= XX<<1;          
....................      } 
.................... } 
.................... //XXXXXXXXXXXXXXXXXXXXXXXXXXXXXXXXXXXXXXXXXXXX 
.................... //CHUONG TRINH CON XUAT RA LED MA TRAN 
.................... //XXXXXXXXXXXXXXXXXXXXXXXXXXXXXXXXXXXXXXXXXXXX 
.................... VOID XUAT_MATRANLED(UNSIGNED INT16 MAHANG,UNSIGNED INT16 MACOT1, 
.................... UNSIGNED INT16 MACOT2,UNSIGNED INT16 MACOT3) 
.................... {       
....................       XUAT_2BYTE(MACOT3); 
....................       XUAT_2BYTE(MACOT2); 
....................       XUAT_2BYTE(MACOT1); 
....................       XUAT_2BYTE(MAHANG); 
....................        
....................       MO_LED_MATRAN; 
....................       MO_IC_74573_B_THONG_DL(); 
....................        
....................       OUTPUT_HIGH(RCK_MATRANLED); OUTPUT_LOW(RCK_MATRANLED);  
....................       CHOT_IC_74573_B_GOI_DU_LIEU; 
.................... } 
.................... //XXXXXXXXXXXXXXXXXXXXXXXXXXXXXXXXXXXXXXXXXXXX 
.................... //CHUONG TRINH CON XUAT RA LED MA TRAN 
.................... //XXXXXXXXXXXXXXXXXXXXXXXXXXXXXXXXXXXXXXXXXXXX 
.................... VOID TAT_MATRANLED() 
.................... {       
....................       XUAT_2BYTE(0); 
....................       XUAT_2BYTE(0); 
....................       XUAT_2BYTE(0); 
....................       XUAT_2BYTE(0);            
....................       OUTPUT_HIGH(RCK_MATRANLED);  
....................       OUTPUT_LOW(RCK_MATRANLED); 
.................... } 
.................... UNSIGNED  INT8 HIEU_CHINH_4BIT_CAO(UNSIGNED INT8 XZY) 
.................... { 
....................       INT1  BTG; 
....................       UNSIGNED INT8   BX;    
....................       #BIT BIT4  = BX.4 
....................       #BIT BIT5  = BX.5 
....................       #BIT BIT6  = BX.6 
....................       #BIT BIT7  = BX.7 
....................       BX=XZY; 
....................       BTG=BIT4;   BIT4=BIT7;  BIT7=BTG; 
....................       BTG=BIT5;   BIT5=BIT6;  BIT6=BTG;       
....................       RETURN(BX);   
.................... } 
.................... //HAM 601 
.................... //XXXXXXXXXXXXXXXXXXXXXXXXXXXXXXXXXXXXXXXXXXXXXXXXXXXX 
.................... //MODULE DIEU KHIEN RELAY,TRIAC, BUZZER, DONG CO, SIM 
.................... //XXXXXXXXXXXXXXXXXXXXXXXXXXXXXXXXXXXXXXXXXXXXXXXXXXXX 
.................... VOID XUAT_BUZZER_RELAY() 
.................... {      
....................    UNSIGNED INT8 RBDC1,RBDC2; 
....................       RBDC1=RBDC; RBDC2=RBDC>>8;       
....................       XUAT_1BYTE(RBDC2);       
....................       XUAT_1BYTE(RBDC1); 
....................       MO_RELAY_BUZZER_DC; 
....................       MO_IC_74573_B_THONG_DL(); 
....................        
....................       OUTPUT_HIGH(RCK_BUZERELAY);   OUTPUT_LOW(RCK_BUZERELAY); 
....................       CHOT_IC_74573_B_GOI_DU_LIEU; 
.................... } 
.................... //HAM 602 
.................... //XXXXXXXXXXXXXXXXXXXXXXXXXXXXXXXXXXXXXXXXXXXXXXXXXXXX 
.................... VOID BUZZER_ON() 
.................... {     
....................       BUZZER=1; 
....................       XUAT_BUZZER_RELAY();          
.................... } 
.................... //HAM 603 
.................... //XXXXXXXXXXXXXXXXXXXXXXXXXXXXXXXXXXXXXXXXXXXXXXXXXXXX 
.................... VOID BUZZER_OFF() 
.................... {      
....................       BUZZER=0; 
....................       XUAT_BUZZER_RELAY(); 
.................... } 
.................... //HAM 604 
.................... //XXXXXXXXXXXXXXXXXXXXXXXXXXXXXXXXXXXXXXXXXXXXXXXXXXXX 
.................... VOID RELAY_1_ON() 
.................... {     
....................       RELAY_1=1; 
....................       XUAT_BUZZER_RELAY();          
.................... } 
.................... //HAM 603 
.................... //XXXXXXXXXXXXXXXXXXXXXXXXXXXXXXXXXXXXXXXXXXXXXXXXXXXX 
.................... VOID RELAY_1_OFF() 
.................... {     
....................       RELAY_1=0; 
....................       XUAT_BUZZER_RELAY();          
.................... } 
.................... //HAM 604 
.................... //XXXXXXXXXXXXXXXXXXXXXXXXXXXXXXXXXXXXXXXXXXXXXXXXXXXX 
.................... VOID RELAY_2_ON() 
.................... {     
....................       RELAY_2=1; 
....................       XUAT_BUZZER_RELAY();          
.................... } 
.................... //HAM 607 
.................... //XXXXXXXXXXXXXXXXXXXXXXXXXXXXXXXXXXXXXXXXXXXXXXXXXXXX 
.................... VOID RELAY_2_OFF() 
.................... {     
....................       RELAY_2=0; 
....................       XUAT_BUZZER_RELAY();          
.................... } 
.................... //HAM 608 
.................... //XXXXXXXXXXXXXXXXXXXXXXXXXXXXXXXXXXXXXXXXXXXXXXXXXXXX 
.................... VOID RELAY_1_RELAY_2_ON() 
.................... {     
....................       RELAY_1=1;  RELAY_2=1; 
....................       XUAT_BUZZER_RELAY();          
.................... } 
.................... //HAM 609 
.................... //XXXXXXXXXXXXXXXXXXXXXXXXXXXXXXXXXXXXXXXXXXXXXXXXXXXX 
.................... VOID RELAY_1_RELAY_2_OFF() 
.................... {     
....................       RELAY_1=0;  RELAY_2=0; 
....................       XUAT_BUZZER_RELAY();          
.................... } 
.................... //HAM 610 
.................... //XXXXXXXXXXXXXXXXXXXXXXXXXXXXXXXXXXXXXXXXXXXXXXXXXXXX 
.................... VOID TRIAC_1_ON() 
.................... {     
....................       TRIAC_1=1; 
....................       XUAT_BUZZER_RELAY();          
.................... } 
.................... //HAM 611 
.................... //XXXXXXXXXXXXXXXXXXXXXXXXXXXXXXXXXXXXXXXXXXXXXXXXXXXX 
.................... VOID TRIAC_1_OFF() 
.................... {     
....................       TRIAC_1=0; 
....................       XUAT_BUZZER_RELAY();          
.................... } 
.................... //HAM 612 
.................... //XXXXXXXXXXXXXXXXXXXXXXXXXXXXXXXXXXXXXXXXXXXXXXXXXXXX 
.................... VOID TRIAC_2_ON() 
.................... {     
....................       TRIAC_2=1; 
....................       XUAT_BUZZER_RELAY();          
.................... } 
.................... //HAM 613 
.................... //XXXXXXXXXXXXXXXXXXXXXXXXXXXXXXXXXXXXXXXXXXXXXXXXXXXX 
.................... VOID TRIAC_2_OFF() 
.................... {     
....................       TRIAC_2=0; 
....................       XUAT_BUZZER_RELAY();          
.................... } 
.................... //XXXXXXXXXXXXXXXXXXXXXXXXXXXXXXXXXXXXXXXXXXXX 
....................  
....................  
....................  
.................... #include <tv_pickit2_shift_ds18b20.c> 
.................... #DEFINE     TOUCH_PIN PIN_A5 
.................... #INCLUDE    <TOUCH.c> 
.................... /////////////////////////////////////////////////////////////////////////// 
.................... ////                        Dallas Touch Driver                        //// 
.................... ////                                                                   //// 
.................... ////                                                                   //// 
.................... ////  data = touch_read_bit()     Reads one bit from a touch device    //// 
.................... ////                                                                   //// 
.................... ////  data = touch_read_BYTE()    Reads one byte from a touch device.  //// 
.................... ////                                                                   //// 
.................... ////  ok = touch_write_bit(data)  Writes one bit to a touch device     //// 
.................... ////                              and returns true if all went ok.     //// 
.................... ////                              A false indicates a collision with   //// 
.................... ////                              another device.                      //// 
.................... ////                                                                   //// 
.................... ////  ok = touch_write_byte(data) Writes one byte to a touch device    //// 
.................... ////                              and returns true if all went ok.     //// 
.................... ////                              A false indicates a collision with   //// 
.................... ////                              another device.                      //// 
.................... ////                                                                   //// 
.................... ////  present = touch_present()   Issues a reset and returns true      //// 
.................... ////                              if the touch device is there.        //// 
.................... ////                                                                   //// 
.................... ////  reset_pulse()               Issues a reset and waits for a       //// 
.................... ////                              present pulse.                       //// 
.................... ////                                                                   //// 
.................... /////////////////////////////////////////////////////////////////////////// 
.................... ////        (C) Copyright 1996,2010 Custom Computer Services           //// 
.................... //// This source code may only be used by licensed users of the CCS C  //// 
.................... //// compiler.  This source code may only be distributed to other      //// 
.................... //// licensed users of the CCS C compiler.  No other use, reproduction //// 
.................... //// or distribution is permitted without written permission.          //// 
.................... //// Derivative programs created using this software in object code    //// 
.................... //// form are not restricted in any way.                               //// 
.................... /////////////////////////////////////////////////////////////////////////// 
....................  
.................... #ifndef  TOUCH_C 
.................... #define  TOUCH_C 
....................  
.................... #ifndef TOUCH_PIN 
....................    #define TOUCH_PIN  PIN_B0 
.................... #endif 
....................  
.................... #define TOUCH_PIN_LOW()    output_drive(TOUCH_PIN); output_low(TOUCH_PIN) 
.................... #define TOUCH_PIN_HIGH()    output_drive(TOUCH_PIN); output_high(TOUCH_PIN) 
.................... #define TOUCH_PIN_FLOAT()  output_float(TOUCH_PIN) 
.................... #define TOUCH_PIN_READ()      input_state(TOUCH_PIN) 
....................  
.................... ///////////////////////////// 
.................... ////                     //// 
.................... //// Function Prototypes //// 
.................... ////                     //// 
.................... ///////////////////////////// 
....................  
.................... /* 
.................... int1 touch_read_bit() 
.................... This will read back a bit from the DS1993 
.................... PARAMS: none 
.................... RETURNS: A bit from the DS1993 
.................... */ 
.................... int1 touch_read_bit(); 
....................  
.................... /* 
.................... BYTE touch_read_byte() 
.................... This will read back a byte from the DS1993 
.................... PARAMS: none 
.................... RETURNS: A byte from the DS1993 
.................... */ 
.................... BYTE touch_read_byte(); 
....................  
.................... /* 
.................... BOOLEAN touch_write_bit(int1 data) 
.................... This will write a bit to the DS1993 
.................... PARAMS: The bit to write 
.................... RETURNS: True if completed successfully, false if otherwise 
.................... */ 
.................... BOOLEAN touch_write_bit(int1 data); 
....................  
.................... /* 
.................... BOOLEAN touch_write_byte(BYTE data) 
.................... This will write a byte to the DS1993 
.................... PARAMS: The byte to write 
.................... RETURNS: True if completed successfully, false if otherwise 
.................... */ 
.................... BOOLEAN touch_write_byte(BYTE data); 
....................  
.................... /* 
.................... BOOLEAN touch_present() 
.................... This will evaluate whether or not there is a touch present on the DS1993 
.................... PARAMS: none 
.................... RETURNS: True if a touch is present, false if otherwise 
.................... */ 
.................... BOOLEAN touch_present(); 
....................  
.................... /* 
.................... void reset_pulse() 
.................... This will send the DS1993 a reset pulse 
.................... PARAMS: none 
.................... RETURNS: none 
.................... */ 
.................... void reset_pulse(); 
....................  
.................... ////////////////////////////////// 
.................... ////                          //// 
.................... //// Function Implementations //// 
.................... ////                          //// 
.................... ////////////////////////////////// 
....................  
.................... /* 
.................... int1 touch_read_bit() 
.................... This will read back a bit from the DS1993 
.................... PARAMS: none 
.................... RETURNS: A bit from the DS1993 
.................... */ 
.................... int1 touch_read_bit() 
.................... { 
....................    int1 data; 
....................  
....................    TOUCH_PIN_LOW(); 
*
151C:  BCF    F92.5
151E:  BCF    F92.5
1520:  BCF    F89.5
....................    delay_us(14); 
1522:  MOVLW  16
1524:  MOVWF  00
1526:  DECFSZ 00,F
1528:  BRA    1526
152A:  BRA    152C
152C:  NOP   
....................    TOUCH_PIN_FLOAT(); 
152E:  BSF    F92.5
....................    delay_us(5); 
1530:  MOVLW  07
1532:  MOVWF  00
1534:  DECFSZ 00,F
1536:  BRA    1534
1538:  BRA    153A
153A:  NOP   
....................    data = TOUCH_PIN_READ(); 
153C:  MOVLB  4
153E:  BCF    x4E.0
1540:  BTFSC  F80.5
1542:  BSF    x4E.0
....................    delay_us(100); 
1544:  MOVLW  A6
1546:  MOVWF  00
1548:  DECFSZ 00,F
154A:  BRA    1548
154C:  NOP   
....................  
....................    return data; 
154E:  MOVLW  00
1550:  BTFSC  x4E.0
1552:  MOVLW  01
1554:  MOVWF  01
1556:  MOVLB  0
1558:  GOTO   156C (RETURN)
.................... } 
....................  
.................... /* 
.................... BYTE touch_read_byte() 
.................... This will read back a byte from the DS1993 
.................... PARAMS: none 
.................... RETURNS: A byte from the DS1993 
.................... */ 
.................... BYTE touch_read_byte() 
.................... { 
....................    BYTE i,data; 
....................  
....................    for(i=1; i <= 8; ++i) 
155C:  MOVLW  01
155E:  MOVLB  4
1560:  MOVWF  x4C
1562:  MOVF   x4C,W
1564:  SUBLW  08
1566:  BNC   157E
....................       shift_right(&data, 1, touch_read_bit()); 
1568:  MOVLB  0
156A:  BRA    151C
156C:  MOVF   01,F
156E:  BNZ   1574
1570:  BCF    FD8.0
1572:  BRA    1576
1574:  BSF    FD8.0
1576:  MOVLB  4
1578:  RRCF   x4D,F
157A:  INCF   x4C,F
157C:  BRA    1562
....................  
....................    return data; 
157E:  MOVFF  44D,01
1582:  MOVLB  0
1584:  RETURN 0
.................... } 
....................  
.................... /* 
.................... BOOLEAN touch_write_bit(int1 data) 
.................... This will write a bit to the DS1993 
.................... PARAMS: The bit to write 
.................... RETURNS: True if completed successfully, false if otherwise 
.................... */ 
.................... BOOLEAN touch_write_bit(int1 data) 
.................... { 
....................    TOUCH_PIN_LOW(); 
*
024A:  BCF    F92.5
024C:  BCF    F92.5
024E:  BCF    F89.5
....................    delay_us(10); 
0250:  MOVLW  10
0252:  MOVWF  00
0254:  DECFSZ 00,F
0256:  BRA    0254
0258:  NOP   
....................    if(data) 
025A:  MOVLB  4
025C:  MOVF   x4F,F
025E:  BZ    027C
....................    { 
....................       TOUCH_PIN_HIGH(); 
0260:  BCF    F92.5
0262:  BCF    F92.5
0264:  BSF    F89.5
....................       delay_us(10); 
0266:  MOVLW  10
0268:  MOVWF  00
026A:  DECFSZ 00,F
026C:  BRA    026A
026E:  NOP   
....................       if(!TOUCH_PIN_READ()) 
0270:  BTFSC  F80.5
0272:  BRA    027A
....................          return FALSE; 
0274:  MOVLW  00
0276:  MOVWF  01
0278:  BRA    02B8
....................    } 
027A:  BRA    0296
....................    else 
....................    { 
....................       TOUCH_PIN_LOW(); 
027C:  BCF    F92.5
027E:  BCF    F92.5
0280:  BCF    F89.5
....................       delay_us(10); 
0282:  MOVLW  10
0284:  MOVWF  00
0286:  DECFSZ 00,F
0288:  BRA    0286
028A:  NOP   
....................       if(TOUCH_PIN_READ()) 
028C:  BTFSS  F80.5
028E:  BRA    0296
....................          return FALSE; 
0290:  MOVLW  00
0292:  MOVWF  01
0294:  BRA    02B8
....................    } 
....................    delay_us(50); 
0296:  MOVLW  52
0298:  MOVWF  00
029A:  DECFSZ 00,F
029C:  BRA    029A
029E:  BRA    02A0
02A0:  NOP   
....................    TOUCH_PIN_HIGH(); 
02A2:  BCF    F92.5
02A4:  BCF    F92.5
02A6:  BSF    F89.5
....................    delay_us(50); 
02A8:  MOVLW  52
02AA:  MOVWF  00
02AC:  DECFSZ 00,F
02AE:  BRA    02AC
02B0:  BRA    02B2
02B2:  NOP   
....................    return TRUE; 
02B4:  MOVLW  01
02B6:  MOVWF  01
02B8:  MOVLB  0
02BA:  GOTO   02DC (RETURN)
.................... } 
....................  
.................... /* 
.................... BOOLEAN touch_write_byte(BYTE data) 
.................... This will write a byte to the DS1993 
.................... PARAMS: The byte to write 
.................... RETURNS: True if completed successfully, false if otherwise 
.................... */ 
.................... BOOLEAN touch_write_byte(BYTE data) 
.................... { 
....................    BYTE i; 
....................  
....................    for(i=1; i<=8; ++i) 
02BE:  MOVLW  01
02C0:  MOVLB  4
02C2:  MOVWF  x4D
02C4:  MOVF   x4D,W
02C6:  SUBLW  08
02C8:  BNC   02EC
....................       if(!touch_write_bit(shift_right(&data, 1, 0))) 
02CA:  BCF    FD8.0
02CC:  RRCF   x4C,F
02CE:  MOVLW  00
02D0:  BTFSC  FD8.0
02D2:  MOVLW  01
02D4:  MOVWF  x4E
02D6:  MOVWF  x4F
02D8:  MOVLB  0
02DA:  BRA    024A
02DC:  MOVF   01,F
02DE:  BNZ   02E6
....................          return FALSE; 
02E0:  MOVLW  00
02E2:  MOVWF  01
02E4:  BRA    02F2
02E6:  MOVLB  4
02E8:  INCF   x4D,F
02EA:  BRA    02C4
....................  
....................    return TRUE; 
02EC:  MOVLW  01
02EE:  MOVWF  01
02F0:  MOVLB  0
02F2:  RETURN 0
.................... } 
....................  
.................... /* 
.................... BOOLEAN touch_present() 
.................... This will evaluate whether or not there is a touch present on the DS1993 
.................... PARAMS: none 
.................... RETURNS: True if a touch is present, false if otherwise 
.................... */ 
.................... BOOLEAN touch_present() 
.................... { 
....................    BOOLEAN present; 
....................    TOUCH_PIN_LOW(); 
*
01F0:  BCF    F92.5
01F2:  BCF    F92.5
01F4:  BCF    F89.5
....................    delay_us(500); 
01F6:  MOVLW  02
01F8:  MOVLB  4
01FA:  MOVWF  x4D
01FC:  MOVLW  F9
01FE:  MOVWF  x4E
0200:  MOVLB  0
0202:  RCALL  01D0
0204:  MOVLB  4
0206:  DECFSZ x4D,F
0208:  BRA    01FC
....................    TOUCH_PIN_FLOAT(); 
020A:  BSF    F92.5
....................    delay_us(5); 
020C:  MOVLW  07
020E:  MOVWF  00
0210:  DECFSZ 00,F
0212:  BRA    0210
0214:  BRA    0216
0216:  NOP   
....................  
....................    if(!TOUCH_PIN_READ()) 
0218:  BTFSC  F80.5
021A:  BRA    0222
....................       return FALSE; 
021C:  MOVLW  00
021E:  MOVWF  01
0220:  BRA    0246
....................  
....................    delay_us(65); 
0222:  MOVLW  6B
0224:  MOVWF  00
0226:  DECFSZ 00,F
0228:  BRA    0226
022A:  BRA    022C
022C:  NOP   
....................    present = !TOUCH_PIN_READ(); 
022E:  BCF    x4C.0
0230:  BTFSS  F80.5
0232:  BSF    x4C.0
....................    delay_us(240); 
0234:  MOVLW  F0
0236:  MOVWF  x4E
0238:  MOVLB  0
023A:  RCALL  01D0
....................    return present; 
023C:  MOVLW  00
023E:  MOVLB  4
0240:  BTFSC  x4C.0
0242:  MOVLW  01
0244:  MOVWF  01
0246:  MOVLB  0
0248:  RETURN 0
.................... } 
....................  
.................... /* 
.................... void reset_pulse() 
.................... This will send the DS1993 a reset pulse 
.................... PARAMS: none 
.................... RETURNS: none 
.................... */ 
.................... void reset_pulse() 
.................... { 
....................    TOUCH_PIN_LOW(); 
....................    delay_us(500); 
....................    TOUCH_PIN_FLOAT(); 
....................    delay_us(5); 
....................    while(!touch_present()); 
.................... } 
....................  
....................  
.................... #endif 
....................  
.................... #DEFINE       SKIP_ROM              0xCC 
.................... #DEFINE       CONVERT_T             0x44 
.................... #DEFINE       READ_SCRATCHPAD       0xBE 
.................... #DEFINE       WRITE_SCRATCHPAD      0x4E 
.................... #DEFINE       COPY_SCRATCHPAD       0x48     
.................... UNSIGNED INT8     DS18AL, DS18AH, DS18A_TAM; 
.................... UNSIGNED INT16    DS18A; 
.................... unsigned int8 NGUYEN; 
.................... unsigned int8 TP; 
.................... VOID  KHOI_TAO_DS18B20() 
.................... {                          
....................       TOUCH_PRESENT(); 
*
02F4:  RCALL  01F0
....................       TOUCH_WRITE_BYTE(SKIP_ROM);       
02F6:  MOVLW  CC
02F8:  MOVLB  4
02FA:  MOVWF  x4C
02FC:  MOVLB  0
02FE:  RCALL  02BE
....................       TOUCH_WRITE_BYTE(WRITE_SCRATCHPAD);     
0300:  MOVLW  4E
0302:  MOVLB  4
0304:  MOVWF  x4C
0306:  MOVLB  0
0308:  RCALL  02BE
....................       TOUCH_WRITE_BYTE(0x0);       // ghi 2 byte rong 
030A:  MOVLB  4
030C:  CLRF   x4C
030E:  MOVLB  0
0310:  RCALL  02BE
....................       TOUCH_WRITE_BYTE(0x0);       // 
0312:  MOVLB  4
0314:  CLRF   x4C
0316:  MOVLB  0
0318:  RCALL  02BE
....................       TOUCH_WRITE_BYTE(0x1F);      //Cau hinh do phan giai 9 bit 
031A:  MOVLW  1F
031C:  MOVLB  4
031E:  MOVWF  x4C
0320:  MOVLB  0
0322:  RCALL  02BE
.................... //!      TOUCH_WRITE_BYTE(0x3F);      //Cau hinh do phan giai 10 bit 
.................... //!      TOUCH_WRITE_BYTE(0x7F);      //Cau hinh do phan giai 11 bit 
....................  
....................       TOUCH_PRESENT(); 
0324:  RCALL  01F0
....................       TOUCH_WRITE_BYTE(SKIP_ROM);       
0326:  MOVLW  CC
0328:  MOVLB  4
032A:  MOVWF  x4C
032C:  MOVLB  0
032E:  RCALL  02BE
....................       TOUCH_WRITE_BYTE(COPY_SCRATCHPAD);  
0330:  MOVLW  48
0332:  MOVLB  4
0334:  MOVWF  x4C
0336:  MOVLB  0
0338:  RCALL  02BE
033A:  GOTO   1A5A (RETURN)
.................... } 
.................... VOID  DOC_GIATRI_DS18B20() 
.................... {  
....................       TOUCH_WRITE_BYTE(SKIP_ROM); 
*
1586:  MOVLW  CC
1588:  MOVLB  4
158A:  MOVWF  x4C
158C:  MOVLB  0
158E:  CALL   02BE
....................       TOUCH_WRITE_BYTE (CONVERT_T);    
1592:  MOVLW  44
1594:  MOVLB  4
1596:  MOVWF  x4C
1598:  MOVLB  0
159A:  CALL   02BE
....................       TOUCH_PRESENT(); 
159E:  CALL   01F0
....................       TOUCH_WRITE_BYTE(SKIP_ROM); 
15A2:  MOVLW  CC
15A4:  MOVLB  4
15A6:  MOVWF  x4C
15A8:  MOVLB  0
15AA:  CALL   02BE
....................       TOUCH_WRITE_BYTE(READ_SCRATCHPAD);   
15AE:  MOVLW  BE
15B0:  MOVLB  4
15B2:  MOVWF  x4C
15B4:  MOVLB  0
15B6:  CALL   02BE
....................       DS18AL = TOUCH_READ_BYTE(); 
15BA:  RCALL  155C
15BC:  MOVFF  01,1A
....................       DS18AH = TOUCH_READ_BYTE();       
15C0:  RCALL  155C
15C2:  MOVFF  01,1B
....................       DS18A   =  MAKE16(DS18AH,DS18AL); 
15C6:  MOVFF  1B,1E
15CA:  MOVFF  1A,1D
....................        
....................       // MODIFIED 
....................       NGUYEN = DS18A >> 4; // LAY PHAN NGUYEN 
15CE:  RRCF   1E,W
15D0:  MOVWF  03
15D2:  RRCF   1D,W
15D4:  MOVWF  02
15D6:  RRCF   03,F
15D8:  RRCF   02,F
15DA:  RRCF   03,F
15DC:  RRCF   02,F
15DE:  RRCF   03,F
15E0:  RRCF   02,F
15E2:  MOVFF  02,1F
....................        
....................       TP = (DS18A&0X000F)*10/16; //LAY THAP PHAN 1 SO 
15E6:  MOVF   1D,W
15E8:  ANDLW  0F
15EA:  MOVLB  4
15EC:  MOVWF  x4C
15EE:  CLRF   x4D
15F0:  MOVFF  44D,46D
15F4:  MOVWF  x6C
15F6:  CLRF   x6F
15F8:  MOVLW  0A
15FA:  MOVWF  x6E
15FC:  MOVLB  0
15FE:  CALL   0604
1602:  MOVFF  02,44D
1606:  MOVLB  4
1608:  RRCF   02,W
160A:  MOVWF  03
160C:  RRCF   01,W
160E:  MOVWF  02
1610:  RRCF   03,F
1612:  RRCF   02,F
1614:  RRCF   03,F
1616:  RRCF   02,F
1618:  RRCF   03,F
161A:  RRCF   02,F
161C:  MOVFF  02,20
1620:  MOVLB  0
1622:  GOTO   1B26 (RETURN)
.................... //!      TP = (DS18A&0X000F)*100/16; //LAY THAP PHAN 2 SO 
.................... //!      TP = (DS18A&0X000F)*1000/16; //LAY THAP PHAN 3 SO 
....................        
.................... } 
....................              
....................  
....................  
.................... #include <TV_PICKIT2_SHIFT_DS13B07_I2C.c> 
.................... #INCLUDE <TV_PICKIT2_SHIFT_LCD.c> 
.................... UNSIGNED INT8 LCD_CONTROL;   
.................... #bit LCD_P = LCD_CONTROL.3 
.................... #bit LCD_RS = LCD_CONTROL.2 
.................... #bit LCD_RW = LCD_CONTROL.1 
.................... #bit LCD_E  = LCD_CONTROL.0 
....................  
.................... #DEFINE LCD_FUNCTION_SET       0X38 
.................... #DEFINE LCD_DISPLAY_CONTROL    0X0C 
.................... #DEFINE LCD_CLEAR_DISPLAY      0X01 
.................... #DEFINE LCD_ENTRY_MODE         0X06 
.................... #DEFINE LCD_SHIFT_LEFT         0X18 
.................... #DEFINE LCD_SHIFT_RIGHT        0X1C 
....................  
.................... #DEFINE LCD_ADDR_LINE1         0X80 
.................... #DEFINE LCD_ADDR_LINE2         0XC0 
.................... #DEFINE LCD_ADDR_LINE3         0X94 
.................... #DEFINE LCD_ADDR_LINE4         0XD4 
....................  
.................... VOID LCD_XUAT_8BIT(INT8 LCD_DATA_X) 
.................... { 
....................       LCD_E=1; XUAT_LCD20X4(LCD_CONTROL,LCD_DATA_X);      
*
011C:  BSF    21.0
011E:  MOVFF  21,451
0122:  MOVFF  450,452
0126:  RCALL  0108
....................       LCD_E=0; XUAT_LCD20X4(LCD_CONTROL,LCD_DATA_X);  
0128:  BCF    21.0
012A:  MOVFF  21,451
012E:  MOVFF  450,452
0132:  RCALL  0108
0134:  RETURN 0
.................... } 
.................... void LCD_COMMAND(INT8 LCD_DATA_X)    
....................   { 
....................       LCD_RS = 0; 
0136:  BCF    21.2
....................       LCD_XUAT_8BIT(LCD_DATA_X); 
0138:  MOVFF  44F,450
013C:  RCALL  011C
....................       DELAY_US(20); 
013E:  MOVLW  20
0140:  MOVWF  00
0142:  DECFSZ 00,F
0144:  BRA    0142
0146:  BRA    0148
0148:  NOP   
014A:  RETURN 0
....................   } 
.................... void LCD_DATA(INT8 LCD_DATA_X)        
....................   { 
....................       LCD_RS = 1;      
*
181C:  BSF    21.2
....................       LCD_XUAT_8BIT(LCD_DATA_X); 
181E:  MOVFF  44E,450
1822:  CALL   011C
....................       DELAY_US(20); 
1826:  MOVLW  20
1828:  MOVWF  00
182A:  DECFSZ 00,F
182C:  BRA    182A
182E:  BRA    1830
1830:  NOP   
1832:  RETURN 0
....................   } 
....................    
.................... VOID SETUP_LCD () 
.................... {                      
....................          LCD_E  = 0;  
*
0174:  BCF    21.0
....................          LCD_RW = 0;  
0176:  BCF    21.1
....................          LCD_RS = 1;  
0178:  BSF    21.2
....................          LCD_P =0; 
017A:  BCF    21.3
....................          LCD_COMMAND(LCD_FUNCTION_SET);          
017C:  MOVLW  38
017E:  MOVLB  4
0180:  MOVWF  x4F
0182:  MOVLB  0
0184:  RCALL  0136
....................          DELAY_US(40); 
0186:  MOVLW  42
0188:  MOVWF  00
018A:  DECFSZ 00,F
018C:  BRA    018A
018E:  NOP   
....................          LCD_COMMAND(LCD_DISPLAY_CONTROL);    
0190:  MOVLW  0C
0192:  MOVLB  4
0194:  MOVWF  x4F
0196:  MOVLB  0
0198:  RCALL  0136
....................          DELAY_US(40); 
019A:  MOVLW  42
019C:  MOVWF  00
019E:  DECFSZ 00,F
01A0:  BRA    019E
01A2:  NOP   
....................          LCD_COMMAND(LCD_CLEAR_DISPLAY);       
01A4:  MOVLW  01
01A6:  MOVLB  4
01A8:  MOVWF  x4F
01AA:  MOVLB  0
01AC:  RCALL  0136
....................          DELAY_MS(2); 
01AE:  MOVLW  02
01B0:  MOVLB  4
01B2:  MOVWF  x4D
01B4:  MOVLB  0
01B6:  RCALL  014C
....................          LCD_COMMAND(LCD_ENTRY_MODE);        
01B8:  MOVLW  06
01BA:  MOVLB  4
01BC:  MOVWF  x4F
01BE:  MOVLB  0
01C0:  RCALL  0136
....................          DELAY_US(40);                 
01C2:  MOVLW  42
01C4:  MOVWF  00
01C6:  DECFSZ 00,F
01C8:  BRA    01C6
01CA:  NOP   
01CC:  GOTO   1A56 (RETURN)
.................... } 
....................  
.................... CONST UNSIGNED CHAR LCD_SO_X[10+1+1+1][6] ={ 
....................                   0,1,2,5,3,4,               // SO 0 
....................                   1,2,32,3,7,3,              // SO 1 
....................                   6,6,2,5,3,3,               // SO 2 
....................                   6,6,2,3,3,4,               // SO 3 
....................                   7,3,7,32,32,7,             // SO 4 
....................                   7,6,6,3,3,4,               // SO 5 
....................                   0,6,6,5,3,4,               // SO 6 
....................                   1,1,7,32,32,7,             // SO 7 
....................                   0,6,2,5,3,4,               // SO 8 
....................                   0,6,2,3,3,4,               // SO 9 
....................                   32,32,32,32,32,32,         // KHOANG TRANG 0x20 tai vi tri 10 
....................                   0,6,2,5,32,32,              // CHU "P" tai vi tri 11 
....................                   32,32,32,32,7,32            // DAU CHAM tai vi tri 12 
....................                   }; 
....................                    
....................                    
.................... CONST UNSIGNED CHAR LCD_MA_8DOAN[] = { 
....................    0x07,0x0F,0x1F,0x1F,0x1F,0x1F,0x1F,0x1F,  //DOAN F - 0 
....................    0x1F,0x1F,0x1F,0X00,0X00,0X00,0X00,0X00,  //DOAN A - 1 
....................    0x1C,0x1E,0x1F,0x1F,0x1F,0x1F,0x1F,0x1F,  //DOAN B - 2 
....................    0X00,0X00,0X00,0X00,0X00,0x1F,0x1F,0x1F,  //DOAN D - 3 
....................    0x1F,0x1F,0x1F,0x1F,0x1F,0x1F,0x1E,0x1C,  //DOAN C - 4 
....................    0x1F,0x1F,0x1F,0x1F,0x1F,0x1F,0x0F,0x07,  //DOAN E - 5 
....................    0x1F,0x1F,0x1F,0X00,0X00,0X00,0x1F,0x1F,  //DOAN G+D-6  
....................    0x1F,0x1F,0x1F,0x1F,0x1F,0x1F,0x1F,0x1F}; //DOAN I  -7 
....................     
.................... VOID LCD_GOTO_XY(SIGNED INT8 X, SIGNED INT8 Y) 
.................... {  
....................    CONST UNSIGNED INT8 LCD_VITRI[]={0x80,0xC0,0x94,0xD4}; 
....................    LCD_COMMAND(LCD_VITRI[X]+Y); 
*
17F6:  CLRF   03
17F8:  MOVLB  4
17FA:  MOVF   x4C,W
17FC:  MOVFF  FF2,44E
1800:  BCF    FF2.7
1802:  MOVLB  0
1804:  CALL   003C
1808:  MOVLB  4
180A:  BTFSC  x4E.7
180C:  BSF    FF2.7
180E:  ADDWF  x4D,W
1810:  MOVWF  x4E
1812:  MOVWF  x4F
1814:  MOVLB  0
1816:  CALL   0136
181A:  RETURN 0
.................... } 
....................  
.................... VOID XXX() 
.................... {  
....................    SIGNED INT8 X; 
....................    X= LCD_SO_X[0][0]; 
....................    X= LCD_MA_8DOAN[0]; 
.................... } 
....................  
.................... #define   GIAY_HTAI      0X55 
.................... #define   PHUT_HTAI      0X32 
.................... #define   GIO_HTAI       0X16 
.................... #define   THU_HTAI       2 
.................... #define   NGAY_HTAI      0X10 
.................... #define   THANG_HTAI     0X08 
.................... #define   NAM_HTAI       0X20       
.................... #define   MA_DS          0X90 
....................  
.................... #define  ADDR_WR_13B07   0xD0 
.................... #define  ADDR_RD_13B07   0xD1 
.................... #define  ADDR_MEM        0x00 
....................  
.................... UNSIGNED  CHAR    NAM_DS13,THANG_DS13,NGAY_DS13,THU_DS13,GIO_DS13, 
....................                   PHUT_DS13,GIAY_DS13,MA_DS13,CONTROL_DS13,GIAYTAM; 
....................                                 
.................... void THIET_LAP_THOI_GIAN_HIEN_TAI() 
.................... {     GIAY_DS13   =   GIAY_HTAI;       PHUT_DS13  =    PHUT_HTAI;    
*
04BE:  MOVLW  55
04C0:  MOVWF  28
04C2:  MOVLW  32
04C4:  MOVWF  27
....................       GIO_DS13    =   GIO_HTAI;        THU_DS13   =    THU_HTAI; 
04C6:  MOVLW  16
04C8:  MOVWF  26
04CA:  MOVLW  02
04CC:  MOVWF  25
....................       NGAY_DS13   =   NGAY_HTAI;       THANG_DS13 =    THANG_HTAI;    
04CE:  MOVLW  10
04D0:  MOVWF  24
04D2:  MOVLW  08
04D4:  MOVWF  23
....................       NAM_DS13    =   NAM_HTAI;    
04D6:  MOVLW  20
04D8:  MOVWF  22
....................       CONTROL_DS13 = 0X90;             MA_DS13      =   MA_DS; 
04DA:  MOVLW  90
04DC:  MOVWF  2A
04DE:  MOVWF  29
04E0:  GOTO   1A6A (RETURN)
.................... } 
....................   
.................... void NAP_THOI_GIAN_HTAI_VAO_DS13B07() 
.................... {     I2C_START();          
04E4:  BSF    F93.0
04E6:  MOVLW  05
04E8:  MOVWF  00
04EA:  DECFSZ 00,F
04EC:  BRA    04EA
04EE:  BSF    F93.1
04F0:  MOVLW  06
04F2:  MOVWF  00
04F4:  DECFSZ 00,F
04F6:  BRA    04F4
04F8:  BCF    F8A.0
04FA:  BCF    F93.0
04FC:  MOVLW  05
04FE:  MOVWF  00
0500:  DECFSZ 00,F
0502:  BRA    0500
0504:  BCF    F8A.1
0506:  BCF    F93.1
....................       I2C_WRITE(ADDR_WR_13B07);     
0508:  MOVLW  D0
050A:  MOVLB  4
050C:  MOVWF  x4C
050E:  MOVLB  0
0510:  RCALL  033E
....................       I2C_WRITE(0X00); 
0512:  MOVLB  4
0514:  CLRF   x4C
0516:  MOVLB  0
0518:  RCALL  033E
....................       I2C_WRITE(GIAY_DS13);        I2C_WRITE(PHUT_DS13);       
051A:  MOVFF  28,44C
051E:  RCALL  033E
0520:  MOVFF  27,44C
0524:  RCALL  033E
....................       I2C_WRITE(GIO_DS13);         I2C_WRITE(THU_DS13);       
0526:  MOVFF  26,44C
052A:  RCALL  033E
052C:  MOVFF  25,44C
0530:  RCALL  033E
....................       I2C_WRITE(NGAY_DS13);        I2C_WRITE(THANG_DS13);             
0532:  MOVFF  24,44C
0536:  RCALL  033E
0538:  MOVFF  23,44C
053C:  RCALL  033E
....................       I2C_WRITE(NAM_DS13);         I2C_WRITE(CONTROL_DS13);    
053E:  MOVFF  22,44C
0542:  RCALL  033E
0544:  MOVFF  2A,44C
0548:  RCALL  033E
....................       I2C_WRITE(MA_DS13); 
054A:  MOVFF  29,44C
054E:  RCALL  033E
....................       I2C_STOP(); 
0550:  BCF    F93.0
0552:  NOP   
0554:  BSF    F93.1
0556:  BTFSS  F81.1
0558:  BRA    0556
055A:  MOVLW  05
055C:  MOVWF  00
055E:  DECFSZ 00,F
0560:  BRA    055E
0562:  BRA    0564
0564:  NOP   
0566:  BSF    F93.0
0568:  MOVLW  05
056A:  MOVWF  00
056C:  DECFSZ 00,F
056E:  BRA    056C
0570:  GOTO   1A6E (RETURN)
.................... } 
....................      
.................... void DOC_THOI_GIAN_TU_REALTIME() 
.................... {    
....................       I2C_START(); 
*
03DC:  BSF    F93.0
03DE:  MOVLW  05
03E0:  MOVWF  00
03E2:  DECFSZ 00,F
03E4:  BRA    03E2
03E6:  BSF    F93.1
03E8:  MOVLW  06
03EA:  MOVWF  00
03EC:  DECFSZ 00,F
03EE:  BRA    03EC
03F0:  BCF    F8A.0
03F2:  BCF    F93.0
03F4:  MOVLW  05
03F6:  MOVWF  00
03F8:  DECFSZ 00,F
03FA:  BRA    03F8
03FC:  BCF    F8A.1
03FE:  BCF    F93.1
....................       I2C_WRITE(ADDR_WR_13B07); 
0400:  MOVLW  D0
0402:  MOVLB  4
0404:  MOVWF  x4C
0406:  MOVLB  0
0408:  RCALL  033E
....................       I2C_WRITE(ADDR_MEM);                      
040A:  MOVLB  4
040C:  CLRF   x4C
040E:  MOVLB  0
0410:  RCALL  033E
....................       I2C_START();                 
0412:  BSF    F93.0
0414:  MOVLW  05
0416:  MOVWF  00
0418:  DECFSZ 00,F
041A:  BRA    0418
041C:  BSF    F93.1
041E:  MOVLW  06
0420:  MOVWF  00
0422:  DECFSZ 00,F
0424:  BRA    0422
0426:  BTFSS  F81.1
0428:  BRA    0426
042A:  BCF    F8A.0
042C:  BCF    F93.0
042E:  MOVLW  05
0430:  MOVWF  00
0432:  DECFSZ 00,F
0434:  BRA    0432
0436:  BCF    F8A.1
0438:  BCF    F93.1
....................                  
....................       I2C_WRITE(ADDR_RD_13B07); 
043A:  MOVLW  D1
043C:  MOVLB  4
043E:  MOVWF  x4C
0440:  MOVLB  0
0442:  RCALL  033E
....................       GIAY_DS13      =  I2C_READ();               
0444:  MOVLW  01
0446:  MOVWF  00
0448:  RCALL  0390
044A:  MOVFF  01,28
....................       PHUT_DS13      =  I2C_READ();              
044E:  MOVLW  01
0450:  MOVWF  00
0452:  RCALL  0390
0454:  MOVFF  01,27
....................       GIO_DS13       =  I2C_READ();              
0458:  MOVLW  01
045A:  MOVWF  00
045C:  RCALL  0390
045E:  MOVFF  01,26
....................       THU_DS13       =  I2C_READ();  
0462:  MOVLW  01
0464:  MOVWF  00
0466:  RCALL  0390
0468:  MOVFF  01,25
....................       NGAY_DS13      =  I2C_READ();  
046C:  MOVLW  01
046E:  MOVWF  00
0470:  RCALL  0390
0472:  MOVFF  01,24
....................       THANG_DS13     =  I2C_READ();  
0476:  MOVLW  01
0478:  MOVWF  00
047A:  RCALL  0390
047C:  MOVFF  01,23
....................       NAM_DS13       =  I2C_READ();  
0480:  MOVLW  01
0482:  MOVWF  00
0484:  RCALL  0390
0486:  MOVFF  01,22
....................       CONTROL_DS13   =  I2C_READ();           
048A:  MOVLW  01
048C:  MOVWF  00
048E:  RCALL  0390
0490:  MOVFF  01,2A
....................       MA_DS13        =  I2C_READ(0);     //NOT ACK 
0494:  CLRF   00
0496:  RCALL  0390
0498:  MOVFF  01,29
....................       I2C_STOP(); 
049C:  BCF    F93.0
049E:  NOP   
04A0:  BSF    F93.1
04A2:  BTFSS  F81.1
04A4:  BRA    04A2
04A6:  MOVLW  05
04A8:  MOVWF  00
04AA:  DECFSZ 00,F
04AC:  BRA    04AA
04AE:  BRA    04B0
04B0:  NOP   
04B2:  BSF    F93.0
04B4:  MOVLW  05
04B6:  MOVWF  00
04B8:  DECFSZ 00,F
04BA:  BRA    04B8
04BC:  RETURN 0
.................... }     
....................  
....................     
.................... void DOC_GIAY_TU_REALTIME() 
.................... {    
....................       I2C_START(); 
....................       I2C_WRITE(ADDR_WR_13B07); 
....................       I2C_WRITE(ADDR_MEM);                      
....................       I2C_START();                 
....................                  
....................       I2C_WRITE(ADDR_RD_13B07); 
....................       GIAY_DS13      =  I2C_READ(0);               
....................       I2C_STOP(); 
.................... }   
....................          
....................   
.................... void HIEN_THI_THOI_GIAN_DS13B07 ( ) 
.................... {     LCD_COMMAND (0x8C);    
....................       LCD_DATA(GIO_DS13/16  +0X30);    LCD_DATA(GIO_DS13%16  +0X30); 
....................       LCD_DATA(' '); 
....................       LCD_DATA(PHUT_DS13/16 +0X30);    LCD_DATA(PHUT_DS13%16 +0X30); 
....................       LCD_DATA(' '); 
....................       LCD_DATA(GIAY_DS13/16 +0X30);    LCD_DATA(GIAY_DS13%16 +0X30); 
....................       LCD_COMMAND (0xCC);   
....................       LCD_DATA(NGAY_DS13/16 +0X30);    LCD_DATA(NGAY_DS13%16 +0X30); 
....................       LCD_DATA(' '); 
....................       LCD_DATA(THANG_DS13/16 +0X30);   LCD_DATA(THANG_DS13%16 +0X30); 
....................       LCD_DATA(' '); 
....................       LCD_DATA(NAM_DS13/16 +0X30);     LCD_DATA(NAM_DS13%16 +0X30);  
.................... } 
....................  
....................  
....................  
.................... #include <tv_pickit2_shift_glcd128x64.c> 
.................... UNSIGNED INT8 GLCD_CONTROL;   
.................... #bit GLCD_P    = GLCD_CONTROL.5 
.................... #bit GLCD_RS   = GLCD_CONTROL.4 
.................... #bit GLCD_RW   = GLCD_CONTROL.3 
.................... #bit GLCD_E    = GLCD_CONTROL.2 
.................... #bit GLCD_CS2  = GLCD_CONTROL.1 
.................... #bit GLCD_CS1  = GLCD_CONTROL.0 
....................  
.................... //#DEFINE GLCD_FUNCTION_SET       0X30 
.................... #DEFINE GLCD_TEXT_MODE          0x30 
.................... #DEFINE GLCD_GRAPHIC_MODE       0x36  
....................  
.................... #DEFINE GLCD_CLEAR_DISPLAY      0X01 
.................... #DEFINE GLCD_CURSOR_DISPLAY     0X0C 
.................... #DEFINE GLCD_ENTRY_MODE         0X06 
....................  
....................  
.................... #DEFINE GLCD_ADDR_LINE1         0X80 
.................... #DEFINE GLCD_ADDR_LINE2         0X90 
.................... #DEFINE GLCD_ADDR_LINE3         0X88 
.................... #DEFINE GLCD_ADDR_LINE4         0X98 
....................  
.................... VOID GLCD_XUAT_8BIT(INT8 GLCD_DATA1) 
.................... { 
....................       GLCD_E=1; XUAT_GLCD128X64(GLCD_CONTROL,GLCD_DATA1);      
*
0588:  BSF    2C.2
058A:  MOVFF  2C,451
058E:  MOVFF  450,452
0592:  RCALL  0574
....................       GLCD_E=0; XUAT_GLCD128X64(GLCD_CONTROL,GLCD_DATA1);  
0594:  BCF    2C.2
0596:  MOVFF  2C,451
059A:  MOVFF  450,452
059E:  RCALL  0574
05A0:  RETURN 0
.................... } 
....................  
.................... void GLCD_COMMAND(INT8 GLCD_DATA2)    
....................   { 
....................       GLCD_RS = 0; 
05A2:  BCF    2C.4
....................       GLCD_XUAT_8BIT(GLCD_DATA2);       
05A4:  MOVFF  44D,450
05A8:  RCALL  0588
05AA:  RETURN 0
....................   } 
.................... void GLCD_DATA(INT8 GLCD_DATA3)        
....................   { 
....................       GLCD_RS = 1;      
*
0C04:  BSF    2C.4
....................       GLCD_XUAT_8BIT(GLCD_DATA3);      
0C06:  MOVFF  44F,450
0C0A:  RCALL  0588
0C0C:  RETURN 0
....................   } 
....................    
....................   VOID GLCD_DATA_X(INT8 GLCD_DATA3) 
.................... { 
....................       GLCD_RS = 1;      
....................       GLCD_XUAT_8BIT(0XA1); 
....................       GLCD_XUAT_8BIT(0X40);   
.................... } 
.................... VOID SETUP_GLCD (INT8 GLCD_FUNCTION_SET_MODE) 
.................... {                      
....................          GLCD_CS1 = 1; 
*
05AC:  BSF    2C.0
....................          GLCD_CS2 = 1; 
05AE:  BSF    2C.1
....................          GLCD_E  = 0; 
05B0:  BCF    2C.2
....................          GLCD_RW = 0;           
05B2:  BCF    2C.3
....................          GLCD_P =0;          
05B4:  BCF    2C.5
....................          GLCD_COMMAND(GLCD_FUNCTION_SET_MODE);          
05B6:  MOVFF  44C,44D
05BA:  RCALL  05A2
....................          DELAY_US(10); 
05BC:  MOVLW  10
05BE:  MOVWF  00
05C0:  DECFSZ 00,F
05C2:  BRA    05C0
05C4:  NOP   
....................          GLCD_COMMAND(GLCD_CURSOR_DISPLAY);        
05C6:  MOVLW  0C
05C8:  MOVLB  4
05CA:  MOVWF  x4D
05CC:  MOVLB  0
05CE:  RCALL  05A2
....................          DELAY_US(10);     
05D0:  MOVLW  10
05D2:  MOVWF  00
05D4:  DECFSZ 00,F
05D6:  BRA    05D4
05D8:  NOP   
....................          GLCD_COMMAND(GLCD_CLEAR_DISPLAY);       
05DA:  MOVLW  01
05DC:  MOVLB  4
05DE:  MOVWF  x4D
05E0:  MOVLB  0
05E2:  RCALL  05A2
....................          DELAY_MS(2); 
05E4:  MOVLW  02
05E6:  MOVLB  4
05E8:  MOVWF  x4D
05EA:  MOVLB  0
05EC:  RCALL  014C
....................          GLCD_COMMAND(GLCD_ENTRY_MODE);       
05EE:  MOVLW  06
05F0:  MOVLB  4
05F2:  MOVWF  x4D
05F4:  MOVLB  0
05F6:  RCALL  05A2
....................          DELAY_US(10);                           
05F8:  MOVLW  10
05FA:  MOVWF  00
05FC:  DECFSZ 00,F
05FE:  BRA    05FC
0600:  NOP   
0602:  RETURN 0
.................... } 
....................  
.................... #DEFINE GLCD_NGANG     16 //256 PIXEL 
.................... #DEFINE GLCD_DOC       32 //32 HANG 
.................... #DEFINE GLCD_WIDTH     128 //DANH CHO THU VIEN GRAPHIC.C 
.................... int8 DOC, NGANG; 
....................  
.................... typedef union  
.................... {  
....................   unsigned int16 word;  
....................   unsigned int8 nbyte[2];  
.................... } Dots;  
....................  
.................... typedef struct  
.................... {  
....................   int1 refresh;  
....................   Dots PIXEL[GLCD_DOC][GLCD_NGANG];     
....................   } GD_RAM;     
....................  
.................... GD_RAM gdram_vdk;  
....................  
....................  
.................... void GLCD_MAU_NEN(int1 GLCD_COLOR)  
.................... {   
....................   int16 d;  
....................   if(GLCD_COLOR)  d=0xffff; else d=0; 
*
0626:  MOVLB  4
0628:  MOVF   x4C,F
062A:  BZ    0632
062C:  SETF   x4E
062E:  SETF   x4D
0630:  BRA    0636
0632:  CLRF   x4E
0634:  CLRF   x4D
....................   for (DOC=0; DOC < GLCD_DOC; DOC++)  
0636:  CLRF   2D
0638:  MOVF   2D,W
063A:  SUBLW  1F
063C:  BNC   069A
....................   {  
....................     for (NGANG=0; NGANG < GLCD_NGANG; NGANG++)  
063E:  CLRF   2E
0640:  MOVF   2E,W
0642:  SUBLW  0F
0644:  BNC   0696
....................     {  
....................       gdram_vdk.PIXEL[DOC][NGANG].word = d;  
0646:  CLRF   x6D
0648:  MOVFF  2D,46C
064C:  CLRF   x6F
064E:  MOVLW  20
0650:  MOVWF  x6E
0652:  MOVLB  0
0654:  RCALL  0604
0656:  MOVFF  02,03
065A:  MOVF   01,W
065C:  ADDLW  01
065E:  MOVLB  4
0660:  MOVWF  x4F
0662:  MOVLW  00
0664:  ADDWFC 02,W
0666:  MOVWF  x50
0668:  CLRF   03
066A:  MOVFF  2E,02
066E:  BCF    FD8.0
0670:  RLCF   02,F
0672:  RLCF   03,F
0674:  MOVF   02,W
0676:  ADDWF  x4F,F
0678:  MOVF   03,W
067A:  ADDWFC x50,F
067C:  MOVLW  2F
067E:  ADDWF  x4F,W
0680:  MOVWF  FE9
0682:  MOVLW  00
0684:  ADDWFC x50,W
0686:  MOVWF  FEA
0688:  MOVFF  44E,FEC
068C:  MOVF   FED,F
068E:  MOVFF  44D,FEF
0692:  INCF   2E,F
0694:  BRA    0640
....................     }  
0696:  INCF   2D,F
0698:  BRA    0638
....................   }  
....................   gdram_vdk.refresh = TRUE;  
069A:  BSF    2F.0
069C:  MOVLB  0
069E:  GOTO   1A98 (RETURN)
.................... }  
....................  
.................... void glcd_pixel(int8 x, int8 y, int1 color)  
.................... {  
....................   int8  b;  
....................   if(y>31){x += 128; y-= 32;};  
06A2:  MOVLB  4
06A4:  MOVF   x69,W
06A6:  SUBLW  1F
06A8:  BC    06B2
06AA:  MOVLW  80
06AC:  ADDWF  x68,F
06AE:  MOVLW  20
06B0:  SUBWF  x69,F
....................   DOC = y;  
06B2:  MOVFF  469,2D
....................   NGANG = x/16;  
06B6:  SWAPF  x68,W
06B8:  MOVWF  2E
06BA:  MOVLW  0F
06BC:  ANDWF  2E,F
....................   b = 15 - (x % 16);  
06BE:  MOVF   x68,W
06C0:  ANDLW  0F
06C2:  XORLW  FF
06C4:  ADDLW  10
06C6:  MOVWF  x6B
....................    
....................   if (color == 1) bit_set (gdram_vdk.PIXEL[DOC][NGANG].word, b);  
06C8:  DECFSZ x6A,W
06CA:  BRA    0736
06CC:  CLRF   x6D
06CE:  MOVFF  2D,46C
06D2:  CLRF   x6F
06D4:  MOVLW  20
06D6:  MOVWF  x6E
06D8:  MOVLB  0
06DA:  RCALL  0604
06DC:  MOVFF  02,03
06E0:  MOVF   01,W
06E2:  ADDLW  01
06E4:  MOVLB  4
06E6:  MOVWF  x6C
06E8:  MOVLW  00
06EA:  ADDWFC 02,W
06EC:  MOVWF  x6D
06EE:  CLRF   03
06F0:  MOVFF  2E,02
06F4:  BCF    FD8.0
06F6:  RLCF   02,F
06F8:  RLCF   03,F
06FA:  MOVF   02,W
06FC:  ADDWF  x6C,F
06FE:  MOVF   03,W
0700:  ADDWFC x6D,F
0702:  MOVLW  2F
0704:  ADDWF  x6C,W
0706:  MOVWF  01
0708:  MOVLW  00
070A:  ADDWFC x6D,W
070C:  MOVWF  03
070E:  MOVFF  01,FE9
0712:  MOVWF  FEA
0714:  CLRF   03
0716:  MOVLW  01
0718:  MOVWF  02
071A:  MOVF   x6B,W
071C:  MOVWF  00
071E:  BZ    072A
0720:  BCF    FD8.0
0722:  RLCF   02,F
0724:  RLCF   03,F
0726:  DECFSZ 00,F
0728:  BRA    0720
072A:  MOVF   02,W
072C:  IORWF  FEF,F
072E:  MOVF   03,W
0730:  IORWF  FEC,W
0732:  MOVWF  FEF
0734:  BRA    07A8
....................   else bit_clear (gdram_vdk.PIXEL[DOC][NGANG].word, b);  
0736:  CLRF   x6D
0738:  MOVFF  2D,46C
073C:  CLRF   x6F
073E:  MOVLW  20
0740:  MOVWF  x6E
0742:  MOVLB  0
0744:  RCALL  0604
0746:  MOVFF  02,03
074A:  MOVF   01,W
074C:  ADDLW  01
074E:  MOVLB  4
0750:  MOVWF  x6C
0752:  MOVLW  00
0754:  ADDWFC 02,W
0756:  MOVWF  x6D
0758:  CLRF   03
075A:  MOVFF  2E,02
075E:  BCF    FD8.0
0760:  RLCF   02,F
0762:  RLCF   03,F
0764:  MOVF   02,W
0766:  ADDWF  x6C,F
0768:  MOVF   03,W
076A:  ADDWFC x6D,F
076C:  MOVLW  2F
076E:  ADDWF  x6C,W
0770:  MOVWF  01
0772:  MOVLW  00
0774:  ADDWFC x6D,W
0776:  MOVWF  03
0778:  MOVFF  01,FE9
077C:  MOVWF  FEA
077E:  CLRF   03
0780:  MOVLW  01
0782:  MOVWF  02
0784:  MOVF   x6B,W
0786:  MOVWF  00
0788:  BZ    0794
078A:  BCF    FD8.0
078C:  RLCF   02,F
078E:  RLCF   03,F
0790:  DECFSZ 00,F
0792:  BRA    078A
0794:  MOVF   02,W
0796:  XORLW  FF
0798:  MOVWF  00
079A:  MOVLW  FF
079C:  XORWF  03,F
079E:  MOVF   00,W
07A0:  ANDWF  FEF,F
07A2:  MOVF   03,W
07A4:  ANDWF  FEC,W
07A6:  MOVWF  FEF
....................   gdram_vdk.refresh = TRUE;  
07A8:  BSF    2F.0
07AA:  MOVLB  0
07AC:  RETURN 0
.................... }  
....................  
....................  
.................... void GDRAM_VDK_TO_GDRAM_GLCD_ALL()  
.................... {  
....................   if (gdram_vdk.refresh)  
*
0C0E:  BTFSS  2F.0
0C10:  BRA    0CF0
....................   {  
....................     for (DOC = 0; DOC <GLCD_DOC; DOC++)  
0C12:  CLRF   2D
0C14:  MOVF   2D,W
0C16:  SUBLW  1F
0C18:  BNC   0CEE
....................     {  
....................       GLCD_COMMAND( 0x80 | DOC);   // Set Vertical Address.  
0C1A:  MOVF   2D,W
0C1C:  IORLW  80
0C1E:  MOVLB  4
0C20:  MOVWF  x4C
0C22:  MOVWF  x4D
0C24:  MOVLB  0
0C26:  RCALL  05A2
....................       GLCD_COMMAND( 0x80 | 0);   // Set Horizontal Address.  
0C28:  MOVLW  80
0C2A:  MOVLB  4
0C2C:  MOVWF  x4D
0C2E:  MOVLB  0
0C30:  RCALL  05A2
....................  
....................       for (NGANG=0; NGANG <GLCD_NGANG; NGANG++)  
0C32:  CLRF   2E
0C34:  MOVF   2E,W
0C36:  SUBLW  0F
0C38:  BNC   0CEA
....................       {  
....................         GLCD_DATA( gdram_vdk.PIXEL[DOC][NGANG].nbyte[1]);   // Write High Byte.  
0C3A:  MOVLB  4
0C3C:  CLRF   x6D
0C3E:  MOVFF  2D,46C
0C42:  CLRF   x6F
0C44:  MOVLW  20
0C46:  MOVWF  x6E
0C48:  MOVLB  0
0C4A:  RCALL  0604
0C4C:  MOVFF  02,03
0C50:  MOVF   01,W
0C52:  ADDLW  01
0C54:  MOVLB  4
0C56:  MOVWF  x4C
0C58:  MOVLW  00
0C5A:  ADDWFC 02,W
0C5C:  MOVWF  x4D
0C5E:  CLRF   03
0C60:  MOVFF  2E,02
0C64:  BCF    FD8.0
0C66:  RLCF   02,F
0C68:  RLCF   03,F
0C6A:  MOVF   02,W
0C6C:  ADDWF  x4C,F
0C6E:  MOVF   03,W
0C70:  ADDWFC x4D,F
0C72:  MOVLW  01
0C74:  ADDWF  x4C,W
0C76:  MOVWF  01
0C78:  MOVLW  00
0C7A:  ADDWFC x4D,W
0C7C:  MOVWF  03
0C7E:  MOVF   01,W
0C80:  ADDLW  2F
0C82:  MOVWF  FE9
0C84:  MOVLW  00
0C86:  ADDWFC 03,W
0C88:  MOVWF  FEA
0C8A:  MOVFF  FEF,44C
0C8E:  MOVFF  44C,44F
0C92:  MOVLB  0
0C94:  RCALL  0C04
....................         GLCD_DATA( gdram_vdk.PIXEL[DOC][NGANG].nbyte[0]);   // Write Low Byte.  
0C96:  MOVLB  4
0C98:  CLRF   x6D
0C9A:  MOVFF  2D,46C
0C9E:  CLRF   x6F
0CA0:  MOVLW  20
0CA2:  MOVWF  x6E
0CA4:  MOVLB  0
0CA6:  RCALL  0604
0CA8:  MOVFF  02,03
0CAC:  MOVF   01,W
0CAE:  ADDLW  01
0CB0:  MOVLB  4
0CB2:  MOVWF  x4C
0CB4:  MOVLW  00
0CB6:  ADDWFC 02,W
0CB8:  MOVWF  x4D
0CBA:  CLRF   03
0CBC:  MOVFF  2E,02
0CC0:  BCF    FD8.0
0CC2:  RLCF   02,F
0CC4:  RLCF   03,F
0CC6:  MOVF   02,W
0CC8:  ADDWF  x4C,F
0CCA:  MOVF   03,W
0CCC:  ADDWFC x4D,F
0CCE:  MOVLW  2F
0CD0:  ADDWF  x4C,W
0CD2:  MOVWF  FE9
0CD4:  MOVLW  00
0CD6:  ADDWFC x4D,W
0CD8:  MOVWF  FEA
0CDA:  MOVFF  FEF,44E
0CDE:  MOVFF  44E,44F
0CE2:  MOVLB  0
0CE4:  RCALL  0C04
0CE6:  INCF   2E,F
0CE8:  BRA    0C34
....................       }  
0CEA:  INCF   2D,F
0CEC:  BRA    0C14
....................     }  
....................     gdram_vdk.refresh = FALSE;  
0CEE:  BCF    2F.0
....................   }  
0CF0:  GOTO   1B08 (RETURN)
.................... }  
....................  
.................... void GDRAM_VDK_TO_GDRAM_GLCD_AREA (int8 x,int8 y,int8 rong, int8 cao) 
.................... { 
....................   int8 hesox,hesoy;  
....................   if (gdram_vdk.refresh)  
....................   {  
....................       if((x/16)!=(x + rong)/16) 
....................             rong=((rong+15)/16)+1; 
....................       else rong=((rong+15)/16);  
....................        
....................       x = x/16; 
....................       for (DOC = y; DOC <(y+cao); DOC++)  
....................       {  
....................          if(DOC>31) 
....................             {   
....................                hesox = 8+x; 
....................                hesoy = DOC-32; 
....................                } 
....................          else {hesox = x; hesoy = DOC;} 
....................          GLCD_COMMAND( 0x80 |hesoy);    
....................          GLCD_COMMAND( 0x80 |hesox);   
....................        
....................          for (NGANG=hesox; NGANG <(hesox+rong); NGANG++)  
....................          {  
....................             GLCD_DATA( gdram_vdk.PIXEL[hesoy][NGANG].nbyte[1]);   // Write High Byte.  
....................             GLCD_DATA( gdram_vdk.PIXEL[hesoy][NGANG].nbyte[0]);   // Write Low Byte.  
....................          }  
....................        }  
....................     gdram_vdk.refresh = FALSE;  
....................   }       
.................... } 
....................  
....................  
.................... //!const unsigned char Logo_DHSPKTTP []= { 0X00,0X01,0X2E,0X00,0X39,0X00, 
.................... //!0X00,0X00,0X00,0X00,0X00,0X00,0X00,0X00,0X00,0X00,0X00,0X00,0X00,0X00,0X00,0X00, 
.................... //!0X00,0X00,0X00,0X00,0X00,0X00,0X00,0X00,0X00,0X00,0X00,0X00,0X00,0X00,0X00,0X00, 
.................... //!0X00,0X00,0X00,0X00,0X00,0X00,0X00,0X00,0X00,0X00,0X00,0X00,0X02,0X00,0X00,0X00, 
.................... //!0X00,0X00,0X02,0X00,0X00,0X00,0X00,0X00,0X02,0X04,0X00,0X00,0X00,0X01,0X02,0X0C, 
.................... //!0X00,0X00,0X00,0X01,0X82,0X0C,0X00,0X00,0X00,0X00,0X80,0X08,0X00,0X00,0X00,0X00, 
.................... //!0X80,0X00,0X00,0X00,0X00,0X00,0X0F,0X80,0X00,0X00,0X00,0X00,0X3F,0XC0,0X00,0X00, 
.................... //!0X00,0X70,0X70,0X70,0X70,0X00,0X00,0X38,0XC8,0X18,0XE0,0X00,0X00,0X18,0XD8,0X18, 
.................... //!0XC0,0X00,0X00,0X01,0XB0,0X0C,0X00,0X00,0X00,0X01,0XA0,0X0C,0X00,0X00,0X00,0X01, 
.................... //!0X60,0X0C,0X00,0X00,0X00,0X01,0X00,0X04,0X00,0X00,0X00,0X01,0X00,0X04,0X00,0X00, 
.................... //!0X00,0X31,0X00,0X04,0X00,0X00,0X00,0X79,0X80,0X0C,0XF0,0X00,0X00,0X71,0X80,0X0C, 
.................... //!0X70,0X00,0X00,0X01,0X80,0X0C,0X00,0X00,0X00,0X00,0XC0,0X18,0X00,0X00,0X00,0X00, 
.................... //!0XC0,0X18,0X00,0X00,0X00,0X00,0X60,0X30,0X00,0X00,0X00,0X00,0X60,0X30,0X00,0X00, 
.................... //!0X00,0X00,0X20,0X20,0X00,0X00,0X00,0X00,0X30,0X60,0X00,0X00,0X00,0X00,0X30,0X60, 
.................... //!0X00,0X00,0X00,0X00,0X3F,0XE0,0X00,0X00,0X00,0X00,0X3F,0XE0,0X00,0X00,0X00,0X00, 
.................... //!0X3F,0XE0,0X00,0X00,0X00,0X00,0X3F,0XE0,0X00,0X00,0X00,0X00,0X1F,0X80,0X00,0X00, 
.................... //!0X00,0X00,0X3E,0X60,0X00,0X00,0X00,0X00,0X39,0XE0,0X00,0X00,0X00,0X00,0X07,0XE0, 
.................... //!0X00,0X00,0X00,0X00,0X1F,0X80,0X00,0X00,0X00,0X00,0X3E,0X60,0X00,0X00,0X00,0X00, 
.................... //!0X3D,0XE0,0X00,0X00,0X00,0X00,0X3F,0XE0,0X00,0X00,0X00,0X00,0X1F,0XC0,0X00,0X00, 
.................... //!0X00,0X00,0X0F,0X80,0X00,0X00,0X00,0X00,0X02,0X00,0X00,0X00,0X00,0X00,0X00,0X00, 
.................... //!0X00,0X00,0X00,0X00,0X00,0X00,0X00,0X00,0X00,0X00,0X00,0X00,0X00,0X00,0X00,0X00, 
.................... //!0X00,0X00,0X00,0X00,0X00,0X00,0X00,0X00,0X00,0X00,0X00,0X00,0X00,0X00,0X00,0X00, 
.................... //!0X00,0X00,0X00,0X00,0X00,0X00,}; 
.................... //! 
.................... const unsigned char Logo_DHSPKTTP [] = { 
.................... 0x00, 0x00, 0x00, 0x00, 0x00, 0x00, 0x00, 0x00, 0x00, 0x00, 0x00, 0x00, 0x00, 0x00, 0x00, 0x00, 
.................... 0x00, 0x00, 0x00, 0x00, 0x00, 0x00, 0x00, 0x00, 0x00, 0x00, 0x00, 0x01, 0x80, 0x00, 0x00, 0x00, 
.................... 0x00, 0x00, 0x00, 0x01, 0x80, 0x00, 0x00, 0x00, 0x00, 0x00, 0x00, 0x01, 0x80, 0x00, 0x00, 0x00, 
.................... 0x00, 0x00, 0x00, 0x07, 0xE0, 0x00, 0x00, 0x00, 0x00, 0x00, 0x00, 0x07, 0xA0, 0x00, 0x00, 0x00, 
.................... 0x00, 0x00, 0x00, 0x03, 0x20, 0x00, 0x00, 0x00, 0x00, 0x00, 0x00, 0x03, 0x20, 0x00, 0x00, 0x00, 
.................... 0x00, 0x00, 0x00, 0x02, 0x20, 0x00, 0x00, 0x00, 0x00, 0x00, 0x00, 0x02, 0x30, 0x00, 0x00, 0x00, 
.................... 0x00, 0x00, 0x00, 0x02, 0x30, 0x00, 0x00, 0x00, 0x00, 0x7F, 0x00, 0x00, 0x30, 0x00, 0x7E, 0x00, 
.................... 0x00, 0xFE, 0x00, 0x07, 0xE0, 0x00, 0x3F, 0x00, 0x01, 0xF8, 0x00, 0x03, 0xE0, 0x00, 0x1F, 0x80, 
.................... 0x03, 0xF0, 0x00, 0x01, 0xC0, 0x00, 0x0F, 0xC0, 0x03, 0xE0, 0x00, 0x01, 0xC0, 0x00, 0x07, 0xE0, 
.................... 0x07, 0xC0, 0x00, 0x03, 0xC0, 0x00, 0x03, 0xF0, 0x0F, 0xC0, 0x00, 0x17, 0xF4, 0x00, 0x01, 0xF0, 
.................... 0x0F, 0x80, 0x00, 0x1D, 0x98, 0x00, 0x00, 0xF8, 0x1F, 0x00, 0x00, 0x11, 0x8C, 0x00, 0x00, 0xF8, 
.................... 0x1F, 0x01, 0x00, 0x31, 0x84, 0x00, 0x80, 0x7C, 0x3E, 0x06, 0x00, 0x31, 0x86, 0x00, 0x20, 0x7C, 
.................... 0x3E, 0x18, 0x00, 0x71, 0x86, 0x00, 0x1C, 0x3E, 0x3C, 0x43, 0x00, 0x31, 0x84, 0x00, 0xC3, 0x3E, 
.................... 0x7C, 0x0C, 0x00, 0x11, 0x8C, 0x00, 0x38, 0x1E, 0x7C, 0x31, 0x00, 0x1D, 0x98, 0x00, 0x86, 0x1F, 
.................... 0x78, 0xC6, 0x00, 0x1F, 0xFC, 0x00, 0x63, 0x1F, 0x78, 0x18, 0x00, 0x03, 0xC0, 0x00, 0x0C, 0x1F, 
.................... 0xF8, 0x63, 0x80, 0x01, 0x80, 0x00, 0xC7, 0x0F, 0xF9, 0x8E, 0x00, 0x00, 0x00, 0x00, 0x38, 0x8F, 
.................... 0xF8, 0x38, 0x80, 0x00, 0x00, 0x01, 0x0C, 0x0F, 0xF8, 0xC3, 0x80, 0x00, 0x00, 0x00, 0xE3, 0x8F, 
.................... 0xF9, 0x8E, 0x00, 0x00, 0x00, 0x00, 0x30, 0xCF, 0xF8, 0x38, 0xF8, 0x00, 0x00, 0x1F, 0x9E, 0x0F, 
.................... 0xF8, 0xE3, 0xFE, 0x00, 0x00, 0x7F, 0xE3, 0x8F, 0xF9, 0x9F, 0xFF, 0xC0, 0x03, 0xFF, 0xF9, 0xCF, 
.................... 0x78, 0xFF, 0xFF, 0xE0, 0x07, 0xFF, 0xFF, 0x0F, 0x78, 0x1F, 0xFF, 0xE0, 0x07, 0xFF, 0xFC, 0x1F, 
.................... 0x7C, 0x07, 0xFF, 0xE0, 0x07, 0xFF, 0xE0, 0x1F, 0x7C, 0x00, 0xFF, 0xE0, 0x07, 0xFF, 0x80, 0x1E, 
.................... 0x7C, 0x00, 0x1F, 0xE0, 0x07, 0xFC, 0x00, 0x3E, 0x3E, 0x01, 0xCF, 0xE0, 0x07, 0xF3, 0x80, 0x3E, 
.................... 0x3E, 0x01, 0xFF, 0xE0, 0x03, 0xFF, 0x80, 0x7C, 0x1F, 0x01, 0xFF, 0xE0, 0x03, 0xFF, 0xC0, 0x7C, 
.................... 0x1F, 0x01, 0xFF, 0xC0, 0x03, 0xFF, 0xC0, 0xF8, 0x0F, 0x83, 0xFF, 0xC0, 0x01, 0xFF, 0xC0, 0xF8, 
.................... 0x0F, 0x83, 0xFF, 0xC0, 0x01, 0xFF, 0xC1, 0xF0, 0x07, 0xC3, 0xFF, 0x80, 0x01, 0xFF, 0xE3, 0xF0, 
.................... 0x03, 0xE3, 0xFF, 0x80, 0x01, 0xFF, 0xE7, 0xE0, 0x03, 0xF7, 0xFF, 0x80, 0x00, 0xFF, 0xEF, 0xC0, 
.................... 0x01, 0xFF, 0xFF, 0x80, 0x00, 0xFF, 0xFF, 0x80, 0x00, 0xFF, 0xFF, 0x00, 0x00, 0xFF, 0xFF, 0x80, 
.................... 0x00, 0x7F, 0xFF, 0x00, 0x00, 0xFF, 0xFF, 0x00, 0x00, 0x3F, 0xFF, 0x00, 0x00, 0xFF, 0xFE, 0x00, 
.................... 0x00, 0x1F, 0xFF, 0x00, 0x00, 0x7F, 0xF8, 0x00, 0x00, 0x0F, 0xFE, 0x00, 0x00, 0x7F, 0xF0, 0x00, 
.................... 0x00, 0x03, 0xFF, 0x00, 0x00, 0x7F, 0xE0, 0x00, 0x00, 0x00, 0xFF, 0xFC, 0x1F, 0xFF, 0x80, 0x00, 
.................... 0x00, 0x00, 0x7F, 0xFF, 0xFF, 0xFE, 0x00, 0x00, 0x00, 0x00, 0x0F, 0xFF, 0xFF, 0xF8, 0x00, 0x00, 
.................... 0x00, 0x00, 0x01, 0xFF, 0xFF, 0xC0, 0x00, 0x00, 0x00, 0x00, 0x00, 0x0F, 0xF0, 0x00, 0x00, 0x00 
.................... }; 
....................  
....................  
.................... void GLCD_XUAT_ANH(int width,int height,int x,int y)  
.................... {  
....................    unsigned int i=0, j=0, k=0;  
....................    unsigned int16 count=0;  
....................    for(j=0;j<height;j++)  
....................       {     
....................          for(;i<width;)  
....................          {  
....................             for(k=8;k>0;k--) 
....................             { 
....................                glcd_pixel(i+x,j+y,bit_test(Logo_DHSPKTTP[count],(k-1)));  
....................                i++;  
....................             }  
....................             count++;  
....................          }  
....................       i=0;  
....................       }  
.................... }  
....................  
.................... #include <graphics.c> 
.................... ///////////////////////////////////////////////////////////////////////// 
.................... ////                          graphics.c                             //// 
.................... ////                                                                 //// 
.................... ////   This file contains functions to draw lines, rectangles, bars, //// 
.................... ////   circles and text to a display. A function which draws a       //// 
.................... ////   single pixel must be defined before calling the functions in  //// 
.................... ////   this file. Call it glcd_pixel(x, y, color) where x is the     //// 
.................... ////   horizontal coordinate, y is the vertical coordinate, and      //// 
.................... ////   color is 1 bit to turn the pixel on or off.                   //// 
.................... ////                                                                 //// 
.................... ////   * Note: (0, 0) is treated as the upper left corner            //// 
.................... ////                                                                 //// 
.................... ///////////////////////////////////////////////////////////////////////// 
.................... ////                                                                 //// 
.................... ////  glcd_line(x1, y1, x2, y2, color)                               //// 
.................... ////     * Draws a line from the first point to the second point     //// 
.................... ////       with the given color                                      //// 
.................... ////       - color can be ON or OFF                                  //// 
.................... ////                                                                 //// 
.................... ////  glcd_rect(x1, y1, x2, y2, fill, color)                         //// 
.................... ////     * Draws a rectangle with one corner at point (x1,y1) and    //// 
.................... ////       the other corner at point (x2,y2)                         //// 
.................... ////       - fill can be YES or NO                                   //// 
.................... ////       - color can be ON or OFF                                  //// 
.................... ////                                                                 //// 
.................... ////  glcd_bar(x1, y1, x2, y2, width, color)                         //// 
.................... ////     * Draws a bar (wide line) from the first point to the       //// 
.................... ////       second point                                              //// 
.................... ////       - width is the number of pixels wide                      //// 
.................... ////       - color is ON or OFF                                      //// 
.................... ////                                                                 //// 
.................... ////  glcd_circle(x, y, radius, fill, color)                         //// 
.................... ////     * Draws a circle with center at (x,y)                       //// 
.................... ////       - fill can be YES or NO                                   //// 
.................... ////       - color can be ON or OFF                                  //// 
.................... ////                                                                 //// 
.................... ////  glcd_text57(x, y, textptr, size, color)                        //// 
.................... ////     * Write the null terminated text pointed to by textptr with //// 
.................... ////       the upper left coordinate of the first character at (x,y) //// 
.................... ////       Characters are 5 pixels wide and 7 pixels tall            //// 
.................... ////       - size is an integer that scales the size of the text     //// 
.................... ////       - color is ON or OFF                                      //// 
.................... ////     * Note - This function wraps characters to the next line    //// 
.................... ////              use #define GLCD_WIDTH to specify a display width  //// 
.................... ////                                                                 //// 
.................... ///////////////////////////////////////////////////////////////////////// 
.................... ////        (C) Copyright 1996, 2010 Custom Computer Services        //// 
.................... //// This source code may only be used by licensed users of the CCS  //// 
.................... //// C compiler.  This source code may only be distributed to other  //// 
.................... //// licensed users of the CCS C compiler.  No other use,            //// 
.................... //// reproduction or distribution is permitted without written       //// 
.................... //// permission.  Derivative programs created using this software    //// 
.................... //// in object code form are not restricted in any way.              //// 
.................... ///////////////////////////////////////////////////////////////////////// 
....................  
....................  
.................... ///////////////////////////////////////////////////////////////////////// 
.................... #ifndef GRAPHICS_DRAWING_FUNCTIONS 
.................... #define GRAPHICS_DRAWING_FUNCTIONS 
.................... ///////////////////////////////////////////////////////////////////////// 
....................  
....................  
.................... ///////////////////////////////////////////////////////////////////////// 
.................... #ifndef ON 
.................... #define ON  1 
.................... #endif 
....................  
.................... #ifndef OFF 
.................... #define OFF 0 
.................... #endif 
....................  
.................... #ifndef YES 
.................... #define YES 1 
.................... #endif 
....................  
.................... #ifndef NO 
.................... #define NO  0 
.................... #endif 
.................... ///////////////////////////////////////////////////////////////////////// 
....................  
....................  
.................... ///////////////////////////////////////////////////////////////////////// 
.................... //// Defines a 5x7 font 
.................... ///////////////////////////////////////////////////////////////////////// 
.................... const unsigned int8 FONT[51][5] ={0x00, 0x00, 0x00, 0x00, 0x00, // SPACE 
....................                          0x00, 0x00, 0x5F, 0x00, 0x00, // ! 
....................                          0x00, 0x03, 0x00, 0x03, 0x00, // " 
....................                          0x14, 0x3E, 0x14, 0x3E, 0x14, // # 
....................                          0x24, 0x2A, 0x7F, 0x2A, 0x12, // $ 
....................                          0x43, 0x33, 0x08, 0x66, 0x61, // % 
....................                          0x36, 0x49, 0x55, 0x22, 0x50, // & 
....................                          0x00, 0x05, 0x03, 0x00, 0x00, // ' 
....................                          0x00, 0x1C, 0x22, 0x41, 0x00, // ( 
....................                          0x00, 0x41, 0x22, 0x1C, 0x00, // ) 
....................                          0x14, 0x08, 0x3E, 0x08, 0x14, // * 
....................                          0x08, 0x08, 0x3E, 0x08, 0x08, // + 
....................                          0x00, 0x50, 0x30, 0x00, 0x00, // , 
....................                          0x08, 0x08, 0x08, 0x08, 0x08, // - 
....................                          0x00, 0x60, 0x60, 0x00, 0x00, // . 
....................                          0x20, 0x10, 0x08, 0x04, 0x02, // / 
....................                          0x3E, 0x51, 0x49, 0x45, 0x3E, // 0 
....................                          0x00, 0x04, 0x02, 0x7F, 0x00, // 1 
....................                          0x42, 0x61, 0x51, 0x49, 0x46, // 2 
....................                          0x22, 0x41, 0x49, 0x49, 0x36, // 3 
....................                          0x18, 0x14, 0x12, 0x7F, 0x10, // 4 
....................                          0x27, 0x45, 0x45, 0x45, 0x39, // 5 
....................                          0x3E, 0x49, 0x49, 0x49, 0x32, // 6 
....................                          0x01, 0x01, 0x71, 0x09, 0x07, // 7 
....................                          0x36, 0x49, 0x49, 0x49, 0x36, // 8 
....................                          0x26, 0x49, 0x49, 0x49, 0x3E, // 9 
....................                          0x00, 0x36, 0x36, 0x00, 0x00, // : 
....................                          0x00, 0x56, 0x36, 0x00, 0x00, // ; 
....................                          0x08, 0x14, 0x22, 0x41, 0x00, // < 
....................                          0x14, 0x14, 0x14, 0x14, 0x14, // = 
....................                          0x00, 0x41, 0x22, 0x14, 0x08, // > 
....................                          0x02, 0x01, 0x51, 0x09, 0x06, // ? 
....................                          0x3E, 0x41, 0x59, 0x55, 0x5E, // @ 
....................                          0x7E, 0x09, 0x09, 0x09, 0x7E, // A 
....................                          0x7F, 0x49, 0x49, 0x49, 0x36, // B 
....................                          0x3E, 0x41, 0x41, 0x41, 0x22, // C 
....................                          0x7F, 0x41, 0x41, 0x41, 0x3E, // D 
....................                          0x7F, 0x49, 0x49, 0x49, 0x41, // E 
....................                          0x7F, 0x09, 0x09, 0x09, 0x01, // F 
....................                          0x3E, 0x41, 0x41, 0x49, 0x3A, // G 
....................                          0x7F, 0x08, 0x08, 0x08, 0x7F, // H 
....................                          0x00, 0x41, 0x7F, 0x41, 0x00, // I 
....................                          0x30, 0x40, 0x40, 0x40, 0x3F, // J 
....................                          0x7F, 0x08, 0x14, 0x22, 0x41, // K 
....................                          0x7F, 0x40, 0x40, 0x40, 0x40, // L 
....................                          0x7F, 0x02, 0x0C, 0x02, 0x7F, // M 
....................                          0x7F, 0x02, 0x04, 0x08, 0x7F, // N 
....................                          0x3E, 0x41, 0x41, 0x41, 0x3E, // O 
....................                          0x7F, 0x09, 0x09, 0x09, 0x06, // P 
....................                          0x1E, 0x21, 0x21, 0x21, 0x5E, // Q 
....................                          0x7F, 0x09, 0x09, 0x09, 0x76};// R 
....................  
.................... const unsigned int8 FONT2[44][5]={0x26, 0x49, 0x49, 0x49, 0x32, // S 
....................                          0x01, 0x01, 0x7F, 0x01, 0x01, // T 
....................                          0x3F, 0x40, 0x40, 0x40, 0x3F, // U 
....................                          0x1F, 0x20, 0x40, 0x20, 0x1F, // V 
....................                          0x7F, 0x20, 0x10, 0x20, 0x7F, // W 
....................                          0x41, 0x22, 0x1C, 0x22, 0x41, // X 
....................                          0x07, 0x08, 0x70, 0x08, 0x07, // Y 
....................                          0x61, 0x51, 0x49, 0x45, 0x43, // Z 
....................                          0x00, 0x7F, 0x41, 0x00, 0x00, // [ 
....................                          0x02, 0x04, 0x08, 0x10, 0x20, // \ 
....................                          0x00, 0x00, 0x41, 0x7F, 0x00, // ] 
....................                          0x04, 0x02, 0x01, 0x02, 0x04, // ^ 
....................                          0x40, 0x40, 0x40, 0x40, 0x40, // _ 
....................                          0x00, 0x01, 0x02, 0x04, 0x00, // ` 
....................                          0x20, 0x54, 0x54, 0x54, 0x78, // a 
....................                          0x7F, 0x44, 0x44, 0x44, 0x38, // b 
....................                          0x38, 0x44, 0x44, 0x44, 0x44, // c 
....................                          0x38, 0x44, 0x44, 0x44, 0x7F, // d 
....................                          0x38, 0x54, 0x54, 0x54, 0x18, // e 
....................                          0x04, 0x04, 0x7E, 0x05, 0x05, // f 
....................                          0x08, 0x54, 0x54, 0x54, 0x3C, // g 
....................                          0x7F, 0x08, 0x04, 0x04, 0x78, // h 
....................                          0x00, 0x44, 0x7D, 0x40, 0x00, // i 
....................                          0x20, 0x40, 0x44, 0x3D, 0x00, // j 
....................                          0x7F, 0x10, 0x28, 0x44, 0x00, // k 
....................                          0x00, 0x41, 0x7F, 0x40, 0x00, // l 
....................                          0x7C, 0x04, 0x78, 0x04, 0x78, // m 
....................                          0x7C, 0x08, 0x04, 0x04, 0x78, // n 
....................                          0x38, 0x44, 0x44, 0x44, 0x38, // o 
....................                          0x7C, 0x14, 0x14, 0x14, 0x08, // p 
....................                          0x08, 0x14, 0x14, 0x14, 0x7C, // q 
....................                          0x00, 0x7C, 0x08, 0x04, 0x04, // r 
....................                          0x48, 0x54, 0x54, 0x54, 0x20, // s 
....................                          0x04, 0x04, 0x3F, 0x44, 0x44, // t 
....................                          0x3C, 0x40, 0x40, 0x20, 0x7C, // u 
....................                          0x1C, 0x20, 0x40, 0x20, 0x1C, // v 
....................                          0x3C, 0x40, 0x30, 0x40, 0x3C, // w 
....................                          0x44, 0x28, 0x10, 0x28, 0x44, // x 
....................                          0x0C, 0x50, 0x50, 0x50, 0x3C, // y 
....................                          0x44, 0x64, 0x54, 0x4C, 0x44, // z 
....................                          0x00, 0x08, 0x36, 0x41, 0x41, // { 
....................                          0x00, 0x00, 0x7F, 0x00, 0x00, // | 
....................                          0x41, 0x41, 0x36, 0x08, 0x00, // } 
....................                          0x02, 0x01, 0x02, 0x04, 0x02};// ~ 
.................... ///////////////////////////////////////////////////////////////////////// 
....................  
....................  
.................... ///////////////////////////////////////////////////////////////////////// 
.................... // Purpose:       Draw a line on a graphic LCD using Bresenham's 
.................... //                line drawing algorithm 
.................... // Inputs:        (x1, y1) - the start coordinate 
.................... //                (x2, y2) - the end coordinate 
.................... //                color - ON or OFF 
.................... // Dependencies:  glcd_pixel() 
.................... ///////////////////////////////////////////////////////////////////////// 
.................... #ifdef LARGE_LCD 
.................... void glcd_line(unsigned int16 x1, unsigned int16 y1, unsigned int16 x2, iunsigned nt16 y2, int1 color) 
.................... #else 
.................... void glcd_line(unsigned int8 x1, unsigned int8 y1, unsigned int8 x2, unsigned int8 y2, int1 color) 
.................... #endif 
*
07AE:  MOVLW  01
07B0:  MOVLB  4
07B2:  MOVWF  x61
07B4:  MOVWF  x62
07B6:  CLRF   x67
.................... { 
....................    unsigned int16        dy, dx; 
....................    signed int8  addx=1, addy=1; 
....................    signed int16 P, diff; 
....................  
....................    #ifdef LARGE_LCD 
....................    unsigned int16 i=0; 
....................    dx = abs((signed int16)(x2 - x1)); 
....................    dy = abs((signed int16)(y2 - y1)); 
....................    #else 
....................    unsigned int8 i=0; 
....................    dx = abs((signed int8)(x2 - x1)); 
07B8:  MOVF   x58,W
07BA:  SUBWF  x5A,W
07BC:  MOVWF  x68
07BE:  MOVF   x68,W
07C0:  BTFSS  x68.7
07C2:  BRA    07CA
07C4:  MOVLW  00
07C6:  BSF    FD8.0
07C8:  SUBFWB x68,W
07CA:  CLRF   03
07CC:  MOVWF  x5F
07CE:  MOVFF  03,460
....................    dy = abs((signed int8)(y2 - y1)); 
07D2:  MOVF   x59,W
07D4:  SUBWF  x5B,W
07D6:  MOVWF  x68
07D8:  MOVF   x68,W
07DA:  BTFSS  x68.7
07DC:  BRA    07E4
07DE:  MOVLW  00
07E0:  BSF    FD8.0
07E2:  SUBFWB x68,W
07E4:  CLRF   03
07E6:  MOVWF  x5D
07E8:  MOVFF  03,45E
....................    #endif 
....................  
....................    if(x1 > x2) 
07EC:  MOVF   x58,W
07EE:  SUBWF  x5A,W
07F0:  BC    07F4
....................       addx = -1; 
07F2:  SETF   x61
....................    if(y1 > y2) 
07F4:  MOVF   x59,W
07F6:  SUBWF  x5B,W
07F8:  BC    07FC
....................       addy = -1; 
07FA:  SETF   x62
....................  
....................    if(dx >= dy) 
07FC:  MOVF   x5E,W
07FE:  SUBWF  x60,W
0800:  BNC   0876
0802:  BNZ   080A
0804:  MOVF   x5D,W
0806:  SUBWF  x5F,W
0808:  BNC   0876
....................    { 
....................       dy *= 2; 
080A:  BCF    FD8.0
080C:  RLCF   x5D,F
080E:  RLCF   x5E,F
....................       P = dy - dx; 
0810:  MOVF   x5F,W
0812:  SUBWF  x5D,W
0814:  MOVWF  00
0816:  MOVF   x60,W
0818:  SUBWFB x5E,W
081A:  MOVFF  00,463
081E:  MOVWF  x64
....................       diff = P - dx; 
0820:  MOVF   x5F,W
0822:  SUBWF  x63,W
0824:  MOVWF  x65
0826:  MOVF   x60,W
0828:  SUBWFB x64,W
082A:  MOVWF  x66
....................  
....................       for(; i<=dx; ++i) 
082C:  MOVF   x60,F
082E:  BNZ   0836
0830:  MOVF   x67,W
0832:  SUBWF  x5F,W
0834:  BNC   0874
....................       { 
....................          glcd_pixel(x1, y1, color); 
0836:  MOVFF  458,468
083A:  MOVFF  459,469
083E:  MOVFF  45C,46A
0842:  MOVLB  0
0844:  RCALL  06A2
....................  
....................          if(P < 0) 
0846:  MOVLB  4
0848:  BTFSS  x64.7
084A:  BRA    085C
....................          { 
....................             P  += dy; 
084C:  MOVF   x5D,W
084E:  ADDWF  x63,F
0850:  MOVF   x5E,W
0852:  ADDWFC x64,F
....................             x1 += addx; 
0854:  MOVF   x61,W
0856:  ADDWF  x58,W
0858:  MOVWF  x58
....................          } 
085A:  BRA    0870
....................          else 
....................          { 
....................             P  += diff; 
085C:  MOVF   x65,W
085E:  ADDWF  x63,F
0860:  MOVF   x66,W
0862:  ADDWFC x64,F
....................             x1 += addx; 
0864:  MOVF   x61,W
0866:  ADDWF  x58,W
0868:  MOVWF  x58
....................             y1 += addy; 
086A:  MOVF   x62,W
086C:  ADDWF  x59,W
086E:  MOVWF  x59
....................          } 
0870:  INCF   x67,F
0872:  BRA    082C
....................       } 
....................    } 
0874:  BRA    08E0
....................    else 
....................    { 
....................       dx *= 2; 
0876:  BCF    FD8.0
0878:  RLCF   x5F,F
087A:  RLCF   x60,F
....................       P = dx - dy; 
087C:  MOVF   x5D,W
087E:  SUBWF  x5F,W
0880:  MOVWF  00
0882:  MOVF   x5E,W
0884:  SUBWFB x60,W
0886:  MOVFF  00,463
088A:  MOVWF  x64
....................       diff = P - dy; 
088C:  MOVF   x5D,W
088E:  SUBWF  x63,W
0890:  MOVWF  x65
0892:  MOVF   x5E,W
0894:  SUBWFB x64,W
0896:  MOVWF  x66
....................  
....................       for(; i<=dy; ++i) 
0898:  MOVF   x5E,F
089A:  BNZ   08A2
089C:  MOVF   x67,W
089E:  SUBWF  x5D,W
08A0:  BNC   08E0
....................       { 
....................          glcd_pixel(x1, y1, color); 
08A2:  MOVFF  458,468
08A6:  MOVFF  459,469
08AA:  MOVFF  45C,46A
08AE:  MOVLB  0
08B0:  RCALL  06A2
....................  
....................          if(P < 0) 
08B2:  MOVLB  4
08B4:  BTFSS  x64.7
08B6:  BRA    08C8
....................          { 
....................             P  += dx; 
08B8:  MOVF   x5F,W
08BA:  ADDWF  x63,F
08BC:  MOVF   x60,W
08BE:  ADDWFC x64,F
....................             y1 += addy; 
08C0:  MOVF   x62,W
08C2:  ADDWF  x59,W
08C4:  MOVWF  x59
....................          } 
08C6:  BRA    08DC
....................          else 
....................          { 
....................             P  += diff; 
08C8:  MOVF   x65,W
08CA:  ADDWF  x63,F
08CC:  MOVF   x66,W
08CE:  ADDWFC x64,F
....................             x1 += addx; 
08D0:  MOVF   x61,W
08D2:  ADDWF  x58,W
08D4:  MOVWF  x58
....................             y1 += addy; 
08D6:  MOVF   x62,W
08D8:  ADDWF  x59,W
08DA:  MOVWF  x59
....................          } 
08DC:  INCF   x67,F
08DE:  BRA    0898
....................       } 
....................    } 
08E0:  MOVLB  0
08E2:  RETURN 0
.................... } 
....................  
....................  
.................... ///////////////////////////////////////////////////////////////////////// 
.................... // Purpose:       Draw a rectangle on a graphic LCD 
.................... // Inputs:        (x1, y1) - the start coordinate 
.................... //                (x2, y2) - the end coordinate 
.................... //                fill  - YES or NO 
.................... //                color - ON or OFF 
.................... // Dependencies:  glcd_pixel(), glcd_line() 
.................... ///////////////////////////////////////////////////////////////////////// 
.................... #ifdef LARGE_LCD 
.................... void glcd_rect(unsigned int16 x1, unsigned int16 y1, unsigned int16 x2, unsigned int16 y2, int1 fill, int1 color) 
.................... #else 
.................... void glcd_rect(unsigned int8 x1, unsigned int8 y1, unsigned int8 x2, unsigned int8 y2, int1 fill, int1 color) 
.................... #endif 
.................... { 
....................    if(fill) 
*
0B42:  MOVLB  4
0B44:  MOVF   x50,F
0B46:  BZ    0BA4
....................    { 
....................       #ifdef LARGE_LCD 
....................       unsigned int16 i, xmin, xmax, ymin, ymax; 
....................       #else 
....................       unsigned int8  i, xmin, xmax, ymin, ymax; 
....................       #endif 
....................  
....................       if(x1 < x2)                            //  Find x min and max 
0B48:  MOVF   x4E,W
0B4A:  SUBWF  x4C,W
0B4C:  BC    0B58
....................       { 
....................          xmin = x1; 
0B4E:  MOVFF  44C,453
....................          xmax = x2; 
0B52:  MOVFF  44E,454
....................       } 
0B56:  BRA    0B60
....................       else 
....................       { 
....................          xmin = x2; 
0B58:  MOVFF  44E,453
....................          xmax = x1; 
0B5C:  MOVFF  44C,454
....................       } 
....................  
....................       if(y1 < y2)                            // Find the y min and max 
0B60:  MOVF   x4F,W
0B62:  SUBWF  x4D,W
0B64:  BC    0B70
....................       { 
....................          ymin = y1; 
0B66:  MOVFF  44D,455
....................          ymax = y2; 
0B6A:  MOVFF  44F,456
....................       } 
0B6E:  BRA    0B78
....................       else 
....................       { 
....................          ymin = y2; 
0B70:  MOVFF  44F,455
....................          ymax = y1; 
0B74:  MOVFF  44D,456
....................       } 
....................  
....................       for(; xmin <= xmax; ++xmin) 
0B78:  MOVF   x53,W
0B7A:  SUBWF  x54,W
0B7C:  BNC   0BA2
....................       { 
....................          for(i=ymin; i<=ymax; ++i) 
0B7E:  MOVFF  455,452
0B82:  MOVF   x52,W
0B84:  SUBWF  x56,W
0B86:  BNC   0B9E
....................          { 
....................             glcd_pixel(xmin, i, color); 
0B88:  MOVFF  453,468
0B8C:  MOVFF  452,469
0B90:  MOVFF  451,46A
0B94:  MOVLB  0
0B96:  RCALL  06A2
0B98:  MOVLB  4
0B9A:  INCF   x52,F
0B9C:  BRA    0B82
....................          } 
0B9E:  INCF   x53,F
0BA0:  BRA    0B78
....................       } 
....................    } 
0BA2:  BRA    0C00
....................    else 
....................    { 
....................       glcd_line(x1, y1, x2, y1, color);      // Draw the 4 sides 
0BA4:  MOVFF  44C,458
0BA8:  MOVFF  44D,459
0BAC:  MOVFF  44E,45A
0BB0:  MOVFF  44D,45B
0BB4:  MOVFF  451,45C
0BB8:  MOVLB  0
0BBA:  RCALL  07AE
....................       glcd_line(x1, y2, x2, y2, color); 
0BBC:  MOVFF  44C,458
0BC0:  MOVFF  44F,459
0BC4:  MOVFF  44E,45A
0BC8:  MOVFF  44F,45B
0BCC:  MOVFF  451,45C
0BD0:  RCALL  07AE
....................       glcd_line(x1, y1, x1, y2, color); 
0BD2:  MOVFF  44C,458
0BD6:  MOVFF  44D,459
0BDA:  MOVFF  44C,45A
0BDE:  MOVFF  44F,45B
0BE2:  MOVFF  451,45C
0BE6:  RCALL  07AE
....................       glcd_line(x2, y1, x2, y2, color); 
0BE8:  MOVFF  44E,458
0BEC:  MOVFF  44D,459
0BF0:  MOVFF  44E,45A
0BF4:  MOVFF  44F,45B
0BF8:  MOVFF  451,45C
0BFC:  RCALL  07AE
0BFE:  MOVLB  4
....................    } 
0C00:  MOVLB  0
0C02:  RETURN 0
.................... } 
....................  
.................... ///////////////////////////////////////////////////////////////////////// 
.................... // Purpose:       Draw a bar (wide line) on a graphic LCD 
.................... // Inputs:        (x1, y1) - the start coordinate 
.................... //                (x2, y2) - the end coordinate 
.................... //                width  - The number of pixels wide 
.................... //                color - ON or OFF 
.................... ///////////////////////////////////////////////////////////////////////// 
.................... #ifdef LARGE_LCD 
.................... void glcd_bar(unsigned int16 x1, unsigned int16 y1, unsigned int16 x2, unsigned int16 y2, unsigned int8 width, int1 color) 
.................... #else 
.................... void glcd_bar(unsigned int8 x1, unsigned int8 y1, unsigned int8 x2, unsigned int8 y2, unsigned int8 width, int1 color) 
.................... #endif 
.................... { 
....................    unsigned int8         half_width; 
....................    signed int16 dy, dx; 
....................    signed int8  addx=1, addy=1, j; 
....................    signed int16 P, diff, c1, c2; 
....................  
....................    #ifdef LARGE_LCD 
....................    unsigned int16 i=0; 
....................    dx = abs((signed int16)(x2 - x1)); 
....................    dy = abs((signed int16)(y2 - y1)); 
....................    #else 
....................    unsigned int8 i=0; 
....................    dx = abs((signed int8)(x2 - x1)); 
....................    dy = abs((signed int8)(y2 - y1)); 
....................    #endif 
....................  
....................    half_width = width/2; 
....................    c1 = -(dx*x1 + dy*y1); 
....................    c2 = -(dx*x2 + dy*y2); 
....................  
....................    if(x1 > x2) 
....................    { 
....................       signed int16 temp; 
....................       temp = c1; 
....................       c1 = c2; 
....................       c2 = temp; 
....................       addx = -1; 
....................    } 
....................    if(y1 > y2) 
....................    { 
....................       signed int16 temp; 
....................       temp = c1; 
....................       c1 = c2; 
....................       c2 = temp; 
....................       addy = -1; 
....................    } 
....................  
....................    if(dx >= dy) 
....................    { 
....................       P = 2*dy - dx; 
....................       diff = P - dx; 
....................  
....................       for(i=0; i<=dx; ++i) 
....................       { 
....................          for(j=-half_width; j<half_width+width%2; ++j) 
....................          { 
....................                glcd_pixel(x1, y1+j, color); 
....................          } 
....................          if(P < 0) 
....................          { 
....................             P  += 2*dy; 
....................             x1 += addx; 
....................          } 
....................          else 
....................          { 
....................             P  += diff; 
....................             x1 += addx; 
....................             y1 += addy; 
....................          } 
....................       } 
....................    } 
....................    else 
....................    { 
....................       P = 2*dx - dy; 
....................       diff = P - dy; 
....................  
....................       for(i=0; i<=dy; ++i) 
....................       { 
....................          if(P < 0) 
....................          { 
....................             P  += 2*dx; 
....................             y1 += addy; 
....................          } 
....................          else 
....................          { 
....................             P  += diff; 
....................             x1 += addx; 
....................             y1 += addy; 
....................          } 
....................          for(j=-half_width; j<half_width+width%2; ++j) 
....................          { 
....................                glcd_pixel(x1+j, y1, color); 
....................          } 
....................       } 
....................    } 
.................... } 
....................  
....................  
.................... ///////////////////////////////////////////////////////////////////////// 
.................... // Purpose:       Draw a circle on a graphic LCD 
.................... // Inputs:        (x,y) - the center of the circle 
.................... //                radius - the radius of the circle 
.................... //                fill - YES or NO 
.................... //                color - ON or OFF 
.................... ///////////////////////////////////////////////////////////////////////// 
.................... #ifdef LARGE_LCD 
.................... void glcd_circle(unsigned int16 x, unsigned int16 y, unsigned int16 radius, int1 fill, int1 color) 
.................... #else 
.................... void glcd_circle(unsigned int8 x, unsigned int8 y, unsigned int8 radius, int1 fill, int1 color) 
.................... #endif 
.................... { 
....................    #ifdef LARGE_LCD 
....................    signed int16 a, b, P; 
....................    #else 
....................    signed int8  a, b, P; 
....................    #endif 
....................  
....................    a = 0; 
*
0932:  MOVLB  4
0934:  CLRF   x51
....................    b = radius; 
0936:  MOVFF  44E,452
....................    P = 1 - radius; 
093A:  MOVLW  01
093C:  BSF    FD8.0
093E:  SUBFWB x4E,W
0940:  MOVWF  x53
....................  
....................    do 
....................    { 
....................       if(fill) 
0942:  MOVF   x4F,F
0944:  BZ    0A08
....................       { 
....................          glcd_line(x-a, y+b, x+a, y+b, color); 
0946:  MOVF   x51,W
0948:  SUBWF  x4C,W
094A:  MOVWF  x54
094C:  MOVF   x52,W
094E:  ADDWF  x4D,W
0950:  MOVWF  x55
0952:  MOVF   x51,W
0954:  ADDWF  x4C,W
0956:  MOVWF  x56
0958:  MOVF   x52,W
095A:  ADDWF  x4D,W
095C:  MOVWF  x57
095E:  MOVFF  454,458
0962:  MOVFF  455,459
0966:  MOVFF  456,45A
096A:  MOVWF  x5B
096C:  MOVFF  450,45C
0970:  MOVLB  0
0972:  RCALL  07AE
....................          glcd_line(x-a, y-b, x+a, y-b, color); 
0974:  MOVLB  4
0976:  MOVF   x51,W
0978:  SUBWF  x4C,W
097A:  MOVWF  x54
097C:  MOVF   x52,W
097E:  SUBWF  x4D,W
0980:  MOVWF  x55
0982:  MOVF   x51,W
0984:  ADDWF  x4C,W
0986:  MOVWF  x56
0988:  MOVF   x52,W
098A:  SUBWF  x4D,W
098C:  MOVWF  x57
098E:  MOVFF  454,458
0992:  MOVFF  455,459
0996:  MOVFF  456,45A
099A:  MOVWF  x5B
099C:  MOVFF  450,45C
09A0:  MOVLB  0
09A2:  RCALL  07AE
....................          glcd_line(x-b, y+a, x+b, y+a, color); 
09A4:  MOVLB  4
09A6:  MOVF   x52,W
09A8:  SUBWF  x4C,W
09AA:  MOVWF  x54
09AC:  MOVF   x51,W
09AE:  ADDWF  x4D,W
09B0:  MOVWF  x55
09B2:  MOVF   x52,W
09B4:  ADDWF  x4C,W
09B6:  MOVWF  x56
09B8:  MOVF   x51,W
09BA:  ADDWF  x4D,W
09BC:  MOVWF  x57
09BE:  MOVFF  454,458
09C2:  MOVFF  455,459
09C6:  MOVFF  456,45A
09CA:  MOVWF  x5B
09CC:  MOVFF  450,45C
09D0:  MOVLB  0
09D2:  RCALL  07AE
....................          glcd_line(x-b, y-a, x+b, y-a, color); 
09D4:  MOVLB  4
09D6:  MOVF   x52,W
09D8:  SUBWF  x4C,W
09DA:  MOVWF  x54
09DC:  MOVF   x51,W
09DE:  SUBWF  x4D,W
09E0:  MOVWF  x55
09E2:  MOVF   x52,W
09E4:  ADDWF  x4C,W
09E6:  MOVWF  x56
09E8:  MOVF   x51,W
09EA:  SUBWF  x4D,W
09EC:  MOVWF  x57
09EE:  MOVFF  454,458
09F2:  MOVFF  455,459
09F6:  MOVFF  456,45A
09FA:  MOVWF  x5B
09FC:  MOVFF  450,45C
0A00:  MOVLB  0
0A02:  RCALL  07AE
....................       } 
0A04:  BRA    0AE6
0A06:  MOVLB  4
....................       else 
....................       { 
....................          glcd_pixel(a+x, b+y, color); 
0A08:  MOVF   x4C,W
0A0A:  ADDWF  x51,W
0A0C:  MOVWF  x54
0A0E:  MOVF   x4D,W
0A10:  ADDWF  x52,W
0A12:  MOVWF  x55
0A14:  MOVFF  454,468
0A18:  MOVWF  x69
0A1A:  MOVFF  450,46A
0A1E:  MOVLB  0
0A20:  RCALL  06A2
....................          glcd_pixel(b+x, a+y, color); 
0A22:  MOVLB  4
0A24:  MOVF   x4C,W
0A26:  ADDWF  x52,W
0A28:  MOVWF  x54
0A2A:  MOVF   x4D,W
0A2C:  ADDWF  x51,W
0A2E:  MOVWF  x55
0A30:  MOVFF  454,468
0A34:  MOVWF  x69
0A36:  MOVFF  450,46A
0A3A:  MOVLB  0
0A3C:  RCALL  06A2
....................          glcd_pixel(x-a, b+y, color); 
0A3E:  MOVLB  4
0A40:  MOVF   x51,W
0A42:  SUBWF  x4C,W
0A44:  MOVWF  x54
0A46:  MOVF   x4D,W
0A48:  ADDWF  x52,W
0A4A:  MOVWF  x55
0A4C:  MOVFF  454,468
0A50:  MOVWF  x69
0A52:  MOVFF  450,46A
0A56:  MOVLB  0
0A58:  RCALL  06A2
....................          glcd_pixel(x-b, a+y, color); 
0A5A:  MOVLB  4
0A5C:  MOVF   x52,W
0A5E:  SUBWF  x4C,W
0A60:  MOVWF  x54
0A62:  MOVF   x4D,W
0A64:  ADDWF  x51,W
0A66:  MOVWF  x55
0A68:  MOVFF  454,468
0A6C:  MOVWF  x69
0A6E:  MOVFF  450,46A
0A72:  MOVLB  0
0A74:  RCALL  06A2
....................          glcd_pixel(b+x, y-a, color); 
0A76:  MOVLB  4
0A78:  MOVF   x4C,W
0A7A:  ADDWF  x52,W
0A7C:  MOVWF  x54
0A7E:  MOVF   x51,W
0A80:  SUBWF  x4D,W
0A82:  MOVWF  x55
0A84:  MOVFF  454,468
0A88:  MOVWF  x69
0A8A:  MOVFF  450,46A
0A8E:  MOVLB  0
0A90:  RCALL  06A2
....................          glcd_pixel(a+x, y-b, color); 
0A92:  MOVLB  4
0A94:  MOVF   x4C,W
0A96:  ADDWF  x51,W
0A98:  MOVWF  x54
0A9A:  MOVF   x52,W
0A9C:  SUBWF  x4D,W
0A9E:  MOVWF  x55
0AA0:  MOVFF  454,468
0AA4:  MOVWF  x69
0AA6:  MOVFF  450,46A
0AAA:  MOVLB  0
0AAC:  RCALL  06A2
....................          glcd_pixel(x-a, y-b, color); 
0AAE:  MOVLB  4
0AB0:  MOVF   x51,W
0AB2:  SUBWF  x4C,W
0AB4:  MOVWF  x54
0AB6:  MOVF   x52,W
0AB8:  SUBWF  x4D,W
0ABA:  MOVWF  x55
0ABC:  MOVFF  454,468
0AC0:  MOVWF  x69
0AC2:  MOVFF  450,46A
0AC6:  MOVLB  0
0AC8:  RCALL  06A2
....................          glcd_pixel(x-b, y-a, color); 
0ACA:  MOVLB  4
0ACC:  MOVF   x52,W
0ACE:  SUBWF  x4C,W
0AD0:  MOVWF  x54
0AD2:  MOVF   x51,W
0AD4:  SUBWF  x4D,W
0AD6:  MOVWF  x55
0AD8:  MOVFF  454,468
0ADC:  MOVWF  x69
0ADE:  MOVFF  450,46A
0AE2:  MOVLB  0
0AE4:  RCALL  06A2
....................       } 
....................  
....................       if(P < 0) 
0AE6:  MOVLB  4
0AE8:  BTFSS  x53.7
0AEA:  BRA    0B08
....................          P += 3 + 2 * a++; 
0AEC:  MOVF   x51,W
0AEE:  INCF   x51,F
0AF0:  MOVWF  x54
0AF2:  MOVLW  02
0AF4:  MOVWF  x55
0AF6:  MOVFF  454,456
0AFA:  MOVLB  0
0AFC:  RCALL  08E4
0AFE:  MOVF   01,W
0B00:  ADDLW  03
0B02:  MOVLB  4
0B04:  ADDWF  x53,F
0B06:  BRA    0B2A
....................       else 
....................          P += 5 + 2 * (a++ - b--); 
0B08:  MOVF   x51,W
0B0A:  INCF   x51,F
0B0C:  MOVWF  x54
0B0E:  MOVF   x52,W
0B10:  DECF   x52,F
0B12:  SUBWF  x54,W
0B14:  MOVWF  x54
0B16:  MOVLW  02
0B18:  MOVWF  x55
0B1A:  MOVFF  454,456
0B1E:  MOVLB  0
0B20:  RCALL  08E4
0B22:  MOVF   01,W
0B24:  ADDLW  05
0B26:  MOVLB  4
0B28:  ADDWF  x53,F
....................     } while(a <= b); 
0B2A:  MOVF   x51,W
0B2C:  XORLW  80
0B2E:  MOVWF  00
0B30:  MOVF   x52,W
0B32:  XORLW  80
0B34:  SUBWF  00,W
0B36:  BTFSC  FD8.2
0B38:  BRA    0942
0B3A:  BTFSS  FD8.0
0B3C:  BRA    0942
0B3E:  MOVLB  0
0B40:  RETURN 0
.................... } 
....................  
....................  
.................... ///////////////////////////////////////////////////////////////////////// 
.................... // Purpose:       Write text on a graphic LCD 
.................... // Inputs:        (x,y) - The upper left coordinate of the first letter 
.................... //                textptr - A pointer to an array of text to display 
.................... //                size - The size of the text: 1 = 5x7, 2 = 10x14, ... 
.................... //                color - ON or OFF 
.................... ///////////////////////////////////////////////////////////////////////// 
.................... #ifdef LARGE_LCD 
.................... void glcd_text57(unsigned int16 x, unsigned int16 y, char* textptr, unsigned int8 size, int1 color) 
.................... #else 
.................... void glcd_text57(unsigned int8 x, unsigned int8 y, char* textptr, unsigned int8 size, int1 color) 
.................... #endif 
.................... { 
....................    unsigned int8 j, k, l, m;                       // Loop counters 
....................    unsigned int8 pixelData[5];                     // Stores character data 
....................  
....................    for(; *textptr != '\0'; ++textptr, ++x)// Loop through the passed string 
....................    { 
....................       if(*textptr < 'S') // Checks if the letter is in the first font array 
....................          memcpy(pixelData, FONT[*textptr - ' '], 5); 
....................       else if(*textptr <= '~') // Check if the letter is in the second font array 
....................          memcpy(pixelData, FONT2[*textptr - 'S'], 5); 
....................       else 
....................          memcpy(pixelData, FONT[0], 5);   // Default to space 
....................  
....................       // Handles newline and carriage returns 
....................       switch(*textptr) 
....................       { 
....................          case '\n': 
....................             y += 7*size + 1; 
....................             continue; 
....................          case '\r': 
....................             x = 0; 
....................             continue; 
....................       } 
....................  
....................       if(x+5*size >= GLCD_WIDTH)          // Performs character wrapping 
....................       { 
....................          x = 0;                           // Set x at far left position 
....................          y += 7*size + 1;                 // Set y at next position down 
....................       } 
....................       for(j=0; j<5; ++j, x+=size)         // Loop through character byte data 
....................       { 
....................          for(k=0; k < 7; ++k)             // Loop through the vertical pixels 
....................          { 
....................             if(bit_test(pixelData[j], k)) // Check if the pixel should be set 
....................             { 
....................                for(l=0; l < size; ++l)    // These two loops change the 
....................                {                          // character's size 
....................                   for(m=0; m < size; ++m) 
....................                   { 
....................                      glcd_pixel(x+m, y+k*size+l, color); // Draws the pixel 
....................                   } 
....................                } 
....................             } 
....................          } 
....................       } 
....................    } 
.................... } 
....................  
.................... #endif 
....................  
....................  
.................... UNSIGNED INT8     j, solan=100;  
.................... float  lm35a; 
.................... int16 KQ_HT; 
.................... int16 TP_CH_35,TP_DV_35,DV_35,CH_35;//lm35 
.................... int16 TP_NG,TP_CH,TP_DV,DV,CH;//DS18b20 
.................... void hienthi_glcd() 
.................... { 
....................    glcd_command(glcd_text_mode); 
*
1962:  MOVLW  30
1964:  MOVLB  4
1966:  MOVWF  x4D
1968:  MOVLB  0
196A:  CALL   05A2
....................    glcd_command (glcd_addr_line1+1);//NGUYEN LM35 
196E:  MOVLW  81
1970:  MOVLB  4
1972:  MOVWF  x4D
1974:  MOVLB  0
1976:  CALL   05A2
....................    glcd_data (CH_35 ); 
197A:  MOVFF  43E,44F
197E:  CALL   0C04
....................    glcd_data (DV_35 ); 
1982:  MOVFF  43C,44F
1986:  CALL   0C04
....................     
....................    glcd_command(glcd_text_mode);// NGUYEN DS18B20 
198A:  MOVLW  30
198C:  MOVLB  4
198E:  MOVWF  x4D
1990:  MOVLB  0
1992:  CALL   05A2
....................    glcd_command (glcd_addr_line1+6); 
1996:  MOVLW  86
1998:  MOVLB  4
199A:  MOVWF  x4D
199C:  MOVLB  0
199E:  CALL   05A2
....................    glcd_data (CH ); 
19A2:  MOVFF  448,44F
19A6:  CALL   0C04
....................    glcd_data (DV ); 
19AA:  MOVFF  446,44F
19AE:  CALL   0C04
....................     
....................    glcd_command(glcd_text_mode);//TP LM35 
19B2:  MOVLW  30
19B4:  MOVLB  4
19B6:  MOVWF  x4D
19B8:  MOVLB  0
19BA:  CALL   05A2
....................    glcd_command (glcd_addr_line4 +1); 
19BE:  MOVLW  99
19C0:  MOVLB  4
19C2:  MOVWF  x4D
19C4:  MOVLB  0
19C6:  CALL   05A2
....................    glcd_data (TP_CH_35); 
19CA:  MOVFF  438,44F
19CE:  CALL   0C04
....................    glcd_data (TP_DV_35); 
19D2:  MOVFF  43A,44F
19D6:  CALL   0C04
....................      
....................    glcd_command(glcd_text_mode);//TP DS18B20 
19DA:  MOVLW  30
19DC:  MOVLB  4
19DE:  MOVWF  x4D
19E0:  MOVLB  0
19E2:  CALL   05A2
....................    glcd_command (glcd_addr_line4 + 6); 
19E6:  MOVLW  9E
19E8:  MOVLB  4
19EA:  MOVWF  x4D
19EC:  MOVLB  0
19EE:  CALL   05A2
....................    glcd_data (TP_NG ); 
19F2:  MOVFF  440,44F
19F6:  CALL   0C04
....................    glcd_data (TP_CH ); 
19FA:  MOVFF  442,44F
19FE:  CALL   0C04
1A02:  GOTO   1B66 (RETURN)
.................... } 
.................... void giai_ma_gan_cho_8led_quet() 
.................... { 
....................    led_7dq[0] = ma7doan [GIAY_DS13 % 16]; 
*
13D4:  MOVF   28,W
13D6:  ANDLW  0F
13D8:  CLRF   03
13DA:  MOVFF  FF2,44C
13DE:  BCF    FF2.7
13E0:  CALL   0004
13E4:  MOVLB  4
13E6:  BTFSC  x4C.7
13E8:  BSF    FF2.7
13EA:  MOVWF  11
....................    led_7dq[1] = ma7doan [GIAY_DS13 / 16]; 
13EC:  SWAPF  28,W
13EE:  MOVWF  00
13F0:  MOVLW  0F
13F2:  ANDWF  00,F
13F4:  MOVF   00,W
13F6:  CLRF   03
13F8:  MOVFF  FF2,44C
13FC:  BCF    FF2.7
13FE:  MOVLB  0
1400:  CALL   0004
1404:  MOVLB  4
1406:  BTFSC  x4C.7
1408:  BSF    FF2.7
140A:  MOVWF  12
....................    led_7dq[2] = 0XBF; 
140C:  MOVLW  BF
140E:  MOVWF  13
....................    led_7dq[3] = ma7doan [nguyen % 10 ]; 
1410:  MOVFF  1F,44D
1414:  MOVLW  0A
1416:  MOVWF  x4E
1418:  MOVLB  0
141A:  RCALL  1362
141C:  CLRF   03
141E:  MOVF   00,W
1420:  MOVFF  FF2,44C
1424:  BCF    FF2.7
1426:  CALL   0004
142A:  MOVLB  4
142C:  BTFSC  x4C.7
142E:  BSF    FF2.7
1430:  MOVWF  14
....................    led_7dq[4] = ma7doan [nguyen / 10 ]; 
1432:  MOVFF  1F,44D
1436:  MOVLW  0A
1438:  MOVWF  x4E
143A:  MOVLB  0
143C:  RCALL  1362
143E:  CLRF   03
1440:  MOVF   01,W
1442:  MOVFF  FF2,44C
1446:  BCF    FF2.7
1448:  CALL   0004
144C:  MOVLB  4
144E:  BTFSC  x4C.7
1450:  BSF    FF2.7
1452:  MOVWF  15
....................    led_7dq[5] = 0XBF; 
1454:  MOVLW  BF
1456:  MOVWF  16
....................    led_7dq[6] = ma7doan [KQ_HT / 100 % 10]; 
1458:  MOVFF  437,44F
145C:  MOVFF  436,44E
1460:  CLRF   x51
1462:  MOVLW  64
1464:  MOVWF  x50
1466:  MOVLB  0
1468:  RCALL  138E
146A:  MOVFF  02,44D
146E:  MOVFF  01,44C
1472:  MOVFF  02,44F
1476:  MOVFF  01,44E
147A:  MOVLB  4
147C:  CLRF   x51
147E:  MOVLW  0A
1480:  MOVWF  x50
1482:  MOVLB  0
1484:  RCALL  138E
1486:  MOVFF  00,44C
148A:  MOVLB  4
148C:  MOVFF  03,44D
1490:  MOVFF  03,03
1494:  MOVF   00,W
1496:  MOVFF  FF2,44E
149A:  BCF    FF2.7
149C:  MOVLB  0
149E:  CALL   0004
14A2:  MOVLB  4
14A4:  BTFSC  x4E.7
14A6:  BSF    FF2.7
14A8:  MOVWF  17
....................    led_7dq[7] = ma7doan [KQ_HT / 100 / 10 % 10 ]; 
14AA:  MOVFF  437,44F
14AE:  MOVFF  436,44E
14B2:  CLRF   x51
14B4:  MOVLW  64
14B6:  MOVWF  x50
14B8:  MOVLB  0
14BA:  RCALL  138E
14BC:  MOVFF  02,44D
14C0:  MOVFF  01,44C
14C4:  MOVFF  02,44F
14C8:  MOVFF  01,44E
14CC:  MOVLB  4
14CE:  CLRF   x51
14D0:  MOVLW  0A
14D2:  MOVWF  x50
14D4:  MOVLB  0
14D6:  RCALL  138E
14D8:  MOVFF  02,44D
14DC:  MOVFF  01,44C
14E0:  MOVFF  02,44F
14E4:  MOVFF  01,44E
14E8:  MOVLB  4
14EA:  CLRF   x51
14EC:  MOVLW  0A
14EE:  MOVWF  x50
14F0:  MOVLB  0
14F2:  RCALL  138E
14F4:  MOVFF  00,44C
14F8:  MOVLB  4
14FA:  MOVFF  03,44D
14FE:  MOVFF  03,03
1502:  MOVF   00,W
1504:  MOVFF  FF2,44E
1508:  BCF    FF2.7
150A:  MOVLB  0
150C:  CALL   0004
1510:  MOVLB  4
1512:  BTFSC  x4E.7
1514:  BSF    FF2.7
1516:  MOVWF  18
1518:  MOVLB  0
151A:  RETURN 0
.................... } 
.................... void giaima_lcd_lm35() 
.................... { 
....................    TP_DV_35 = KQ_HT%10 +0x30; 
*
1734:  MOVFF  437,44F
1738:  MOVFF  436,44E
173C:  MOVLB  4
173E:  CLRF   x51
1740:  MOVLW  0A
1742:  MOVWF  x50
1744:  MOVLB  0
1746:  RCALL  138E
1748:  MOVLB  4
174A:  MOVLW  30
174C:  ADDWF  00,W
174E:  MOVWF  x3A
1750:  MOVLW  00
1752:  ADDWFC 03,W
1754:  MOVWF  x3B
....................    TP_CH_35 = KQ_HT/10%10+0x30; 
1756:  MOVFF  437,44F
175A:  MOVFF  436,44E
175E:  CLRF   x51
1760:  MOVLW  0A
1762:  MOVWF  x50
1764:  MOVLB  0
1766:  RCALL  138E
1768:  MOVFF  02,44D
176C:  MOVFF  01,44C
1770:  MOVFF  02,44F
1774:  MOVFF  01,44E
1778:  MOVLB  4
177A:  CLRF   x51
177C:  MOVLW  0A
177E:  MOVWF  x50
1780:  MOVLB  0
1782:  RCALL  138E
1784:  MOVLB  4
1786:  MOVLW  30
1788:  ADDWF  00,W
178A:  MOVWF  x38
178C:  MOVLW  00
178E:  ADDWFC 03,W
1790:  MOVWF  x39
....................    DV_35 = KQ_HT/100%10+0x30; 
1792:  MOVFF  437,44F
1796:  MOVFF  436,44E
179A:  CLRF   x51
179C:  MOVLW  64
179E:  MOVWF  x50
17A0:  MOVLB  0
17A2:  RCALL  138E
17A4:  MOVFF  02,44D
17A8:  MOVFF  01,44C
17AC:  MOVFF  02,44F
17B0:  MOVFF  01,44E
17B4:  MOVLB  4
17B6:  CLRF   x51
17B8:  MOVLW  0A
17BA:  MOVWF  x50
17BC:  MOVLB  0
17BE:  RCALL  138E
17C0:  MOVLB  4
17C2:  MOVLW  30
17C4:  ADDWF  00,W
17C6:  MOVWF  x3C
17C8:  MOVLW  00
17CA:  ADDWFC 03,W
17CC:  MOVWF  x3D
....................    CH_35 = KQ_HT/1000+0x30; 
17CE:  MOVFF  437,44F
17D2:  MOVFF  436,44E
17D6:  MOVLW  03
17D8:  MOVWF  x51
17DA:  MOVLW  E8
17DC:  MOVWF  x50
17DE:  MOVLB  0
17E0:  RCALL  138E
17E2:  MOVLW  30
17E4:  MOVLB  4
17E6:  ADDWF  01,W
17E8:  MOVWF  x3E
17EA:  MOVLW  00
17EC:  ADDWFC 02,W
17EE:  MOVWF  x3F
17F0:  MOVLB  0
17F2:  GOTO   1B5E (RETURN)
.................... } 
....................  
.................... void hienthi_lcd_lm35() 
.................... { 
....................    lcd_GOTO_xy(0,0); 
*
1854:  MOVLB  4
1856:  CLRF   x4C
1858:  CLRF   x4D
185A:  MOVLB  0
185C:  RCALL  17F6
....................    lcd_data("LM35: "); 
185E:  MOVLW  50
1860:  MOVWF  FF6
1862:  MOVLW  00
1864:  MOVWF  FF7
1866:  RCALL  1834
....................    lcd_data(CH_35);lcd_data(DV_35); 
1868:  MOVFF  43E,44E
186C:  RCALL  181C
186E:  MOVFF  43C,44E
1872:  RCALL  181C
....................    lcd_data('.'); 
1874:  MOVLW  2E
1876:  MOVLB  4
1878:  MOVWF  x4E
187A:  MOVLB  0
187C:  RCALL  181C
....................    lcd_data(TP_CH_35);lcd_data(TP_DV_35); 
187E:  MOVFF  438,44E
1882:  RCALL  181C
1884:  MOVFF  43A,44E
1888:  RCALL  181C
188A:  GOTO   1B60 (RETURN)
.................... } 
....................  
.................... ///// 
.................... void giaima_lcd_ds18b20() 
.................... { 
....................    TP_DV = tp%10 +0x30; 
188E:  MOVFF  20,44D
1892:  MOVLW  0A
1894:  MOVLB  4
1896:  MOVWF  x4E
1898:  MOVLB  0
189A:  RCALL  1362
189C:  MOVLW  30
189E:  ADDWF  00,W
18A0:  MOVLB  4
18A2:  MOVWF  x44
18A4:  CLRF   x45
....................    TP_CH = tp/10%10+0x30; 
18A6:  MOVFF  20,44D
18AA:  MOVLW  0A
18AC:  MOVWF  x4E
18AE:  MOVLB  0
18B0:  RCALL  1362
18B2:  MOVFF  01,44D
18B6:  MOVLW  0A
18B8:  MOVLB  4
18BA:  MOVWF  x4E
18BC:  MOVLB  0
18BE:  RCALL  1362
18C0:  MOVLW  30
18C2:  ADDWF  00,W
18C4:  MOVLB  4
18C6:  MOVWF  x42
18C8:  CLRF   x43
....................    TP_NG = tp/100 +0x30; 
18CA:  MOVFF  20,44D
18CE:  MOVLW  64
18D0:  MOVWF  x4E
18D2:  MOVLB  0
18D4:  RCALL  1362
18D6:  MOVLW  30
18D8:  ADDWF  01,W
18DA:  MOVLB  4
18DC:  MOVWF  x40
18DE:  CLRF   x41
....................    DV = nguyen%10+0x30; 
18E0:  MOVFF  1F,44D
18E4:  MOVLW  0A
18E6:  MOVWF  x4E
18E8:  MOVLB  0
18EA:  RCALL  1362
18EC:  MOVLW  30
18EE:  ADDWF  00,W
18F0:  MOVLB  4
18F2:  MOVWF  x46
18F4:  CLRF   x47
....................    CH = nguyen/10%10+0x30; 
18F6:  MOVFF  1F,44D
18FA:  MOVLW  0A
18FC:  MOVWF  x4E
18FE:  MOVLB  0
1900:  RCALL  1362
1902:  MOVFF  01,44D
1906:  MOVLW  0A
1908:  MOVLB  4
190A:  MOVWF  x4E
190C:  MOVLB  0
190E:  RCALL  1362
1910:  MOVLW  30
1912:  ADDWF  00,W
1914:  MOVLB  4
1916:  MOVWF  x48
1918:  CLRF   x49
191A:  MOVLB  0
191C:  GOTO   1B62 (RETURN)
.................... } 
....................  
.................... void hienthi_lcd_ds18b20() 
.................... { 
....................    lcd_GOTO_xy(1,0); 
1920:  MOVLW  01
1922:  MOVLB  4
1924:  MOVWF  x4C
1926:  CLRF   x4D
1928:  MOVLB  0
192A:  RCALL  17F6
....................    lcd_data("DS18B20: "); 
192C:  MOVLW  58
192E:  MOVWF  FF6
1930:  MOVLW  00
1932:  MOVWF  FF7
1934:  RCALL  1834
....................    lcd_data(CH);lcd_data(DV); 
1936:  MOVFF  448,44E
193A:  RCALL  181C
193C:  MOVFF  446,44E
1940:  RCALL  181C
....................    lcd_data('.'); 
1942:  MOVLW  2E
1944:  MOVLB  4
1946:  MOVWF  x4E
1948:  MOVLB  0
194A:  RCALL  181C
....................    lcd_data(TP_NG);lcd_data(TP_CH);lcd_data(TP_DV); 
194C:  MOVFF  440,44E
1950:  RCALL  181C
1952:  MOVFF  442,44E
1956:  RCALL  181C
1958:  MOVFF  444,44E
195C:  RCALL  181C
195E:  GOTO   1B64 (RETURN)
.................... } 
....................  
.................... void doc_nd_lm35a() 
.................... { 
....................    set_adc_channel (0); lm35a = 0; 
*
1238:  MOVLW  00
123A:  MOVWF  01
123C:  MOVF   FC2,W
123E:  ANDLW  C3
1240:  IORWF  01,W
1242:  MOVWF  FC2
1244:  MOVLB  4
1246:  CLRF   x35
1248:  CLRF   x34
124A:  CLRF   x33
124C:  CLRF   x32
....................    FOR (j = 0; j < solan; j++) 
124E:  CLRF   x30
1250:  MOVF   x31,W
1252:  SUBWF  x30,W
1254:  BC    12B0
....................    { 
....................       lm35a = lm35a + read_adc () ; 
1256:  BSF    FC2.1
1258:  BTFSC  FC2.1
125A:  BRA    1258
125C:  MOVFF  FC4,03
1260:  MOVFF  FC3,44C
1264:  MOVFF  FC4,44D
1268:  MOVLB  0
126A:  RCALL  0CF4
126C:  BCF    FD8.1
126E:  MOVFF  435,44F
1272:  MOVFF  434,44E
1276:  MOVFF  433,44D
127A:  MOVFF  432,44C
127E:  MOVFF  03,453
1282:  MOVFF  02,452
1286:  MOVFF  01,451
128A:  MOVFF  00,450
128E:  BRA    0D2A
1290:  MOVFF  03,435
1294:  MOVFF  02,434
1298:  MOVFF  01,433
129C:  MOVFF  00,432
....................       delay_us (100); 
12A0:  MOVLW  A6
12A2:  MOVWF  00
12A4:  DECFSZ 00,F
12A6:  BRA    12A4
12A8:  NOP   
12AA:  MOVLB  4
12AC:  INCF   x30,F
12AE:  BRA    1250
....................    } 
....................  
....................    lm35a = lm35a / 2.046; 
12B0:  MOVFF  435,44F
12B4:  MOVFF  434,44E
12B8:  MOVFF  433,44D
12BC:  MOVFF  432,44C
12C0:  MOVLW  AA
12C2:  MOVWF  x53
12C4:  MOVLW  F1
12C6:  MOVWF  x52
12C8:  MOVLW  02
12CA:  MOVWF  x51
12CC:  MOVLW  80
12CE:  MOVWF  x50
12D0:  MOVLB  0
12D2:  RCALL  0FA4
12D4:  MOVFF  03,435
12D8:  MOVFF  02,434
12DC:  MOVFF  01,433
12E0:  MOVFF  00,432
....................    lm35a = lm35a / solan; 
12E4:  MOVLB  4
12E6:  CLRF   x4D
12E8:  MOVFF  431,44C
12EC:  MOVLB  0
12EE:  RCALL  0CF4
12F0:  MOVFF  435,44F
12F4:  MOVFF  434,44E
12F8:  MOVFF  433,44D
12FC:  MOVFF  432,44C
1300:  MOVFF  03,453
1304:  MOVFF  02,452
1308:  MOVFF  01,451
130C:  MOVFF  00,450
1310:  RCALL  0FA4
1312:  MOVFF  03,435
1316:  MOVFF  02,434
131A:  MOVFF  01,433
131E:  MOVFF  00,432
....................    KQ_HT = (INT16) (LM35A * 100); 
1322:  MOVFF  435,44F
1326:  MOVFF  434,44E
132A:  MOVFF  433,44D
132E:  MOVFF  432,44C
1332:  MOVLB  4
1334:  CLRF   x53
1336:  CLRF   x52
1338:  MOVLW  48
133A:  MOVWF  x51
133C:  MOVLW  85
133E:  MOVWF  x50
1340:  MOVLB  0
1342:  BRA    1102
1344:  MOVFF  03,44F
1348:  MOVFF  02,44E
134C:  MOVFF  01,44D
1350:  MOVFF  00,44C
1354:  BRA    11FA
1356:  MOVFF  02,437
135A:  MOVFF  01,436
135E:  GOTO   1B0C (RETURN)
.................... } 
....................  
.................... void main() 
*
1A06:  CLRF   FF8
1A08:  BCF    FD0.7
1A0A:  CLRF   06
1A0C:  CLRF   0D
1A0E:  CLRF   0E
1A10:  CLRF   0F
1A12:  CLRF   10
1A14:  CLRF   19
1A16:  MOVLW  64
1A18:  MOVLB  4
1A1A:  MOVWF  x31
1A1C:  MOVF   FC1,W
1A1E:  ANDLW  C0
1A20:  IORLW  0F
1A22:  MOVWF  FC1
1A24:  MOVLW  07
1A26:  MOVWF  FB4
1A28:  SETF   11
1A2A:  SETF   12
1A2C:  SETF   13
1A2E:  SETF   14
1A30:  SETF   15
1A32:  SETF   16
1A34:  SETF   17
1A36:  SETF   18
.................... { 
....................    set_up_port_ic_chot (); 
1A38:  MOVLB  0
1A3A:  GOTO   0062
....................    setup_adc (adc_clock_div_32); 
1A3E:  MOVF   FC0,W
1A40:  ANDLW  C0
1A42:  IORLW  02
1A44:  MOVWF  FC0
1A46:  BSF    FC0.7
1A48:  BSF    FC2.0
....................    setup_adc_ports (an0_to_an1|vss_vdd); 
1A4A:  MOVF   FC1,W
1A4C:  ANDLW  C0
1A4E:  IORLW  0D
1A50:  MOVWF  FC1
....................    setup_lcd (); 
1A52:  GOTO   0174
....................    khoi_tao_ds18b20 (); 
1A56:  GOTO   02F4
....................    ds18a_tam = 0; 
1A5A:  CLRF   1C
....................     
....................    doc_thoi_gian_tu_realtime (); 
1A5C:  CALL   03DC
....................  
....................    IF (ma_ds13 != ma_ds) 
1A60:  MOVF   29,W
1A62:  SUBLW  90
1A64:  BZ    1A6E
....................    { 
....................       thiet_lap_thoi_gian_hien_tai (); 
1A66:  GOTO   04BE
....................       NAP_THOI_GIAN_HTAI_VAO_DS13B07 (); 
1A6A:  GOTO   04E4
....................    } 
....................  
....................    doc_thoi_gian_tu_realtime () ; 
1A6E:  CALL   03DC
....................    giaytam = giay_ds13; 
1A72:  MOVFF  28,2B
....................     
....................     
....................    setup_glcd(glcd_text_mode); 
1A76:  MOVLW  30
1A78:  MOVLB  4
1A7A:  MOVWF  x4C
1A7C:  MOVLB  0
1A7E:  CALL   05AC
....................    setup_glcd(glcd_graphic_mode); 
1A82:  MOVLW  36
1A84:  MOVLB  4
1A86:  MOVWF  x4C
1A88:  MOVLB  0
1A8A:  CALL   05AC
....................    glcd_mau_nen(0); 
1A8E:  MOVLB  4
1A90:  CLRF   x4C
1A92:  MOVLB  0
1A94:  GOTO   0626
....................    glcd_circle(22, 12, 12, 0, 1); 
1A98:  MOVLW  16
1A9A:  MOVLB  4
1A9C:  MOVWF  x4C
1A9E:  MOVLW  0C
1AA0:  MOVWF  x4D
1AA2:  MOVWF  x4E
1AA4:  CLRF   x4F
1AA6:  MOVLW  01
1AA8:  MOVWF  x50
1AAA:  MOVLB  0
1AAC:  CALL   0932
....................    glcd_circle(22, 50, 12, 0, 1); 
1AB0:  MOVLW  16
1AB2:  MOVLB  4
1AB4:  MOVWF  x4C
1AB6:  MOVLW  32
1AB8:  MOVWF  x4D
1ABA:  MOVLW  0C
1ABC:  MOVWF  x4E
1ABE:  CLRF   x4F
1AC0:  MOVLW  01
1AC2:  MOVWF  x50
1AC4:  MOVLB  0
1AC6:  CALL   0932
....................     
....................    glcd_rect (80, 0, 120, 20, 0, 1); 
1ACA:  MOVLW  50
1ACC:  MOVLB  4
1ACE:  MOVWF  x4C
1AD0:  CLRF   x4D
1AD2:  MOVLW  78
1AD4:  MOVWF  x4E
1AD6:  MOVLW  14
1AD8:  MOVWF  x4F
1ADA:  CLRF   x50
1ADC:  MOVLW  01
1ADE:  MOVWF  x51
1AE0:  MOVLB  0
1AE2:  CALL   0B42
....................    glcd_rect (80, 45, 120, 63, 0, 1); 
1AE6:  MOVLW  50
1AE8:  MOVLB  4
1AEA:  MOVWF  x4C
1AEC:  MOVLW  2D
1AEE:  MOVWF  x4D
1AF0:  MOVLW  78
1AF2:  MOVWF  x4E
1AF4:  MOVLW  3F
1AF6:  MOVWF  x4F
1AF8:  CLRF   x50
1AFA:  MOVLW  01
1AFC:  MOVWF  x51
1AFE:  MOVLB  0
1B00:  CALL   0B42
....................     
....................    gdram_vdk_to_gdram_glcd_all(); 
1B04:  GOTO   0C0E
....................  
....................     
....................    WHILE (true) 
....................    { 
....................       doc_nd_lm35a (); 
1B08:  GOTO   1238
....................        
....................       doc_thoi_gian_tu_realtime (); 
1B0C:  CALL   03DC
....................  
....................       IF (giaytam != giay_ds13) 
1B10:  MOVF   28,W
1B12:  SUBWF  2B,W
1B14:  BZ    1B1C
....................       { 
....................          giaytam = giay_ds13; 
1B16:  MOVFF  28,2B
....................          //!         HT_DS1307(); 
....................          giai_ma_gan_cho_8led_quet () ; 
1B1A:  RCALL  13D4
....................       } 
....................  
....................       IF (touch_present () ){doc_giatri_ds18b20 (); } 
1B1C:  CALL   01F0
1B20:  MOVF   01,F
1B22:  BTFSS  FD8.2
1B24:  BRA    1586
....................       IF (ds18al != ds18a_tam) 
1B26:  MOVF   1C,W
1B28:  SUBWF  1A,W
1B2A:  BZ    1B46
....................       { 
....................          ds18a_tam = ds18al; 
1B2C:  MOVFF  1A,1C
....................          for (INT i = 0; i < 200; i++) 
1B30:  MOVLB  4
1B32:  CLRF   x4A
1B34:  MOVF   x4A,W
1B36:  SUBLW  C7
1B38:  BNC   1B44
....................          { 
....................             giai_ma_gan_cho_8led_quet () ; 
1B3A:  MOVLB  0
1B3C:  RCALL  13D4
1B3E:  MOVLB  4
1B40:  INCF   x4A,F
1B42:  BRA    1B34
1B44:  MOVLB  0
....................          } 
....................       } 
....................  
....................        
....................       for (INT8 i = 0; i < 200; i++) 
1B46:  MOVLB  4
1B48:  CLRF   x4B
1B4A:  MOVF   x4B,W
1B4C:  SUBLW  C7
1B4E:  BNC   1B5A
....................       { 
....................          hien_thi_8led_7doan_quet () ; 
1B50:  MOVLB  0
1B52:  BRA    16E8
1B54:  MOVLB  4
1B56:  INCF   x4B,F
1B58:  BRA    1B4A
....................       } 
....................  
....................        
....................        
....................       giaima_lcd_lm35 () ; 
1B5A:  MOVLB  0
1B5C:  BRA    1734
....................       hienthi_lcd_lm35 () ; 
1B5E:  BRA    1854
....................        
....................       giaima_lcd_ds18b20 () ; 
1B60:  BRA    188E
....................       hienthi_lcd_ds18b20 () ; 
1B62:  BRA    1920
....................        
....................        
....................       hienthi_glcd(); 
1B64:  BRA    1962
1B66:  BRA    1B08
....................        
....................        
....................    } 
.................... } 
....................  
1B68:  SLEEP 

Configuration Fuses:
   Word  1: CC27   PLL12 CPUDIV1 USBDIV HS FCMEN IESO
   Word  2: 1E3E   PUT BROWNOUT BORV21 VREGEN NOWDT WDT32768
   Word  3: 8700   CCP2C1 PBADEN LPT1OSC MCLR
   Word  4: 00A1   STVREN NOLVP ICSP2 NOXINST NODEBUG
   Word  5: C00F   NOPROTECT NOCPB NOCPD
   Word  6: E00F   NOWRT NOWRTC NOWRTB NOWRTD
   Word  7: 400F   NOEBTR NOEBTRB
